ARM GAS  C:\Users\jdmoussa\AppData\Local\Temp\ccJ6NUZ1.s 			page 1


   1              		.cpu cortex-m0
   2              		.fpu softvfp
   3              		.eabi_attribute 20, 1
   4              		.eabi_attribute 21, 1
   5              		.eabi_attribute 23, 3
   6              		.eabi_attribute 24, 1
   7              		.eabi_attribute 25, 1
   8              		.eabi_attribute 26, 1
   9              		.eabi_attribute 30, 6
  10              		.eabi_attribute 34, 0
  11              		.eabi_attribute 18, 4
  12              		.code	16
  13              		.file	"bas.c"
  14              		.text
  15              	.Ltext0:
  16              		.cfi_sections	.debug_frame
  17              		.global	batteryMeasure
  18              		.bss
  19              		.align	1
  20              		.type	batteryMeasure, %object
  21              		.size	batteryMeasure, 2
  22              	batteryMeasure:
  23 0000 0000     		.space	2
  24              		.section	.rodata
  25              		.align	2
  26              	.LC0:
  27 0000 42415320 		.ascii	"BAS event: %lx, \000"
  27      6576656E 
  27      743A2025 
  27      6C782C20 
  27      00
  28 0011 000000   		.align	2
  29              	.LC2:
  30 0014 4556545F 		.ascii	"EVT_BASS_NOTIFICATION_ENABLED: %x \015\012\000"
  30      42415353 
  30      5F4E4F54 
  30      49464943 
  30      4154494F 
  31 0039 000000   		.align	2
  32              	.LC5:
  33 003c 4556545F 		.ascii	"EVT_BASS_NOTIFICATION_DISABLED: %x \015\012\000"
  33      42415353 
  33      5F4E4F54 
  33      49464943 
  33      4154494F 
  34 0062 0000     		.align	2
  35              	.LC7:
  36 0064 4E6F7420 		.ascii	"Not supported event\015\000"
  36      73757070 
  36      6F727465 
  36      64206576 
  36      656E740D 
  37              		.section	.text.BasCallBack,"ax",%progbits
  38              		.align	2
  39              		.global	BasCallBack
  40              		.code	16
  41              		.thumb_func
ARM GAS  C:\Users\jdmoussa\AppData\Local\Temp\ccJ6NUZ1.s 			page 2


  42              		.type	BasCallBack, %function
  43              	BasCallBack:
  44              	.LFB35:
  45              		.file 1 ".\\bas.c"
   1:.\bas.c       **** /*******************************************************************************
   2:.\bas.c       **** * File Name: bas.c
   3:.\bas.c       **** *
   4:.\bas.c       **** * Version 1.0
   5:.\bas.c       **** *
   6:.\bas.c       **** * Description:
   7:.\bas.c       **** *  This file contains BAS callback handler function.
   8:.\bas.c       **** *
   9:.\bas.c       **** * Hardware Dependency:
  10:.\bas.c       **** *  CY8CKIT-042 BLE
  11:.\bas.c       **** * 
  12:.\bas.c       **** ********************************************************************************
  13:.\bas.c       **** * Copyright 2015, Cypress Semiconductor Corporation.  All rights reserved.
  14:.\bas.c       **** * You may use this file only in accordance with the license, terms, conditions,
  15:.\bas.c       **** * disclaimers, and limitations in the end user license agreement accompanying
  16:.\bas.c       **** * the software package with which this file was provided.
  17:.\bas.c       **** *******************************************************************************/
  18:.\bas.c       **** 
  19:.\bas.c       **** #include "common.h"
  20:.\bas.c       **** #include "bas.h"
  21:.\bas.c       **** 
  22:.\bas.c       **** #if (BAS_SIMULATE_ENABLE != 0u)
  23:.\bas.c       **** uint16 batterySimulation = DISABLED;
  24:.\bas.c       **** #endif /* (BAS_SIMULATE_ENABLE != 0) */
  25:.\bas.c       **** 
  26:.\bas.c       **** #if (BAS_MEASURE_ENABLE != 0u)
  27:.\bas.c       **** uint16 batteryMeasure = DISABLED;
  28:.\bas.c       **** #endif /* (BAS_MEASURE_ENABLE != 0) */
  29:.\bas.c       **** 
  30:.\bas.c       **** 
  31:.\bas.c       **** /*******************************************************************************
  32:.\bas.c       **** * Function Name: BasCallBack()
  33:.\bas.c       **** ********************************************************************************
  34:.\bas.c       **** *
  35:.\bas.c       **** * Summary:
  36:.\bas.c       **** *   This is an event callback function to receive service specific events from 
  37:.\bas.c       **** *   Battery Service.
  38:.\bas.c       **** *
  39:.\bas.c       **** * Parameters:
  40:.\bas.c       **** *  event - the event code
  41:.\bas.c       **** *  *eventParam - the event parameters
  42:.\bas.c       **** *
  43:.\bas.c       **** * Return:
  44:.\bas.c       **** *  None.
  45:.\bas.c       **** *
  46:.\bas.c       **** ********************************************************************************/
  47:.\bas.c       **** void BasCallBack(uint32 event, void *eventParam)
  48:.\bas.c       **** {
  46              		.loc 1 48 0
  47              		.cfi_startproc
  48 0000 80B5     		push	{r7, lr}
  49              		.cfi_def_cfa_offset 8
  50              		.cfi_offset 7, -8
ARM GAS  C:\Users\jdmoussa\AppData\Local\Temp\ccJ6NUZ1.s 			page 3


  51              		.cfi_offset 14, -4
  52 0002 84B0     		sub	sp, sp, #16
  53              		.cfi_def_cfa_offset 24
  54 0004 00AF     		add	r7, sp, #0
  55              		.cfi_def_cfa_register 7
  56 0006 7860     		str	r0, [r7, #4]
  57 0008 3960     		str	r1, [r7]
  49:.\bas.c       ****     uint8 locServiceIndex;
  50:.\bas.c       **** 
  51:.\bas.c       ****     locServiceIndex = ((CYBLE_BAS_CHAR_VALUE_T *)eventParam)->serviceIndex;
  58              		.loc 1 51 0
  59 000a 3B1C     		mov	r3, r7
  60 000c 0F33     		add	r3, r3, #15
  61 000e 3A68     		ldr	r2, [r7]
  62 0010 9278     		ldrb	r2, [r2, #2]
  63 0012 1A70     		strb	r2, [r3]
  52:.\bas.c       ****     printf("BAS event: %lx, ", event);
  64              		.loc 1 52 0
  65 0014 1D4A     		ldr	r2, .L9
  66 0016 7B68     		ldr	r3, [r7, #4]
  67 0018 101C     		mov	r0, r2
  68 001a 191C     		mov	r1, r3
  69 001c FFF7FEFF 		bl	printf
  53:.\bas.c       **** 
  54:.\bas.c       ****     switch(event)
  70              		.loc 1 54 0
  71 0020 7B68     		ldr	r3, [r7, #4]
  72 0022 8D22     		mov	r2, #141
  73 0024 5200     		lsl	r2, r2, #1
  74 0026 9342     		cmp	r3, r2
  75 0028 04D0     		beq	.L3
  76 002a 1C22     		mov	r2, #28
  77 002c FF32     		add	r2, r2, #255
  78 002e 9342     		cmp	r3, r2
  79 0030 12D0     		beq	.L4
  80 0032 23E0     		b	.L8
  81              	.L3:
  55:.\bas.c       ****     {
  56:.\bas.c       ****         case CYBLE_EVT_BASS_NOTIFICATION_ENABLED:
  57:.\bas.c       ****             printf("EVT_BASS_NOTIFICATION_ENABLED: %x \r\n", locServiceIndex);
  82              		.loc 1 57 0
  83 0034 3B1C     		mov	r3, r7
  84 0036 0F33     		add	r3, r3, #15
  85 0038 1B78     		ldrb	r3, [r3]
  86 003a 154A     		ldr	r2, .L9+4
  87 003c 101C     		mov	r0, r2
  88 003e 191C     		mov	r1, r3
  89 0040 FFF7FEFF 		bl	printf
  58:.\bas.c       ****         #if (BAS_SIMULATE_ENABLE != 0)
  59:.\bas.c       ****             if(BAS_SERVICE_SIMULATE == locServiceIndex)
  60:.\bas.c       ****             {
  61:.\bas.c       ****                 batterySimulation = ENABLED;
  62:.\bas.c       ****             }
  63:.\bas.c       ****         #endif /*  (BAS_SIMULATE_ENABLE != 0) */        
  64:.\bas.c       ****         #if (BAS_MEASURE_ENABLE != 0)
  65:.\bas.c       ****             if(BAS_SERVICE_MEASURE == locServiceIndex)
  90              		.loc 1 65 0
ARM GAS  C:\Users\jdmoussa\AppData\Local\Temp\ccJ6NUZ1.s 			page 4


  91 0044 3B1C     		mov	r3, r7
  92 0046 0F33     		add	r3, r3, #15
  93 0048 1B78     		ldrb	r3, [r3]
  94 004a 002B     		cmp	r3, #0
  95 004c 03D1     		bne	.L5
  66:.\bas.c       ****             {
  67:.\bas.c       ****                 batteryMeasure = ENABLED;
  96              		.loc 1 67 0
  97 004e 114B     		ldr	r3, .L9+8
  98 0050 0122     		mov	r2, #1
  99 0052 1A80     		strh	r2, [r3]
  68:.\bas.c       ****             }
  69:.\bas.c       ****         #endif /*  (BAS_MEASURE_ENABLE != 0) */     
  70:.\bas.c       ****             break;
 100              		.loc 1 70 0
 101 0054 17E0     		b	.L1
 102              	.L5:
 103 0056 16E0     		b	.L1
 104              	.L4:
  71:.\bas.c       **** 
  72:.\bas.c       ****         case CYBLE_EVT_BASS_NOTIFICATION_DISABLED:
  73:.\bas.c       ****             printf("EVT_BASS_NOTIFICATION_DISABLED: %x \r\n", locServiceIndex);
 105              		.loc 1 73 0
 106 0058 3B1C     		mov	r3, r7
 107 005a 0F33     		add	r3, r3, #15
 108 005c 1B78     		ldrb	r3, [r3]
 109 005e 0E4A     		ldr	r2, .L9+12
 110 0060 101C     		mov	r0, r2
 111 0062 191C     		mov	r1, r3
 112 0064 FFF7FEFF 		bl	printf
  74:.\bas.c       ****         #if (BAS_SIMULATE_ENABLE != 0)
  75:.\bas.c       ****             if(BAS_SERVICE_SIMULATE == locServiceIndex)
  76:.\bas.c       ****             {
  77:.\bas.c       ****                 batterySimulation = DISABLED;
  78:.\bas.c       ****             }
  79:.\bas.c       ****         #endif /*  (BAS_SIMULATE_ENABLE != 0) */        
  80:.\bas.c       ****         #if (BAS_MEASURE_ENABLE != 0)
  81:.\bas.c       ****             if(BAS_SERVICE_MEASURE == locServiceIndex)
 113              		.loc 1 81 0
 114 0068 3B1C     		mov	r3, r7
 115 006a 0F33     		add	r3, r3, #15
 116 006c 1B78     		ldrb	r3, [r3]
 117 006e 002B     		cmp	r3, #0
 118 0070 03D1     		bne	.L7
  82:.\bas.c       ****             {
  83:.\bas.c       ****                 batteryMeasure = DISABLED;
 119              		.loc 1 83 0
 120 0072 084B     		ldr	r3, .L9+8
 121 0074 0022     		mov	r2, #0
 122 0076 1A80     		strh	r2, [r3]
  84:.\bas.c       ****             }
  85:.\bas.c       ****         #endif /*  (BAS_MEASURE_ENABLE != 0) */     
  86:.\bas.c       ****             break;
 123              		.loc 1 86 0
 124 0078 05E0     		b	.L1
 125              	.L7:
 126 007a 04E0     		b	.L1
ARM GAS  C:\Users\jdmoussa\AppData\Local\Temp\ccJ6NUZ1.s 			page 5


 127              	.L8:
  87:.\bas.c       ****             
  88:.\bas.c       ****         default:
  89:.\bas.c       ****             printf("Not supported event\r\n");
 128              		.loc 1 89 0
 129 007c 074B     		ldr	r3, .L9+16
 130 007e 181C     		mov	r0, r3
 131 0080 FFF7FEFF 		bl	puts
  90:.\bas.c       ****             break;
 132              		.loc 1 90 0
 133 0084 C046     		mov	r8, r8
 134              	.L1:
  91:.\bas.c       ****     }
  92:.\bas.c       **** }
 135              		.loc 1 92 0
 136 0086 BD46     		mov	sp, r7
 137 0088 04B0     		add	sp, sp, #16
 138              		@ sp needed
 139 008a 80BD     		pop	{r7, pc}
 140              	.L10:
 141              		.align	2
 142              	.L9:
 143 008c 00000000 		.word	.LC0
 144 0090 14000000 		.word	.LC2
 145 0094 00000000 		.word	batteryMeasure
 146 0098 3C000000 		.word	.LC5
 147 009c 64000000 		.word	.LC7
 148              		.cfi_endproc
 149              	.LFE35:
 150              		.size	BasCallBack, .-BasCallBack
 151              		.section	.text.BasInit,"ax",%progbits
 152              		.align	2
 153              		.global	BasInit
 154              		.code	16
 155              		.thumb_func
 156              		.type	BasInit, %function
 157              	BasInit:
 158              	.LFB36:
  93:.\bas.c       **** 
  94:.\bas.c       **** 
  95:.\bas.c       **** /*******************************************************************************
  96:.\bas.c       **** * Function Name: BasInit()
  97:.\bas.c       **** ********************************************************************************
  98:.\bas.c       **** *
  99:.\bas.c       **** * Summary:
 100:.\bas.c       **** *   Initializes the battery service.
 101:.\bas.c       **** *
 102:.\bas.c       **** *******************************************************************************/
 103:.\bas.c       **** void BasInit(void)
 104:.\bas.c       **** {
 159              		.loc 1 104 0
 160              		.cfi_startproc
 161 0000 90B5     		push	{r4, r7, lr}
 162              		.cfi_def_cfa_offset 12
 163              		.cfi_offset 4, -12
 164              		.cfi_offset 7, -8
 165              		.cfi_offset 14, -4
ARM GAS  C:\Users\jdmoussa\AppData\Local\Temp\ccJ6NUZ1.s 			page 6


 166 0002 85B0     		sub	sp, sp, #20
 167              		.cfi_def_cfa_offset 32
 168 0004 02AF     		add	r7, sp, #8
 169              		.cfi_def_cfa 7, 24
 105:.\bas.c       ****     CYBLE_API_RESULT_T apiResult;
 106:.\bas.c       ****     uint16 cccdValue;
 107:.\bas.c       ****     
 108:.\bas.c       ****     /* Register service specific callback function */
 109:.\bas.c       ****     CyBle_BasRegisterAttrCallback(BasCallBack);
 170              		.loc 1 109 0
 171 0006 104B     		ldr	r3, .L13
 172 0008 181C     		mov	r0, r3
 173 000a FFF7FEFF 		bl	CyBle_BasRegisterAttrCallback
 110:.\bas.c       **** 
 111:.\bas.c       ****     /* Read CCCD configurations from flash */
 112:.\bas.c       **** #if (BAS_SIMULATE_ENABLE != 0)
 113:.\bas.c       ****     apiResult = CyBle_BassGetCharacteristicDescriptor(BAS_SERVICE_SIMULATE, CYBLE_BAS_BATTERY_LEVEL
 114:.\bas.c       ****         CYBLE_BAS_BATTERY_LEVEL_CCCD, CYBLE_CCCD_LEN, (uint8 *)&cccdValue);
 115:.\bas.c       ****     if((apiResult == CYBLE_ERROR_OK) && (cccdValue != 0u))
 116:.\bas.c       ****     {
 117:.\bas.c       ****         batterySimulation |= ENABLED;
 118:.\bas.c       ****     }
 119:.\bas.c       **** #endif /* (BAS_SIMULATE_ENABLE != 0) */
 120:.\bas.c       **** #if (BAS_MEASURE_ENABLE != 0)
 121:.\bas.c       ****     apiResult = CyBle_BassGetCharacteristicDescriptor(BAS_SERVICE_MEASURE, CYBLE_BAS_BATTERY_LEVEL,
 174              		.loc 1 121 0
 175 000e BC1D     		add	r4, r7, #6
 176 0010 3B1D     		add	r3, r7, #4
 177 0012 0093     		str	r3, [sp]
 178 0014 0020     		mov	r0, #0
 179 0016 0021     		mov	r1, #0
 180 0018 0022     		mov	r2, #0
 181 001a 0223     		mov	r3, #2
 182 001c FFF7FEFF 		bl	CyBle_BassGetCharacteristicDescriptor
 183 0020 031C     		mov	r3, r0
 184 0022 2380     		strh	r3, [r4]
 122:.\bas.c       ****         CYBLE_BAS_BATTERY_LEVEL_CCCD, CYBLE_CCCD_LEN, (uint8 *)&cccdValue);
 123:.\bas.c       ****     if((apiResult == CYBLE_ERROR_OK) && (cccdValue != 0u))
 185              		.loc 1 123 0
 186 0024 BB1D     		add	r3, r7, #6
 187 0026 1B88     		ldrh	r3, [r3]
 188 0028 002B     		cmp	r3, #0
 189 002a 0AD1     		bne	.L11
 190              		.loc 1 123 0 is_stmt 0 discriminator 1
 191 002c 3B1D     		add	r3, r7, #4
 192 002e 1B88     		ldrh	r3, [r3]
 193 0030 002B     		cmp	r3, #0
 194 0032 06D0     		beq	.L11
 124:.\bas.c       ****     {
 125:.\bas.c       ****         batteryMeasure |= ENABLED;
 195              		.loc 1 125 0 is_stmt 1
 196 0034 054B     		ldr	r3, .L13+4
 197 0036 1B88     		ldrh	r3, [r3]
 198 0038 0122     		mov	r2, #1
 199 003a 1343     		orr	r3, r2
 200 003c 9AB2     		uxth	r2, r3
 201 003e 034B     		ldr	r3, .L13+4
ARM GAS  C:\Users\jdmoussa\AppData\Local\Temp\ccJ6NUZ1.s 			page 7


 202 0040 1A80     		strh	r2, [r3]
 203              	.L11:
 126:.\bas.c       ****     }
 127:.\bas.c       **** #endif /* (BAS_MEASURE_ENABLE != 0) */
 128:.\bas.c       **** }
 204              		.loc 1 128 0
 205 0042 BD46     		mov	sp, r7
 206 0044 03B0     		add	sp, sp, #12
 207              		@ sp needed
 208 0046 90BD     		pop	{r4, r7, pc}
 209              	.L14:
 210              		.align	2
 211              	.L13:
 212 0048 00000000 		.word	BasCallBack
 213 004c 00000000 		.word	batteryMeasure
 214              		.cfi_endproc
 215              	.LFE36:
 216              		.size	BasInit, .-BasInit
 217              		.global	__aeabi_idiv
 218              		.section	.rodata
 219 0079 000000   		.align	2
 220              	.LC13:
 221 007c 42617373 		.ascii	"BassSendNotification API Error: %x \015\012\000"
 221      53656E64 
 221      4E6F7469 
 221      66696361 
 221      74696F6E 
 222 00a2 0000     		.align	2
 223              	.LC16:
 224 00a4 4D656173 		.ascii	"MeasureBatteryLevelUpdate: %d \015\012\000"
 224      75726542 
 224      61747465 
 224      72794C65 
 224      76656C55 
 225 00c5 000000   		.section	.text.MeasureBattery,"ax",%progbits
 226              		.align	2
 227              		.global	MeasureBattery
 228              		.code	16
 229              		.thumb_func
 230              		.type	MeasureBattery, %function
 231              	MeasureBattery:
 232              	.LFB37:
 129:.\bas.c       **** 
 130:.\bas.c       **** 
 131:.\bas.c       **** #if (BAS_MEASURE_ENABLE != 0)
 132:.\bas.c       ****     
 133:.\bas.c       **** 
 134:.\bas.c       **** /*******************************************************************************
 135:.\bas.c       **** * Function Name: MeasureBattery()
 136:.\bas.c       **** ********************************************************************************
 137:.\bas.c       **** *
 138:.\bas.c       **** * Summary:
 139:.\bas.c       **** *   This function measures the battery voltage and sends it to the client.
 140:.\bas.c       **** *
 141:.\bas.c       **** *******************************************************************************/
 142:.\bas.c       **** void MeasureBattery(void)
 143:.\bas.c       **** {
ARM GAS  C:\Users\jdmoussa\AppData\Local\Temp\ccJ6NUZ1.s 			page 8


 233              		.loc 1 143 0
 234              		.cfi_startproc
 235 0000 90B5     		push	{r4, r7, lr}
 236              		.cfi_def_cfa_offset 12
 237              		.cfi_offset 4, -12
 238              		.cfi_offset 7, -8
 239              		.cfi_offset 14, -4
 240 0002 87B0     		sub	sp, sp, #28
 241              		.cfi_def_cfa_offset 40
 242 0004 02AF     		add	r7, sp, #8
 243              		.cfi_def_cfa 7, 32
 144:.\bas.c       **** 	int16 adcResult;
 145:.\bas.c       ****     int32 mvolts;
 146:.\bas.c       **** 	uint32 sarControlReg;
 147:.\bas.c       ****     uint8 batteryLevel;
 148:.\bas.c       ****     CYBLE_API_RESULT_T apiResult;
 149:.\bas.c       ****     
 150:.\bas.c       ****     static uint32 batteryTimer = BATTERY_TIMEOUT;
 151:.\bas.c       ****     
 152:.\bas.c       ****     if(--batteryTimer == 0u) 
 244              		.loc 1 152 0
 245 0006 584B     		ldr	r3, .L24
 246 0008 1B68     		ldr	r3, [r3]
 247 000a 5A1E     		sub	r2, r3, #1
 248 000c 564B     		ldr	r3, .L24
 249 000e 1A60     		str	r2, [r3]
 250 0010 554B     		ldr	r3, .L24
 251 0012 1B68     		ldr	r3, [r3]
 252 0014 002B     		cmp	r3, #0
 253 0016 00D0     		beq	.LCB189
 254 0018 A2E0     		b	.L15	@long jump
 255              	.LCB189:
 153:.\bas.c       ****     {
 154:.\bas.c       ****         batteryTimer = BATTERY_TIMEOUT;
 256              		.loc 1 154 0
 257 001a 534B     		ldr	r3, .L24
 258 001c 0322     		mov	r2, #3
 259 001e 1A60     		str	r2, [r3]
 155:.\bas.c       ****         
 156:.\bas.c       ****     	/* Set the reference to VBG and enable reference bypass */
 157:.\bas.c       ****     	sarControlReg = ADC_SAR_CTRL_REG & ~ADC_VREF_MASK;
 260              		.loc 1 157 0
 261 0020 524B     		ldr	r3, .L24+4
 262 0022 1B68     		ldr	r3, [r3]
 263 0024 F022     		mov	r2, #240
 264 0026 9343     		bic	r3, r2
 265 0028 FB60     		str	r3, [r7, #12]
 158:.\bas.c       ****     	ADC_SAR_CTRL_REG = sarControlReg | ADC_VREF_INTERNAL1024BYPASSED;
 266              		.loc 1 158 0
 267 002a 504B     		ldr	r3, .L24+4
 268 002c FA68     		ldr	r2, [r7, #12]
 269 002e C021     		mov	r1, #192
 270 0030 0A43     		orr	r2, r1
 271 0032 1A60     		str	r2, [r3]
 159:.\bas.c       ****     	
 160:.\bas.c       ****     	/* 25 ms delay for reference capacitor to charge */
 161:.\bas.c       ****     	CyDelay(25);             
ARM GAS  C:\Users\jdmoussa\AppData\Local\Temp\ccJ6NUZ1.s 			page 9


 272              		.loc 1 161 0
 273 0034 1920     		mov	r0, #25
 274 0036 FFF7FEFF 		bl	CyDelay
 162:.\bas.c       ****     	
 163:.\bas.c       ****     	/* Set the reference to VDD and disable reference bypass */
 164:.\bas.c       ****     	sarControlReg = ADC_SAR_CTRL_REG & ~ADC_VREF_MASK;
 275              		.loc 1 164 0
 276 003a 4C4B     		ldr	r3, .L24+4
 277 003c 1B68     		ldr	r3, [r3]
 278 003e F022     		mov	r2, #240
 279 0040 9343     		bic	r3, r2
 280 0042 FB60     		str	r3, [r7, #12]
 165:.\bas.c       ****     	ADC_SAR_CTRL_REG = sarControlReg | ADC_VREF_VDDA;
 281              		.loc 1 165 0
 282 0044 494B     		ldr	r3, .L24+4
 283 0046 FA68     		ldr	r2, [r7, #12]
 284 0048 7021     		mov	r1, #112
 285 004a 0A43     		orr	r2, r1
 286 004c 1A60     		str	r2, [r3]
 166:.\bas.c       **** 
 167:.\bas.c       ****     	/* Perform a measurement. Store this value in Vref. */
 168:.\bas.c       ****     	CyDelay(1);
 287              		.loc 1 168 0
 288 004e 0120     		mov	r0, #1
 289 0050 FFF7FEFF 		bl	CyDelay
 169:.\bas.c       ****     	ADC_StartConvert();
 290              		.loc 1 169 0
 291 0054 FFF7FEFF 		bl	ADC_StartConvert
 170:.\bas.c       ****     	ADC_IsEndConversion(ADC_WAIT_FOR_RESULT);
 292              		.loc 1 170 0
 293 0058 0220     		mov	r0, #2
 294 005a FFF7FEFF 		bl	ADC_IsEndConversion
 171:.\bas.c       **** 
 172:.\bas.c       ****         adcResult = ADC_GetResult16(ADC_BATTERY_CHANNEL);
 295              		.loc 1 172 0
 296 005e 3C1C     		mov	r4, r7
 297 0060 0A34     		add	r4, r4, #10
 298 0062 0020     		mov	r0, #0
 299 0064 FFF7FEFF 		bl	ADC_GetResult16
 300 0068 031C     		mov	r3, r0
 301 006a 2380     		strh	r3, [r4]
 173:.\bas.c       ****     	/* Calculate input voltage by using ratio of ADC counts from reference
 174:.\bas.c       ****     	*  and ADC Full Scale counts. 
 175:.\bas.c       ****         */
 176:.\bas.c       ****     	mvolts = (1024 * 2048) / adcResult;
 302              		.loc 1 176 0
 303 006c 3B1C     		mov	r3, r7
 304 006e 0A33     		add	r3, r3, #10
 305 0070 0021     		mov	r1, #0
 306 0072 5B5E     		ldrsh	r3, [r3, r1]
 307 0074 8022     		mov	r2, #128
 308 0076 9003     		lsl	r0, r2, #14
 309 0078 191C     		mov	r1, r3
 310 007a FFF7FEFF 		bl	__aeabi_idiv
 311 007e 031C     		mov	r3, r0
 312 0080 7B60     		str	r3, [r7, #4]
 177:.\bas.c       ****         
ARM GAS  C:\Users\jdmoussa\AppData\Local\Temp\ccJ6NUZ1.s 			page 10


 178:.\bas.c       ****         /* Convert battery level voltage to percentage using linear approximation
 179:.\bas.c       ****         *  divided to two sections according to typical performance of 
 180:.\bas.c       ****         *  CR2033 battery specification:
 181:.\bas.c       ****         *  3V - 100%
 182:.\bas.c       ****         *  2.8V - 29%
 183:.\bas.c       ****         *  2.0V - 0%
 184:.\bas.c       ****         */
 185:.\bas.c       ****         if(mvolts < MEASURE_BATTERY_MIN)
 313              		.loc 1 185 0
 314 0082 7A68     		ldr	r2, [r7, #4]
 315 0084 3A4B     		ldr	r3, .L24+8
 316 0086 9A42     		cmp	r2, r3
 317 0088 03DC     		bgt	.L17
 186:.\bas.c       ****         {
 187:.\bas.c       ****             batteryLevel = 0;
 318              		.loc 1 187 0
 319 008a 7B1C     		add	r3, r7, #1
 320 008c 0022     		mov	r2, #0
 321 008e 1A70     		strb	r2, [r3]
 322 0090 2FE0     		b	.L18
 323              	.L17:
 188:.\bas.c       ****         }
 189:.\bas.c       ****         else if(mvolts < MEASURE_BATTERY_MID)
 324              		.loc 1 189 0
 325 0092 7A68     		ldr	r2, [r7, #4]
 326 0094 374B     		ldr	r3, .L24+12
 327 0096 9A42     		cmp	r2, r3
 328 0098 11DC     		bgt	.L19
 190:.\bas.c       ****         {
 191:.\bas.c       ****             batteryLevel = (mvolts - MEASURE_BATTERY_MIN) * MEASURE_BATTERY_MID_PERCENT / 
 329              		.loc 1 191 0
 330 009a 7B68     		ldr	r3, [r7, #4]
 331 009c 3649     		ldr	r1, .L24+16
 332 009e 5A18     		add	r2, r3, r1
 333 00a0 131C     		mov	r3, r2
 334 00a2 DB00     		lsl	r3, r3, #3
 335 00a4 9B1A     		sub	r3, r3, r2
 336 00a6 9B00     		lsl	r3, r3, #2
 337 00a8 9B18     		add	r3, r3, r2
 338 00aa 181C     		mov	r0, r3
 339 00ac C823     		mov	r3, #200
 340 00ae 9900     		lsl	r1, r3, #2
 341 00b0 FFF7FEFF 		bl	__aeabi_idiv
 342 00b4 031C     		mov	r3, r0
 343 00b6 DAB2     		uxtb	r2, r3
 344 00b8 7B1C     		add	r3, r7, #1
 345 00ba 1A70     		strb	r2, [r3]
 346 00bc 19E0     		b	.L18
 347              	.L19:
 192:.\bas.c       ****                            (MEASURE_BATTERY_MID - MEASURE_BATTERY_MIN); 
 193:.\bas.c       ****         }
 194:.\bas.c       ****         else if(mvolts < MEASURE_BATTERY_MAX)
 348              		.loc 1 194 0
 349 00be 7A68     		ldr	r2, [r7, #4]
 350 00c0 2E4B     		ldr	r3, .L24+20
 351 00c2 9A42     		cmp	r2, r3
 352 00c4 12DC     		bgt	.L20
ARM GAS  C:\Users\jdmoussa\AppData\Local\Temp\ccJ6NUZ1.s 			page 11


 195:.\bas.c       ****         {
 196:.\bas.c       ****             batteryLevel = MEASURE_BATTERY_MID_PERCENT +
 197:.\bas.c       ****                            (mvolts - MEASURE_BATTERY_MID) * (100 - MEASURE_BATTERY_MID_PERCENT) / 
 353              		.loc 1 197 0
 354 00c6 7B68     		ldr	r3, [r7, #4]
 355 00c8 2D49     		ldr	r1, .L24+24
 356 00ca 5A18     		add	r2, r3, r1
 357 00cc 131C     		mov	r3, r2
 358 00ce DB00     		lsl	r3, r3, #3
 359 00d0 9B18     		add	r3, r3, r2
 360 00d2 DB00     		lsl	r3, r3, #3
 361 00d4 9B1A     		sub	r3, r3, r2
 362 00d6 181C     		mov	r0, r3
 363 00d8 C821     		mov	r1, #200
 364 00da FFF7FEFF 		bl	__aeabi_idiv
 365 00de 031C     		mov	r3, r0
 196:.\bas.c       ****             batteryLevel = MEASURE_BATTERY_MID_PERCENT +
 366              		.loc 1 196 0
 367 00e0 DBB2     		uxtb	r3, r3
 368 00e2 1D33     		add	r3, r3, #29
 369 00e4 DAB2     		uxtb	r2, r3
 370 00e6 7B1C     		add	r3, r7, #1
 371 00e8 1A70     		strb	r2, [r3]
 372 00ea 02E0     		b	.L18
 373              	.L20:
 198:.\bas.c       ****                            (MEASURE_BATTERY_MAX - MEASURE_BATTERY_MID); 
 199:.\bas.c       ****         }
 200:.\bas.c       ****         else
 201:.\bas.c       ****         {
 202:.\bas.c       ****             batteryLevel = CYBLE_BAS_MAX_BATTERY_LEVEL_VALUE;
 374              		.loc 1 202 0
 375 00ec 7B1C     		add	r3, r7, #1
 376 00ee 6422     		mov	r2, #100
 377 00f0 1A70     		strb	r2, [r3]
 378              	.L18:
 203:.\bas.c       ****         }
 204:.\bas.c       ****         
 205:.\bas.c       ****     #if (BAS_MEASURE_LP_LED != 0u)
 206:.\bas.c       ****         if(batteryLevel < LOW_BATTERY_LIMIT)
 379              		.loc 1 206 0
 380 00f2 7B1C     		add	r3, r7, #1
 381 00f4 1B78     		ldrb	r3, [r3]
 382 00f6 092B     		cmp	r3, #9
 383 00f8 03D8     		bhi	.L21
 207:.\bas.c       ****         {
 208:.\bas.c       ****             LowPower_LED_Write(LED_ON);
 384              		.loc 1 208 0
 385 00fa 0020     		mov	r0, #0
 386 00fc FFF7FEFF 		bl	LowPower_LED_Write
 387 0100 02E0     		b	.L22
 388              	.L21:
 209:.\bas.c       ****         }
 210:.\bas.c       ****         else
 211:.\bas.c       ****         {
 212:.\bas.c       ****             LowPower_LED_Write(LED_OFF);
 389              		.loc 1 212 0
 390 0102 0120     		mov	r0, #1
ARM GAS  C:\Users\jdmoussa\AppData\Local\Temp\ccJ6NUZ1.s 			page 12


 391 0104 FFF7FEFF 		bl	LowPower_LED_Write
 392              	.L22:
 213:.\bas.c       ****         }
 214:.\bas.c       ****     #endif /* (BAS_MEASURE_LP_LED != 0u) */
 215:.\bas.c       **** 
 216:.\bas.c       ****         /* Update Battery Level characteristic value */
 217:.\bas.c       ****         apiResult = CyBle_BassSendNotification(cyBle_connHandle, BAS_SERVICE_MEASURE, CYBLE_BAS_BAT
 393              		.loc 1 217 0
 394 0108 BC1C     		add	r4, r7, #2
 395 010a 1E4B     		ldr	r3, .L24+28
 396 010c 7A1C     		add	r2, r7, #1
 397 010e 0092     		str	r2, [sp]
 398 0110 1A78     		ldrb	r2, [r3]
 399 0112 5B78     		ldrb	r3, [r3, #1]
 400 0114 1B02     		lsl	r3, r3, #8
 401 0116 1A43     		orr	r2, r3
 402 0118 0023     		mov	r3, #0
 403 011a 1204     		lsl	r2, r2, #16
 404 011c 120C     		lsr	r2, r2, #16
 405 011e 1B0C     		lsr	r3, r3, #16
 406 0120 1B04     		lsl	r3, r3, #16
 407 0122 1343     		orr	r3, r2
 408 0124 181C     		mov	r0, r3
 409 0126 0021     		mov	r1, #0
 410 0128 0022     		mov	r2, #0
 411 012a 0123     		mov	r3, #1
 412 012c FFF7FEFF 		bl	CyBle_BassSendNotification
 413 0130 031C     		mov	r3, r0
 414 0132 2380     		strh	r3, [r4]
 218:.\bas.c       ****                         sizeof(batteryLevel), &batteryLevel);
 219:.\bas.c       ****         if(apiResult != CYBLE_ERROR_OK)
 415              		.loc 1 219 0
 416 0134 BB1C     		add	r3, r7, #2
 417 0136 1B88     		ldrh	r3, [r3]
 418 0138 002B     		cmp	r3, #0
 419 013a 0AD0     		beq	.L23
 220:.\bas.c       ****         {
 221:.\bas.c       ****             printf("BassSendNotification API Error: %x \r\n", apiResult);
 420              		.loc 1 221 0
 421 013c BB1C     		add	r3, r7, #2
 422 013e 1B88     		ldrh	r3, [r3]
 423 0140 114A     		ldr	r2, .L24+32
 424 0142 101C     		mov	r0, r2
 425 0144 191C     		mov	r1, r3
 426 0146 FFF7FEFF 		bl	printf
 222:.\bas.c       ****             batteryMeasure = DISABLED;
 427              		.loc 1 222 0
 428 014a 104B     		ldr	r3, .L24+36
 429 014c 0022     		mov	r2, #0
 430 014e 1A80     		strh	r2, [r3]
 431 0150 06E0     		b	.L15
 432              	.L23:
 223:.\bas.c       ****         }
 224:.\bas.c       ****         else
 225:.\bas.c       ****         {
 226:.\bas.c       ****             printf("MeasureBatteryLevelUpdate: %d \r\n",batteryLevel);
 433              		.loc 1 226 0
ARM GAS  C:\Users\jdmoussa\AppData\Local\Temp\ccJ6NUZ1.s 			page 13


 434 0152 7B1C     		add	r3, r7, #1
 435 0154 1B78     		ldrb	r3, [r3]
 436 0156 0E4A     		ldr	r2, .L24+40
 437 0158 101C     		mov	r0, r2
 438 015a 191C     		mov	r1, r3
 439 015c FFF7FEFF 		bl	printf
 440              	.L15:
 227:.\bas.c       ****         }
 228:.\bas.c       ****     }
 229:.\bas.c       **** }
 441              		.loc 1 229 0
 442 0160 BD46     		mov	sp, r7
 443 0162 05B0     		add	sp, sp, #20
 444              		@ sp needed
 445 0164 90BD     		pop	{r4, r7, pc}
 446              	.L25:
 447 0166 C046     		.align	2
 448              	.L24:
 449 0168 00000000 		.word	batteryTimer.7476
 450 016c 00003A40 		.word	1077542912
 451 0170 CF070000 		.word	1999
 452 0174 EF0A0000 		.word	2799
 453 0178 30F8FFFF 		.word	-2000
 454 017c B70B0000 		.word	2999
 455 0180 10F5FFFF 		.word	-2800
 456 0184 00000000 		.word	cyBle_connHandle
 457 0188 7C000000 		.word	.LC13
 458 018c 00000000 		.word	batteryMeasure
 459 0190 A4000000 		.word	.LC16
 460              		.cfi_endproc
 461              	.LFE37:
 462              		.size	MeasureBattery, .-MeasureBattery
 463              		.data
 464              		.align	2
 465              		.type	batteryTimer.7476, %object
 466              		.size	batteryTimer.7476, 4
 467              	batteryTimer.7476:
 468 0000 03000000 		.word	3
 469              		.text
 470              	.Letext0:
 471              		.file 2 ".\\Generated_Source\\PSoC4/cytypes.h"
 472              		.file 3 ".\\Generated_Source\\PSoC4/CYBLE_Stack.h"
 473              		.file 4 ".\\Generated_Source\\PSoC4/CYBLE_StackGatt.h"
 474              		.file 5 ".\\Generated_Source\\PSoC4/CYBLE_bas.h"
 475              		.file 6 ".\\Generated_Source\\PSoC4/CYBLE_bls.h"
 476              		.file 7 ".\\Generated_Source\\PSoC4/CYBLE_dis.h"
 477              		.file 8 ".\\Generated_Source\\PSoC4/CYBLE_eventHandler.h"