ARM GAS  C:\Users\jdmoussa\AppData\Local\Temp\cccazBog.s 			page 1


   1              		.cpu cortex-m0
   2              		.fpu softvfp
   3              		.eabi_attribute 20, 1
   4              		.eabi_attribute 21, 1
   5              		.eabi_attribute 23, 3
   6              		.eabi_attribute 24, 1
   7              		.eabi_attribute 25, 1
   8              		.eabi_attribute 26, 1
   9              		.eabi_attribute 30, 6
  10              		.eabi_attribute 34, 0
  11              		.eabi_attribute 18, 4
  12              		.code	16
  13              		.file	"CYBLE_bls.c"
  14              		.text
  15              	.Ltext0:
  16              		.cfi_sections	.debug_frame
  17              		.bss
  18              		.align	2
  19              	CyBle_BlsApplCallback:
  20 0000 00000000 		.space	4
  21              		.global	cyBle_blss
  22              		.section	.rodata
  23              		.align	2
  24              		.type	cyBle_blss, %object
  25              		.size	cyBle_blss, 14
  26              	cyBle_blss:
  27 0000 0C00     		.short	12
  28 0002 0E00     		.short	14
  29 0004 0F00     		.short	15
  30 0006 1100     		.short	17
  31 0008 1200     		.short	18
  32 000a 1400     		.short	20
  33 000c 0000     		.short	0
  34 000e 0000     		.bss
  35              		.align	1
  36              	cyBle_blssReqHandle:
  37 0004 0000     		.space	2
  38 0006 0000     		.section	.text.CyBle_BlsInit,"ax",%progbits
  39              		.align	2
  40              		.global	CyBle_BlsInit
  41              		.code	16
  42              		.thumb_func
  43              		.type	CyBle_BlsInit, %function
  44              	CyBle_BlsInit:
  45              	.LFB2:
  46              		.file 1 ".\\Generated_Source\\PSoC4\\CYBLE_bls.c"
   1:.\Generated_Source\PSoC4/CYBLE_bls.c **** /*******************************************************************************
   2:.\Generated_Source\PSoC4/CYBLE_bls.c **** File Name: CYBLE_bls.c
   3:.\Generated_Source\PSoC4/CYBLE_bls.c **** Version 1.20
   4:.\Generated_Source\PSoC4/CYBLE_bls.c **** 
   5:.\Generated_Source\PSoC4/CYBLE_bls.c **** Description:
   6:.\Generated_Source\PSoC4/CYBLE_bls.c ****  This file contains the source code for the Blood Pressure Service.
   7:.\Generated_Source\PSoC4/CYBLE_bls.c **** 
   8:.\Generated_Source\PSoC4/CYBLE_bls.c **** ********************************************************************************
   9:.\Generated_Source\PSoC4/CYBLE_bls.c **** Copyright 2014-2015, Cypress Semiconductor Corporation.  All rights reserved.
  10:.\Generated_Source\PSoC4/CYBLE_bls.c **** You may use this file only in accordance with the license, terms, conditions,
  11:.\Generated_Source\PSoC4/CYBLE_bls.c **** disclaimers, and limitations in the end user license agreement accompanying
ARM GAS  C:\Users\jdmoussa\AppData\Local\Temp\cccazBog.s 			page 2


  12:.\Generated_Source\PSoC4/CYBLE_bls.c **** the software package with which this file was provided.
  13:.\Generated_Source\PSoC4/CYBLE_bls.c **** *******************************************************************************/
  14:.\Generated_Source\PSoC4/CYBLE_bls.c **** 
  15:.\Generated_Source\PSoC4/CYBLE_bls.c **** 
  16:.\Generated_Source\PSoC4/CYBLE_bls.c **** #include "CYBLE_eventHandler.h"
  17:.\Generated_Source\PSoC4/CYBLE_bls.c **** 
  18:.\Generated_Source\PSoC4/CYBLE_bls.c **** static CYBLE_CALLBACK_T CyBle_BlsApplCallback;
  19:.\Generated_Source\PSoC4/CYBLE_bls.c **** 
  20:.\Generated_Source\PSoC4/CYBLE_bls.c **** #ifdef CYBLE_BLS_SERVER
  21:.\Generated_Source\PSoC4/CYBLE_bls.c **** 
  22:.\Generated_Source\PSoC4/CYBLE_bls.c **** const CYBLE_BLSS_T cyBle_blss =
  23:.\Generated_Source\PSoC4/CYBLE_bls.c **** {
  24:.\Generated_Source\PSoC4/CYBLE_bls.c ****     0x000Cu,    /* Handle of the BLS service */
  25:.\Generated_Source\PSoC4/CYBLE_bls.c ****     {
  26:.\Generated_Source\PSoC4/CYBLE_bls.c ****         
  27:.\Generated_Source\PSoC4/CYBLE_bls.c ****         /* Blood Pressure Measurement characteristic */
  28:.\Generated_Source\PSoC4/CYBLE_bls.c ****         {
  29:.\Generated_Source\PSoC4/CYBLE_bls.c ****             0x000Eu, /* Handle of the Blood Pressure Measurement characteristic */ 
  30:.\Generated_Source\PSoC4/CYBLE_bls.c ****             0x000Fu, /* Handle of the Client Characteristic Configuration descriptor */ 
  31:.\Generated_Source\PSoC4/CYBLE_bls.c ****         }, 
  32:.\Generated_Source\PSoC4/CYBLE_bls.c ****         
  33:.\Generated_Source\PSoC4/CYBLE_bls.c ****         /* Intermediate Cuff Pressure characteristic */
  34:.\Generated_Source\PSoC4/CYBLE_bls.c ****         {
  35:.\Generated_Source\PSoC4/CYBLE_bls.c ****             0x0011u, /* Handle of the Intermediate Cuff Pressure characteristic */ 
  36:.\Generated_Source\PSoC4/CYBLE_bls.c ****             0x0012u, /* Handle of the Client Characteristic Configuration descriptor */ 
  37:.\Generated_Source\PSoC4/CYBLE_bls.c ****         }, 
  38:.\Generated_Source\PSoC4/CYBLE_bls.c ****         
  39:.\Generated_Source\PSoC4/CYBLE_bls.c ****         /* Blood Pressure Feature characteristic */
  40:.\Generated_Source\PSoC4/CYBLE_bls.c ****         {
  41:.\Generated_Source\PSoC4/CYBLE_bls.c ****             0x0014u, /* Handle of the Blood Pressure Feature characteristic */ 
  42:.\Generated_Source\PSoC4/CYBLE_bls.c ****             CYBLE_GATT_INVALID_ATTR_HANDLE_VALUE, 
  43:.\Generated_Source\PSoC4/CYBLE_bls.c ****         }, 
  44:.\Generated_Source\PSoC4/CYBLE_bls.c ****     },
  45:.\Generated_Source\PSoC4/CYBLE_bls.c **** };
  46:.\Generated_Source\PSoC4/CYBLE_bls.c ****     
  47:.\Generated_Source\PSoC4/CYBLE_bls.c **** static CYBLE_GATT_DB_ATTR_HANDLE_T cyBle_blssReqHandle;
  48:.\Generated_Source\PSoC4/CYBLE_bls.c **** 
  49:.\Generated_Source\PSoC4/CYBLE_bls.c **** #endif /* CYBLE_BLS_SERVER */
  50:.\Generated_Source\PSoC4/CYBLE_bls.c **** 
  51:.\Generated_Source\PSoC4/CYBLE_bls.c **** #ifdef CYBLE_BLS_CLIENT
  52:.\Generated_Source\PSoC4/CYBLE_bls.c ****     
  53:.\Generated_Source\PSoC4/CYBLE_bls.c **** /* Server's Blood Pressure Service characteristics GATT DB handles structure */
  54:.\Generated_Source\PSoC4/CYBLE_bls.c **** CYBLE_BLSC_T cyBle_blsc;
  55:.\Generated_Source\PSoC4/CYBLE_bls.c **** 
  56:.\Generated_Source\PSoC4/CYBLE_bls.c **** /* Internal storage for last request handle to check the response */
  57:.\Generated_Source\PSoC4/CYBLE_bls.c **** static CYBLE_GATT_DB_ATTR_HANDLE_T cyBle_blscReqHandle;
  58:.\Generated_Source\PSoC4/CYBLE_bls.c **** #endif /* CYBLE_BLS_CLIENT */
  59:.\Generated_Source\PSoC4/CYBLE_bls.c **** 
  60:.\Generated_Source\PSoC4/CYBLE_bls.c **** 
  61:.\Generated_Source\PSoC4/CYBLE_bls.c **** /****************************************************************************** 
  62:.\Generated_Source\PSoC4/CYBLE_bls.c **** ##Function Name: CyBle_BlsInit
  63:.\Generated_Source\PSoC4/CYBLE_bls.c **** *******************************************************************************
  64:.\Generated_Source\PSoC4/CYBLE_bls.c **** 
  65:.\Generated_Source\PSoC4/CYBLE_bls.c **** Summary:
  66:.\Generated_Source\PSoC4/CYBLE_bls.c ****  This function initializes the BLS Service.
  67:.\Generated_Source\PSoC4/CYBLE_bls.c **** 
  68:.\Generated_Source\PSoC4/CYBLE_bls.c **** Parameters:
ARM GAS  C:\Users\jdmoussa\AppData\Local\Temp\cccazBog.s 			page 3


  69:.\Generated_Source\PSoC4/CYBLE_bls.c ****  None
  70:.\Generated_Source\PSoC4/CYBLE_bls.c **** 
  71:.\Generated_Source\PSoC4/CYBLE_bls.c **** Return:
  72:.\Generated_Source\PSoC4/CYBLE_bls.c ****  None
  73:.\Generated_Source\PSoC4/CYBLE_bls.c **** 
  74:.\Generated_Source\PSoC4/CYBLE_bls.c **** ******************************************************************************/
  75:.\Generated_Source\PSoC4/CYBLE_bls.c **** void CyBle_BlsInit(void)
  76:.\Generated_Source\PSoC4/CYBLE_bls.c **** {
  47              		.loc 1 76 0
  48              		.cfi_startproc
  49 0000 80B5     		push	{r7, lr}
  50              		.cfi_def_cfa_offset 8
  51              		.cfi_offset 7, -8
  52              		.cfi_offset 14, -4
  53 0002 00AF     		add	r7, sp, #0
  54              		.cfi_def_cfa_register 7
  77:.\Generated_Source\PSoC4/CYBLE_bls.c **** #ifdef CYBLE_BLS_CLIENT
  78:.\Generated_Source\PSoC4/CYBLE_bls.c ****     (void)memset(&cyBle_blsc, 0, sizeof(cyBle_blsc));
  79:.\Generated_Source\PSoC4/CYBLE_bls.c ****     cyBle_blscReqHandle = CYBLE_GATT_INVALID_ATTR_HANDLE_VALUE;
  80:.\Generated_Source\PSoC4/CYBLE_bls.c **** #endif /* CYBLE_GATT_ROLE_CLIENT */
  81:.\Generated_Source\PSoC4/CYBLE_bls.c **** }
  55              		.loc 1 81 0
  56 0004 BD46     		mov	sp, r7
  57              		@ sp needed
  58 0006 80BD     		pop	{r7, pc}
  59              		.cfi_endproc
  60              	.LFE2:
  61              		.size	CyBle_BlsInit, .-CyBle_BlsInit
  62              		.section	.text.CyBle_BlsRegisterAttrCallback,"ax",%progbits
  63              		.align	2
  64              		.global	CyBle_BlsRegisterAttrCallback
  65              		.code	16
  66              		.thumb_func
  67              		.type	CyBle_BlsRegisterAttrCallback, %function
  68              	CyBle_BlsRegisterAttrCallback:
  69              	.LFB3:
  82:.\Generated_Source\PSoC4/CYBLE_bls.c **** 
  83:.\Generated_Source\PSoC4/CYBLE_bls.c **** 
  84:.\Generated_Source\PSoC4/CYBLE_bls.c **** /******************************************************************************
  85:.\Generated_Source\PSoC4/CYBLE_bls.c **** ##Function Name: CyBle_BlsRegisterAttrCallback
  86:.\Generated_Source\PSoC4/CYBLE_bls.c **** *******************************************************************************
  87:.\Generated_Source\PSoC4/CYBLE_bls.c **** 
  88:.\Generated_Source\PSoC4/CYBLE_bls.c **** Summary:
  89:.\Generated_Source\PSoC4/CYBLE_bls.c ****  Registers a callback function for service specific attribute operations.
  90:.\Generated_Source\PSoC4/CYBLE_bls.c **** 
  91:.\Generated_Source\PSoC4/CYBLE_bls.c **** Parameters:
  92:.\Generated_Source\PSoC4/CYBLE_bls.c ****  callbackFunc: An application layer event callback function to receive 
  93:.\Generated_Source\PSoC4/CYBLE_bls.c ****                    events from the BLE Component. The definition of 
  94:.\Generated_Source\PSoC4/CYBLE_bls.c ****                    CYBLE_CALLBACK_T for Blood Pressure Service is,
  95:.\Generated_Source\PSoC4/CYBLE_bls.c ****                 
  96:.\Generated_Source\PSoC4/CYBLE_bls.c ****                    typedef void (* CYBLE_CALLBACK_T) (uint32 eventCode, 
  97:.\Generated_Source\PSoC4/CYBLE_bls.c ****                                                     void *eventParam)
  98:.\Generated_Source\PSoC4/CYBLE_bls.c **** 
  99:.\Generated_Source\PSoC4/CYBLE_bls.c ****                    * eventCode indicates the event that triggered this 
 100:.\Generated_Source\PSoC4/CYBLE_bls.c ****                      callback (e.g. CYBLE_EVT_BASS_NOTIFICATION_ENABLED)
 101:.\Generated_Source\PSoC4/CYBLE_bls.c ****                    * eventParam contains the parameters corresponding to the 
 102:.\Generated_Source\PSoC4/CYBLE_bls.c ****                      current event (e.g. Pointer to CYBLE_BLS_CHAR_VALUE_T 
ARM GAS  C:\Users\jdmoussa\AppData\Local\Temp\cccazBog.s 			page 4


 103:.\Generated_Source\PSoC4/CYBLE_bls.c ****                      structure that contains details of the characteristic 
 104:.\Generated_Source\PSoC4/CYBLE_bls.c ****                      for which notification enabled event was triggered).
 105:.\Generated_Source\PSoC4/CYBLE_bls.c **** 
 106:.\Generated_Source\PSoC4/CYBLE_bls.c **** Return:
 107:.\Generated_Source\PSoC4/CYBLE_bls.c ****  None
 108:.\Generated_Source\PSoC4/CYBLE_bls.c **** 
 109:.\Generated_Source\PSoC4/CYBLE_bls.c **** ******************************************************************************/
 110:.\Generated_Source\PSoC4/CYBLE_bls.c **** void CyBle_BlsRegisterAttrCallback(CYBLE_CALLBACK_T callbackFunc)
 111:.\Generated_Source\PSoC4/CYBLE_bls.c **** {
  70              		.loc 1 111 0
  71              		.cfi_startproc
  72 0000 80B5     		push	{r7, lr}
  73              		.cfi_def_cfa_offset 8
  74              		.cfi_offset 7, -8
  75              		.cfi_offset 14, -4
  76 0002 82B0     		sub	sp, sp, #8
  77              		.cfi_def_cfa_offset 16
  78 0004 00AF     		add	r7, sp, #0
  79              		.cfi_def_cfa_register 7
  80 0006 7860     		str	r0, [r7, #4]
 112:.\Generated_Source\PSoC4/CYBLE_bls.c ****     CyBle_BlsApplCallback = callbackFunc;
  81              		.loc 1 112 0
  82 0008 024B     		ldr	r3, .L3
  83 000a 7A68     		ldr	r2, [r7, #4]
  84 000c 1A60     		str	r2, [r3]
 113:.\Generated_Source\PSoC4/CYBLE_bls.c **** }
  85              		.loc 1 113 0
  86 000e BD46     		mov	sp, r7
  87 0010 02B0     		add	sp, sp, #8
  88              		@ sp needed
  89 0012 80BD     		pop	{r7, pc}
  90              	.L4:
  91              		.align	2
  92              	.L3:
  93 0014 00000000 		.word	CyBle_BlsApplCallback
  94              		.cfi_endproc
  95              	.LFE3:
  96              		.size	CyBle_BlsRegisterAttrCallback, .-CyBle_BlsRegisterAttrCallback
  97              		.section	.text.CyBle_BlssSetCharacteristicValue,"ax",%progbits
  98              		.align	2
  99              		.global	CyBle_BlssSetCharacteristicValue
 100              		.code	16
 101              		.thumb_func
 102              		.type	CyBle_BlssSetCharacteristicValue, %function
 103              	CyBle_BlssSetCharacteristicValue:
 104              	.LFB4:
 114:.\Generated_Source\PSoC4/CYBLE_bls.c **** 
 115:.\Generated_Source\PSoC4/CYBLE_bls.c **** 
 116:.\Generated_Source\PSoC4/CYBLE_bls.c **** #ifdef CYBLE_BLS_SERVER
 117:.\Generated_Source\PSoC4/CYBLE_bls.c **** 
 118:.\Generated_Source\PSoC4/CYBLE_bls.c **** 
 119:.\Generated_Source\PSoC4/CYBLE_bls.c **** /******************************************************************************
 120:.\Generated_Source\PSoC4/CYBLE_bls.c **** ##Function Name: CyBle_BlssSetCharacteristicValue
 121:.\Generated_Source\PSoC4/CYBLE_bls.c **** *******************************************************************************
 122:.\Generated_Source\PSoC4/CYBLE_bls.c **** 
 123:.\Generated_Source\PSoC4/CYBLE_bls.c **** Summary:
 124:.\Generated_Source\PSoC4/CYBLE_bls.c ****  Sets the value of a characteristic which is identified by charIndex.
ARM GAS  C:\Users\jdmoussa\AppData\Local\Temp\cccazBog.s 			page 5


 125:.\Generated_Source\PSoC4/CYBLE_bls.c **** 
 126:.\Generated_Source\PSoC4/CYBLE_bls.c **** Parameters:
 127:.\Generated_Source\PSoC4/CYBLE_bls.c ****  charIndex: The index of a service characteristic.
 128:.\Generated_Source\PSoC4/CYBLE_bls.c ****  attrSize: The size of the characteristic value attribute.
 129:.\Generated_Source\PSoC4/CYBLE_bls.c ****  *attrValue: The pointer to the characteristic value data that should be 
 130:.\Generated_Source\PSoC4/CYBLE_bls.c ****              stored to the GATT database.
 131:.\Generated_Source\PSoC4/CYBLE_bls.c **** 
 132:.\Generated_Source\PSoC4/CYBLE_bls.c **** Return:
 133:.\Generated_Source\PSoC4/CYBLE_bls.c ****  Return value is of type CYBLE_API_RESULT_T.
 134:.\Generated_Source\PSoC4/CYBLE_bls.c ****  * CYBLE_ERROR_OK - The request handled successfully.
 135:.\Generated_Source\PSoC4/CYBLE_bls.c ****  * CYBLE_ERROR_INVALID_PARAMETER - Validation of the input parameter failed.
 136:.\Generated_Source\PSoC4/CYBLE_bls.c ****  * CYBLE_ERROR_GATT_DB_INVALID_ATTR_HANDLE - Optional characteristic is absent
 137:.\Generated_Source\PSoC4/CYBLE_bls.c **** 
 138:.\Generated_Source\PSoC4/CYBLE_bls.c **** ******************************************************************************/
 139:.\Generated_Source\PSoC4/CYBLE_bls.c **** CYBLE_API_RESULT_T CyBle_BlssSetCharacteristicValue(CYBLE_BLS_CHAR_INDEX_T charIndex, uint8 attrSiz
 140:.\Generated_Source\PSoC4/CYBLE_bls.c **** {
 105              		.loc 1 140 0
 106              		.cfi_startproc
 107 0000 80B5     		push	{r7, lr}
 108              		.cfi_def_cfa_offset 8
 109              		.cfi_offset 7, -8
 110              		.cfi_offset 14, -4
 111 0002 86B0     		sub	sp, sp, #24
 112              		.cfi_def_cfa_offset 32
 113 0004 00AF     		add	r7, sp, #0
 114              		.cfi_def_cfa_register 7
 115 0006 3A60     		str	r2, [r7]
 116 0008 FB1D     		add	r3, r7, #7
 117 000a 021C     		add	r2, r0, #0
 118 000c 1A70     		strb	r2, [r3]
 119 000e BB1D     		add	r3, r7, #6
 120 0010 0A1C     		add	r2, r1, #0
 121 0012 1A70     		strb	r2, [r3]
 141:.\Generated_Source\PSoC4/CYBLE_bls.c ****     CYBLE_API_RESULT_T apiResult = CYBLE_ERROR_OK;
 122              		.loc 1 141 0
 123 0014 3B1C     		mov	r3, r7
 124 0016 1633     		add	r3, r3, #22
 125 0018 0022     		mov	r2, #0
 126 001a 1A80     		strh	r2, [r3]
 142:.\Generated_Source\PSoC4/CYBLE_bls.c **** 
 143:.\Generated_Source\PSoC4/CYBLE_bls.c ****     if(charIndex >= CYBLE_BLS_CHAR_COUNT)
 127              		.loc 1 143 0
 128 001c FB1D     		add	r3, r7, #7
 129 001e 1B78     		ldrb	r3, [r3]
 130 0020 022B     		cmp	r3, #2
 131 0022 04D9     		bls	.L6
 144:.\Generated_Source\PSoC4/CYBLE_bls.c ****     {
 145:.\Generated_Source\PSoC4/CYBLE_bls.c ****         apiResult = CYBLE_ERROR_INVALID_PARAMETER;
 132              		.loc 1 145 0
 133 0024 3B1C     		mov	r3, r7
 134 0026 1633     		add	r3, r3, #22
 135 0028 0122     		mov	r2, #1
 136 002a 1A80     		strh	r2, [r3]
 137 002c 2EE0     		b	.L7
 138              	.L6:
 146:.\Generated_Source\PSoC4/CYBLE_bls.c ****     }
 147:.\Generated_Source\PSoC4/CYBLE_bls.c ****     else if(CYBLE_GATT_INVALID_ATTR_HANDLE_VALUE == cyBle_blss.charInfo[charIndex].charHandle)
ARM GAS  C:\Users\jdmoussa\AppData\Local\Temp\cccazBog.s 			page 6


 139              		.loc 1 147 0
 140 002e FB1D     		add	r3, r7, #7
 141 0030 1B78     		ldrb	r3, [r3]
 142 0032 1A4A     		ldr	r2, .L11
 143 0034 9B00     		lsl	r3, r3, #2
 144 0036 D318     		add	r3, r2, r3
 145 0038 5B88     		ldrh	r3, [r3, #2]
 146 003a 002B     		cmp	r3, #0
 147 003c 04D1     		bne	.L8
 148:.\Generated_Source\PSoC4/CYBLE_bls.c ****     {
 149:.\Generated_Source\PSoC4/CYBLE_bls.c ****         apiResult = CYBLE_ERROR_GATT_DB_INVALID_ATTR_HANDLE;
 148              		.loc 1 149 0
 149 003e 3B1C     		mov	r3, r7
 150 0040 1633     		add	r3, r3, #22
 151 0042 1322     		mov	r2, #19
 152 0044 1A80     		strh	r2, [r3]
 153 0046 21E0     		b	.L7
 154              	.L8:
 155              	.LBB2:
 150:.\Generated_Source\PSoC4/CYBLE_bls.c ****     }
 151:.\Generated_Source\PSoC4/CYBLE_bls.c ****     else
 152:.\Generated_Source\PSoC4/CYBLE_bls.c ****     {
 153:.\Generated_Source\PSoC4/CYBLE_bls.c ****         CYBLE_GATT_HANDLE_VALUE_PAIR_T locHandleValuePair;
 154:.\Generated_Source\PSoC4/CYBLE_bls.c ****         
 155:.\Generated_Source\PSoC4/CYBLE_bls.c ****         /* Store characteristic value into GATT database */
 156:.\Generated_Source\PSoC4/CYBLE_bls.c ****         locHandleValuePair.attrHandle = cyBle_blss.charInfo[charIndex].charHandle;
 156              		.loc 1 156 0
 157 0048 FB1D     		add	r3, r7, #7
 158 004a 1B78     		ldrb	r3, [r3]
 159 004c 134A     		ldr	r2, .L11
 160 004e 9B00     		lsl	r3, r3, #2
 161 0050 D318     		add	r3, r2, r3
 162 0052 5A88     		ldrh	r2, [r3, #2]
 163 0054 3B1C     		mov	r3, r7
 164 0056 0833     		add	r3, r3, #8
 165 0058 1A81     		strh	r2, [r3, #8]
 157:.\Generated_Source\PSoC4/CYBLE_bls.c ****         locHandleValuePair.value.len = attrSize;
 166              		.loc 1 157 0
 167 005a BB1D     		add	r3, r7, #6
 168 005c 1B78     		ldrb	r3, [r3]
 169 005e 9AB2     		uxth	r2, r3
 170 0060 3B1C     		mov	r3, r7
 171 0062 0833     		add	r3, r3, #8
 172 0064 9A80     		strh	r2, [r3, #4]
 158:.\Generated_Source\PSoC4/CYBLE_bls.c ****         locHandleValuePair.value.val = attrValue;
 173              		.loc 1 158 0
 174 0066 3B1C     		mov	r3, r7
 175 0068 0833     		add	r3, r3, #8
 176 006a 3A68     		ldr	r2, [r7]
 177 006c 1A60     		str	r2, [r3]
 159:.\Generated_Source\PSoC4/CYBLE_bls.c ****         
 160:.\Generated_Source\PSoC4/CYBLE_bls.c ****         if(CYBLE_GATT_ERR_NONE != CyBle_GattsWriteAttributeValue(&locHandleValuePair,
 178              		.loc 1 160 0
 179 006e 3B1C     		mov	r3, r7
 180 0070 0833     		add	r3, r3, #8
 181 0072 181C     		mov	r0, r3
 182 0074 0021     		mov	r1, #0
ARM GAS  C:\Users\jdmoussa\AppData\Local\Temp\cccazBog.s 			page 7


 183 0076 0022     		mov	r2, #0
 184 0078 0023     		mov	r3, #0
 185 007a FFF7FEFF 		bl	CyBle_GattsWriteAttributeValue
 186 007e 031C     		mov	r3, r0
 187 0080 002B     		cmp	r3, #0
 188 0082 03D0     		beq	.L7
 161:.\Generated_Source\PSoC4/CYBLE_bls.c ****                                     0u, NULL, CYBLE_GATT_DB_LOCALLY_INITIATED))
 162:.\Generated_Source\PSoC4/CYBLE_bls.c ****         {
 163:.\Generated_Source\PSoC4/CYBLE_bls.c ****             apiResult = CYBLE_ERROR_INVALID_PARAMETER;
 189              		.loc 1 163 0
 190 0084 3B1C     		mov	r3, r7
 191 0086 1633     		add	r3, r3, #22
 192 0088 0122     		mov	r2, #1
 193 008a 1A80     		strh	r2, [r3]
 194              	.L7:
 195              	.LBE2:
 164:.\Generated_Source\PSoC4/CYBLE_bls.c ****         }
 165:.\Generated_Source\PSoC4/CYBLE_bls.c ****     }
 166:.\Generated_Source\PSoC4/CYBLE_bls.c **** 
 167:.\Generated_Source\PSoC4/CYBLE_bls.c ****     return (apiResult);
 196              		.loc 1 167 0
 197 008c 3B1C     		mov	r3, r7
 198 008e 1633     		add	r3, r3, #22
 199 0090 1B88     		ldrh	r3, [r3]
 168:.\Generated_Source\PSoC4/CYBLE_bls.c **** }
 200              		.loc 1 168 0
 201 0092 181C     		mov	r0, r3
 202 0094 BD46     		mov	sp, r7
 203 0096 06B0     		add	sp, sp, #24
 204              		@ sp needed
 205 0098 80BD     		pop	{r7, pc}
 206              	.L12:
 207 009a C046     		.align	2
 208              	.L11:
 209 009c 00000000 		.word	cyBle_blss
 210              		.cfi_endproc
 211              	.LFE4:
 212              		.size	CyBle_BlssSetCharacteristicValue, .-CyBle_BlssSetCharacteristicValue
 213              		.section	.text.CyBle_BlssGetCharacteristicValue,"ax",%progbits
 214              		.align	2
 215              		.global	CyBle_BlssGetCharacteristicValue
 216              		.code	16
 217              		.thumb_func
 218              		.type	CyBle_BlssGetCharacteristicValue, %function
 219              	CyBle_BlssGetCharacteristicValue:
 220              	.LFB5:
 169:.\Generated_Source\PSoC4/CYBLE_bls.c **** 
 170:.\Generated_Source\PSoC4/CYBLE_bls.c **** 
 171:.\Generated_Source\PSoC4/CYBLE_bls.c **** /******************************************************************************
 172:.\Generated_Source\PSoC4/CYBLE_bls.c **** ##Function Name: CyBle_BlssGetCharacteristicValue
 173:.\Generated_Source\PSoC4/CYBLE_bls.c **** *******************************************************************************
 174:.\Generated_Source\PSoC4/CYBLE_bls.c **** 
 175:.\Generated_Source\PSoC4/CYBLE_bls.c **** Summary:
 176:.\Generated_Source\PSoC4/CYBLE_bls.c ****  Gets a characteristic value of the Blood pressure service, which is 
 177:.\Generated_Source\PSoC4/CYBLE_bls.c ****  identified by charIndex.
 178:.\Generated_Source\PSoC4/CYBLE_bls.c **** 
 179:.\Generated_Source\PSoC4/CYBLE_bls.c **** Parameters:
ARM GAS  C:\Users\jdmoussa\AppData\Local\Temp\cccazBog.s 			page 8


 180:.\Generated_Source\PSoC4/CYBLE_bls.c ****  charIndex: The index of a service characteristic.
 181:.\Generated_Source\PSoC4/CYBLE_bls.c ****  attrSize: The size of the characteristic value attribute.
 182:.\Generated_Source\PSoC4/CYBLE_bls.c ****  *attrValue: The pointer to the characteristic value data that should be
 183:.\Generated_Source\PSoC4/CYBLE_bls.c ****               in the GATT database.
 184:.\Generated_Source\PSoC4/CYBLE_bls.c **** 
 185:.\Generated_Source\PSoC4/CYBLE_bls.c **** Return:
 186:.\Generated_Source\PSoC4/CYBLE_bls.c ****  Return value is of type CYBLE_API_RESULT_T.
 187:.\Generated_Source\PSoC4/CYBLE_bls.c ****  * CYBLE_ERROR_OK - The request handled successfully
 188:.\Generated_Source\PSoC4/CYBLE_bls.c ****  * CYBLE_ERROR_INVALID_PARAMETER - Validation of the input parameter failed
 189:.\Generated_Source\PSoC4/CYBLE_bls.c ****  * CYBLE_ERROR_GATT_DB_INVALID_ATTR_HANDLE - Optional characteristic is absent
 190:.\Generated_Source\PSoC4/CYBLE_bls.c **** 
 191:.\Generated_Source\PSoC4/CYBLE_bls.c **** ******************************************************************************/
 192:.\Generated_Source\PSoC4/CYBLE_bls.c **** CYBLE_API_RESULT_T CyBle_BlssGetCharacteristicValue(CYBLE_BLS_CHAR_INDEX_T charIndex, uint8 attrSiz
 193:.\Generated_Source\PSoC4/CYBLE_bls.c **** {
 221              		.loc 1 193 0
 222              		.cfi_startproc
 223 0000 80B5     		push	{r7, lr}
 224              		.cfi_def_cfa_offset 8
 225              		.cfi_offset 7, -8
 226              		.cfi_offset 14, -4
 227 0002 86B0     		sub	sp, sp, #24
 228              		.cfi_def_cfa_offset 32
 229 0004 00AF     		add	r7, sp, #0
 230              		.cfi_def_cfa_register 7
 231 0006 3A60     		str	r2, [r7]
 232 0008 FB1D     		add	r3, r7, #7
 233 000a 021C     		add	r2, r0, #0
 234 000c 1A70     		strb	r2, [r3]
 235 000e BB1D     		add	r3, r7, #6
 236 0010 0A1C     		add	r2, r1, #0
 237 0012 1A70     		strb	r2, [r3]
 194:.\Generated_Source\PSoC4/CYBLE_bls.c ****     CYBLE_API_RESULT_T apiResult = CYBLE_ERROR_OK;
 238              		.loc 1 194 0
 239 0014 3B1C     		mov	r3, r7
 240 0016 1633     		add	r3, r3, #22
 241 0018 0022     		mov	r2, #0
 242 001a 1A80     		strh	r2, [r3]
 195:.\Generated_Source\PSoC4/CYBLE_bls.c ****     
 196:.\Generated_Source\PSoC4/CYBLE_bls.c ****     /* Check the parameters */
 197:.\Generated_Source\PSoC4/CYBLE_bls.c ****     if(charIndex >= CYBLE_BLS_CHAR_COUNT)
 243              		.loc 1 197 0
 244 001c FB1D     		add	r3, r7, #7
 245 001e 1B78     		ldrb	r3, [r3]
 246 0020 022B     		cmp	r3, #2
 247 0022 04D9     		bls	.L14
 198:.\Generated_Source\PSoC4/CYBLE_bls.c ****     {
 199:.\Generated_Source\PSoC4/CYBLE_bls.c ****         apiResult = CYBLE_ERROR_INVALID_PARAMETER;
 248              		.loc 1 199 0
 249 0024 3B1C     		mov	r3, r7
 250 0026 1633     		add	r3, r3, #22
 251 0028 0122     		mov	r2, #1
 252 002a 1A80     		strh	r2, [r3]
 253 002c 2DE0     		b	.L15
 254              	.L14:
 200:.\Generated_Source\PSoC4/CYBLE_bls.c ****     }
 201:.\Generated_Source\PSoC4/CYBLE_bls.c ****     else if(CYBLE_GATT_INVALID_ATTR_HANDLE_VALUE == cyBle_blss.charInfo[charIndex].charHandle)
 255              		.loc 1 201 0
ARM GAS  C:\Users\jdmoussa\AppData\Local\Temp\cccazBog.s 			page 9


 256 002e FB1D     		add	r3, r7, #7
 257 0030 1B78     		ldrb	r3, [r3]
 258 0032 194A     		ldr	r2, .L19
 259 0034 9B00     		lsl	r3, r3, #2
 260 0036 D318     		add	r3, r2, r3
 261 0038 5B88     		ldrh	r3, [r3, #2]
 262 003a 002B     		cmp	r3, #0
 263 003c 04D1     		bne	.L16
 202:.\Generated_Source\PSoC4/CYBLE_bls.c ****     {
 203:.\Generated_Source\PSoC4/CYBLE_bls.c ****         apiResult = CYBLE_ERROR_GATT_DB_INVALID_ATTR_HANDLE;
 264              		.loc 1 203 0
 265 003e 3B1C     		mov	r3, r7
 266 0040 1633     		add	r3, r3, #22
 267 0042 1322     		mov	r2, #19
 268 0044 1A80     		strh	r2, [r3]
 269 0046 20E0     		b	.L15
 270              	.L16:
 271              	.LBB3:
 204:.\Generated_Source\PSoC4/CYBLE_bls.c ****     }
 205:.\Generated_Source\PSoC4/CYBLE_bls.c ****     else
 206:.\Generated_Source\PSoC4/CYBLE_bls.c ****     {
 207:.\Generated_Source\PSoC4/CYBLE_bls.c ****         CYBLE_GATT_HANDLE_VALUE_PAIR_T locHandleValuePair;
 208:.\Generated_Source\PSoC4/CYBLE_bls.c ****         
 209:.\Generated_Source\PSoC4/CYBLE_bls.c ****         /* Get characteristic value from GATT database */
 210:.\Generated_Source\PSoC4/CYBLE_bls.c ****         locHandleValuePair.attrHandle = cyBle_blss.charInfo[charIndex].charHandle;
 272              		.loc 1 210 0
 273 0048 FB1D     		add	r3, r7, #7
 274 004a 1B78     		ldrb	r3, [r3]
 275 004c 124A     		ldr	r2, .L19
 276 004e 9B00     		lsl	r3, r3, #2
 277 0050 D318     		add	r3, r2, r3
 278 0052 5A88     		ldrh	r2, [r3, #2]
 279 0054 3B1C     		mov	r3, r7
 280 0056 0833     		add	r3, r3, #8
 281 0058 1A81     		strh	r2, [r3, #8]
 211:.\Generated_Source\PSoC4/CYBLE_bls.c ****         locHandleValuePair.value.len = attrSize;
 282              		.loc 1 211 0
 283 005a BB1D     		add	r3, r7, #6
 284 005c 1B78     		ldrb	r3, [r3]
 285 005e 9AB2     		uxth	r2, r3
 286 0060 3B1C     		mov	r3, r7
 287 0062 0833     		add	r3, r3, #8
 288 0064 9A80     		strh	r2, [r3, #4]
 212:.\Generated_Source\PSoC4/CYBLE_bls.c ****         locHandleValuePair.value.val = attrValue;
 289              		.loc 1 212 0
 290 0066 3B1C     		mov	r3, r7
 291 0068 0833     		add	r3, r3, #8
 292 006a 3A68     		ldr	r2, [r7]
 293 006c 1A60     		str	r2, [r3]
 213:.\Generated_Source\PSoC4/CYBLE_bls.c ****         
 214:.\Generated_Source\PSoC4/CYBLE_bls.c ****         if(CYBLE_GATT_ERR_NONE != CyBle_GattsReadAttributeValue(&locHandleValuePair,
 294              		.loc 1 214 0
 295 006e 3B1C     		mov	r3, r7
 296 0070 0833     		add	r3, r3, #8
 297 0072 181C     		mov	r0, r3
 298 0074 0021     		mov	r1, #0
 299 0076 0022     		mov	r2, #0
ARM GAS  C:\Users\jdmoussa\AppData\Local\Temp\cccazBog.s 			page 10


 300 0078 FFF7FEFF 		bl	CyBle_GattsReadAttributeValue
 301 007c 031C     		mov	r3, r0
 302 007e 002B     		cmp	r3, #0
 303 0080 03D0     		beq	.L15
 215:.\Generated_Source\PSoC4/CYBLE_bls.c ****                                     0u, CYBLE_GATT_DB_LOCALLY_INITIATED))
 216:.\Generated_Source\PSoC4/CYBLE_bls.c ****         {
 217:.\Generated_Source\PSoC4/CYBLE_bls.c ****             apiResult = CYBLE_ERROR_INVALID_PARAMETER;
 304              		.loc 1 217 0
 305 0082 3B1C     		mov	r3, r7
 306 0084 1633     		add	r3, r3, #22
 307 0086 0122     		mov	r2, #1
 308 0088 1A80     		strh	r2, [r3]
 309              	.L15:
 310              	.LBE3:
 218:.\Generated_Source\PSoC4/CYBLE_bls.c ****         }  
 219:.\Generated_Source\PSoC4/CYBLE_bls.c ****     }
 220:.\Generated_Source\PSoC4/CYBLE_bls.c **** 
 221:.\Generated_Source\PSoC4/CYBLE_bls.c ****     return (apiResult);
 311              		.loc 1 221 0
 312 008a 3B1C     		mov	r3, r7
 313 008c 1633     		add	r3, r3, #22
 314 008e 1B88     		ldrh	r3, [r3]
 222:.\Generated_Source\PSoC4/CYBLE_bls.c **** }
 315              		.loc 1 222 0
 316 0090 181C     		mov	r0, r3
 317 0092 BD46     		mov	sp, r7
 318 0094 06B0     		add	sp, sp, #24
 319              		@ sp needed
 320 0096 80BD     		pop	{r7, pc}
 321              	.L20:
 322              		.align	2
 323              	.L19:
 324 0098 00000000 		.word	cyBle_blss
 325              		.cfi_endproc
 326              	.LFE5:
 327              		.size	CyBle_BlssGetCharacteristicValue, .-CyBle_BlssGetCharacteristicValue
 328              		.section	.text.CyBle_BlssGetCharacteristicDescriptor,"ax",%progbits
 329              		.align	2
 330              		.global	CyBle_BlssGetCharacteristicDescriptor
 331              		.code	16
 332              		.thumb_func
 333              		.type	CyBle_BlssGetCharacteristicDescriptor, %function
 334              	CyBle_BlssGetCharacteristicDescriptor:
 335              	.LFB6:
 223:.\Generated_Source\PSoC4/CYBLE_bls.c **** 
 224:.\Generated_Source\PSoC4/CYBLE_bls.c **** 
 225:.\Generated_Source\PSoC4/CYBLE_bls.c **** /******************************************************************************
 226:.\Generated_Source\PSoC4/CYBLE_bls.c **** ##Function Name: CyBle_BlssGetCharacteristicDescriptor
 227:.\Generated_Source\PSoC4/CYBLE_bls.c **** *******************************************************************************
 228:.\Generated_Source\PSoC4/CYBLE_bls.c **** 
 229:.\Generated_Source\PSoC4/CYBLE_bls.c **** Summary:
 230:.\Generated_Source\PSoC4/CYBLE_bls.c ****  Gets a characteristic descriptor of a specified characteristic of the Blood
 231:.\Generated_Source\PSoC4/CYBLE_bls.c ****  pressure service from the local GATT database.
 232:.\Generated_Source\PSoC4/CYBLE_bls.c **** 
 233:.\Generated_Source\PSoC4/CYBLE_bls.c **** Parameters:
 234:.\Generated_Source\PSoC4/CYBLE_bls.c ****  charIndex: The index of the characteristic.
 235:.\Generated_Source\PSoC4/CYBLE_bls.c ****  descrIndex: The index of the characteristic descriptor.
ARM GAS  C:\Users\jdmoussa\AppData\Local\Temp\cccazBog.s 			page 11


 236:.\Generated_Source\PSoC4/CYBLE_bls.c ****  attrSize: The size of the characteristic descriptor attribute.
 237:.\Generated_Source\PSoC4/CYBLE_bls.c ****  *attrValue: The pointer to the location where characteristic descriptor 
 238:.\Generated_Source\PSoC4/CYBLE_bls.c ****               value data should be stored.
 239:.\Generated_Source\PSoC4/CYBLE_bls.c **** 
 240:.\Generated_Source\PSoC4/CYBLE_bls.c **** Return:
 241:.\Generated_Source\PSoC4/CYBLE_bls.c ****  Return value is of type CYBLE_API_RESULT_T.
 242:.\Generated_Source\PSoC4/CYBLE_bls.c ****  * CYBLE_ERROR_OK - The request handled successfully
 243:.\Generated_Source\PSoC4/CYBLE_bls.c ****  * CYBLE_ERROR_INVALID_PARAMETER - Validation of the input parameter failed
 244:.\Generated_Source\PSoC4/CYBLE_bls.c ****  * CYBLE_ERROR_GATT_DB_INVALID_ATTR_HANDLE - Optional descriptor is absent
 245:.\Generated_Source\PSoC4/CYBLE_bls.c **** 
 246:.\Generated_Source\PSoC4/CYBLE_bls.c **** ******************************************************************************/
 247:.\Generated_Source\PSoC4/CYBLE_bls.c **** CYBLE_API_RESULT_T CyBle_BlssGetCharacteristicDescriptor(CYBLE_BLS_CHAR_INDEX_T charIndex, 
 248:.\Generated_Source\PSoC4/CYBLE_bls.c ****                                                          CYBLE_BLS_DESCR_INDEX_T descrIndex,
 249:.\Generated_Source\PSoC4/CYBLE_bls.c ****                                                          uint8 attrSize, uint8 *attrValue)
 250:.\Generated_Source\PSoC4/CYBLE_bls.c **** {
 336              		.loc 1 250 0
 337              		.cfi_startproc
 338 0000 80B5     		push	{r7, lr}
 339              		.cfi_def_cfa_offset 8
 340              		.cfi_offset 7, -8
 341              		.cfi_offset 14, -4
 342 0002 86B0     		sub	sp, sp, #24
 343              		.cfi_def_cfa_offset 32
 344 0004 00AF     		add	r7, sp, #0
 345              		.cfi_def_cfa_register 7
 346 0006 3B60     		str	r3, [r7]
 347 0008 FB1D     		add	r3, r7, #7
 348 000a 1870     		strb	r0, [r3]
 349 000c BB1D     		add	r3, r7, #6
 350 000e 1970     		strb	r1, [r3]
 351 0010 7B1D     		add	r3, r7, #5
 352 0012 1A70     		strb	r2, [r3]
 251:.\Generated_Source\PSoC4/CYBLE_bls.c ****     CYBLE_API_RESULT_T apiResult = CYBLE_ERROR_OK;
 353              		.loc 1 251 0
 354 0014 3B1C     		mov	r3, r7
 355 0016 1633     		add	r3, r3, #22
 356 0018 0022     		mov	r2, #0
 357 001a 1A80     		strh	r2, [r3]
 252:.\Generated_Source\PSoC4/CYBLE_bls.c ****     
 253:.\Generated_Source\PSoC4/CYBLE_bls.c ****     /* Check parameters */
 254:.\Generated_Source\PSoC4/CYBLE_bls.c ****     if((charIndex >= CYBLE_BLS_CHAR_COUNT) || (descrIndex >= CYBLE_BLS_DESCR_COUNT))
 358              		.loc 1 254 0
 359 001c FB1D     		add	r3, r7, #7
 360 001e 1B78     		ldrb	r3, [r3]
 361 0020 022B     		cmp	r3, #2
 362 0022 03D8     		bhi	.L22
 363              		.loc 1 254 0 is_stmt 0 discriminator 1
 364 0024 BB1D     		add	r3, r7, #6
 365 0026 1B78     		ldrb	r3, [r3]
 366 0028 002B     		cmp	r3, #0
 367 002a 04D0     		beq	.L23
 368              	.L22:
 255:.\Generated_Source\PSoC4/CYBLE_bls.c ****     {
 256:.\Generated_Source\PSoC4/CYBLE_bls.c ****         apiResult = CYBLE_ERROR_INVALID_PARAMETER;
 369              		.loc 1 256 0 is_stmt 1
 370 002c 3B1C     		mov	r3, r7
 371 002e 1633     		add	r3, r3, #22
ARM GAS  C:\Users\jdmoussa\AppData\Local\Temp\cccazBog.s 			page 12


 372 0030 0122     		mov	r2, #1
 373 0032 1A80     		strh	r2, [r3]
 374 0034 2DE0     		b	.L24
 375              	.L23:
 257:.\Generated_Source\PSoC4/CYBLE_bls.c ****     }
 258:.\Generated_Source\PSoC4/CYBLE_bls.c **** 	else if(CYBLE_GATT_INVALID_ATTR_HANDLE_VALUE == cyBle_blss.charInfo[charIndex].cccdHandle)
 376              		.loc 1 258 0
 377 0036 FB1D     		add	r3, r7, #7
 378 0038 1B78     		ldrb	r3, [r3]
 379 003a 194A     		ldr	r2, .L28
 380 003c 9B00     		lsl	r3, r3, #2
 381 003e D318     		add	r3, r2, r3
 382 0040 9B88     		ldrh	r3, [r3, #4]
 383 0042 002B     		cmp	r3, #0
 384 0044 04D1     		bne	.L25
 259:.\Generated_Source\PSoC4/CYBLE_bls.c ****     {
 260:.\Generated_Source\PSoC4/CYBLE_bls.c ****         apiResult = CYBLE_ERROR_GATT_DB_INVALID_ATTR_HANDLE;
 385              		.loc 1 260 0
 386 0046 3B1C     		mov	r3, r7
 387 0048 1633     		add	r3, r3, #22
 388 004a 1322     		mov	r2, #19
 389 004c 1A80     		strh	r2, [r3]
 390 004e 20E0     		b	.L24
 391              	.L25:
 392              	.LBB4:
 261:.\Generated_Source\PSoC4/CYBLE_bls.c ****     }
 262:.\Generated_Source\PSoC4/CYBLE_bls.c ****     else
 263:.\Generated_Source\PSoC4/CYBLE_bls.c ****     {
 264:.\Generated_Source\PSoC4/CYBLE_bls.c ****         CYBLE_GATT_HANDLE_VALUE_PAIR_T locHandleValuePair;
 265:.\Generated_Source\PSoC4/CYBLE_bls.c ****         
 266:.\Generated_Source\PSoC4/CYBLE_bls.c ****         /* Get data from database */
 267:.\Generated_Source\PSoC4/CYBLE_bls.c ****         locHandleValuePair.attrHandle = cyBle_blss.charInfo[charIndex].cccdHandle;
 393              		.loc 1 267 0
 394 0050 FB1D     		add	r3, r7, #7
 395 0052 1B78     		ldrb	r3, [r3]
 396 0054 124A     		ldr	r2, .L28
 397 0056 9B00     		lsl	r3, r3, #2
 398 0058 D318     		add	r3, r2, r3
 399 005a 9A88     		ldrh	r2, [r3, #4]
 400 005c 3B1C     		mov	r3, r7
 401 005e 0833     		add	r3, r3, #8
 402 0060 1A81     		strh	r2, [r3, #8]
 268:.\Generated_Source\PSoC4/CYBLE_bls.c ****         locHandleValuePair.value.len = attrSize;
 403              		.loc 1 268 0
 404 0062 7B1D     		add	r3, r7, #5
 405 0064 1B78     		ldrb	r3, [r3]
 406 0066 9AB2     		uxth	r2, r3
 407 0068 3B1C     		mov	r3, r7
 408 006a 0833     		add	r3, r3, #8
 409 006c 9A80     		strh	r2, [r3, #4]
 269:.\Generated_Source\PSoC4/CYBLE_bls.c ****         locHandleValuePair.value.val = attrValue;
 410              		.loc 1 269 0
 411 006e 3B1C     		mov	r3, r7
 412 0070 0833     		add	r3, r3, #8
 413 0072 3A68     		ldr	r2, [r7]
 414 0074 1A60     		str	r2, [r3]
 270:.\Generated_Source\PSoC4/CYBLE_bls.c **** 
ARM GAS  C:\Users\jdmoussa\AppData\Local\Temp\cccazBog.s 			page 13


 271:.\Generated_Source\PSoC4/CYBLE_bls.c ****         if(CYBLE_GATT_ERR_NONE != CyBle_GattsReadAttributeValue(&locHandleValuePair,
 415              		.loc 1 271 0
 416 0076 3B1C     		mov	r3, r7
 417 0078 0833     		add	r3, r3, #8
 418 007a 181C     		mov	r0, r3
 419 007c 0021     		mov	r1, #0
 420 007e 0022     		mov	r2, #0
 421 0080 FFF7FEFF 		bl	CyBle_GattsReadAttributeValue
 422 0084 031C     		mov	r3, r0
 423 0086 002B     		cmp	r3, #0
 424 0088 03D0     		beq	.L24
 272:.\Generated_Source\PSoC4/CYBLE_bls.c ****                                     0u, CYBLE_GATT_DB_LOCALLY_INITIATED))
 273:.\Generated_Source\PSoC4/CYBLE_bls.c ****         {
 274:.\Generated_Source\PSoC4/CYBLE_bls.c ****             apiResult = CYBLE_ERROR_INVALID_PARAMETER;
 425              		.loc 1 274 0
 426 008a 3B1C     		mov	r3, r7
 427 008c 1633     		add	r3, r3, #22
 428 008e 0122     		mov	r2, #1
 429 0090 1A80     		strh	r2, [r3]
 430              	.L24:
 431              	.LBE4:
 275:.\Generated_Source\PSoC4/CYBLE_bls.c ****         }
 276:.\Generated_Source\PSoC4/CYBLE_bls.c ****     }
 277:.\Generated_Source\PSoC4/CYBLE_bls.c **** 
 278:.\Generated_Source\PSoC4/CYBLE_bls.c ****     return (apiResult);
 432              		.loc 1 278 0
 433 0092 3B1C     		mov	r3, r7
 434 0094 1633     		add	r3, r3, #22
 435 0096 1B88     		ldrh	r3, [r3]
 279:.\Generated_Source\PSoC4/CYBLE_bls.c **** }
 436              		.loc 1 279 0
 437 0098 181C     		mov	r0, r3
 438 009a BD46     		mov	sp, r7
 439 009c 06B0     		add	sp, sp, #24
 440              		@ sp needed
 441 009e 80BD     		pop	{r7, pc}
 442              	.L29:
 443              		.align	2
 444              	.L28:
 445 00a0 00000000 		.word	cyBle_blss
 446              		.cfi_endproc
 447              	.LFE6:
 448              		.size	CyBle_BlssGetCharacteristicDescriptor, .-CyBle_BlssGetCharacteristicDescriptor
 449              		.section	.text.CyBle_BlssSendNotification,"ax",%progbits
 450              		.align	2
 451              		.global	CyBle_BlssSendNotification
 452              		.code	16
 453              		.thumb_func
 454              		.type	CyBle_BlssSendNotification, %function
 455              	CyBle_BlssSendNotification:
 456              	.LFB7:
 280:.\Generated_Source\PSoC4/CYBLE_bls.c **** 
 281:.\Generated_Source\PSoC4/CYBLE_bls.c **** 
 282:.\Generated_Source\PSoC4/CYBLE_bls.c **** /******************************************************************************
 283:.\Generated_Source\PSoC4/CYBLE_bls.c **** ##Function Name: CyBle_BlssSendNotification
 284:.\Generated_Source\PSoC4/CYBLE_bls.c **** *******************************************************************************
 285:.\Generated_Source\PSoC4/CYBLE_bls.c **** 
ARM GAS  C:\Users\jdmoussa\AppData\Local\Temp\cccazBog.s 			page 14


 286:.\Generated_Source\PSoC4/CYBLE_bls.c **** Summary:
 287:.\Generated_Source\PSoC4/CYBLE_bls.c ****  Sends a notification of the specified characteristic to the Client device.
 288:.\Generated_Source\PSoC4/CYBLE_bls.c ****  
 289:.\Generated_Source\PSoC4/CYBLE_bls.c **** Parameters:
 290:.\Generated_Source\PSoC4/CYBLE_bls.c ****  connHandle: The connection handle which consist of the device ID and ATT
 291:.\Generated_Source\PSoC4/CYBLE_bls.c ****               connection ID.
 292:.\Generated_Source\PSoC4/CYBLE_bls.c ****  charIndex: The index of the service characteristic.
 293:.\Generated_Source\PSoC4/CYBLE_bls.c ****  attrSize: The size of the characteristic value attribute.
 294:.\Generated_Source\PSoC4/CYBLE_bls.c ****  *attrValue: The pointer to the characteristic value data that should be
 295:.\Generated_Source\PSoC4/CYBLE_bls.c ****               sent to the client device.
 296:.\Generated_Source\PSoC4/CYBLE_bls.c **** 
 297:.\Generated_Source\PSoC4/CYBLE_bls.c **** Return:
 298:.\Generated_Source\PSoC4/CYBLE_bls.c ****  Return value is of type CYBLE_API_RESULT_T.
 299:.\Generated_Source\PSoC4/CYBLE_bls.c ****   * CYBLE_ERROR_OK - The request handled successfully
 300:.\Generated_Source\PSoC4/CYBLE_bls.c ****   * CYBLE_ERROR_INVALID_PARAMETER - Validation of the input parameter failed
 301:.\Generated_Source\PSoC4/CYBLE_bls.c ****   * CYBLE_ERROR_INVALID_OPERATION - This operation is not permitted
 302:.\Generated_Source\PSoC4/CYBLE_bls.c ****   * CYBLE_ERROR_GATT_DB_INVALID_ATTR_HANDLE - Optional characteristic is absent
 303:.\Generated_Source\PSoC4/CYBLE_bls.c ****   * CYBLE_ERROR_INVALID_STATE - Connection with the client is not established
 304:.\Generated_Source\PSoC4/CYBLE_bls.c ****   * CYBLE_ERROR_MEMORY_ALLOCATION_FAILED - Memory allocation failed 
 305:.\Generated_Source\PSoC4/CYBLE_bls.c ****   * CYBLE_ERROR_NTF_DISABLED - Notification is not enabled by the client
 306:.\Generated_Source\PSoC4/CYBLE_bls.c **** 
 307:.\Generated_Source\PSoC4/CYBLE_bls.c **** ******************************************************************************/
 308:.\Generated_Source\PSoC4/CYBLE_bls.c **** CYBLE_API_RESULT_T CyBle_BlssSendNotification(CYBLE_CONN_HANDLE_T connHandle,
 309:.\Generated_Source\PSoC4/CYBLE_bls.c ****                     CYBLE_BLS_CHAR_INDEX_T charIndex, uint8 attrSize, uint8 *attrValue)
 310:.\Generated_Source\PSoC4/CYBLE_bls.c **** {
 457              		.loc 1 310 0
 458              		.cfi_startproc
 459 0000 90B5     		push	{r4, r7, lr}
 460              		.cfi_def_cfa_offset 12
 461              		.cfi_offset 4, -12
 462              		.cfi_offset 7, -8
 463              		.cfi_offset 14, -4
 464 0002 89B0     		sub	sp, sp, #36
 465              		.cfi_def_cfa_offset 48
 466 0004 00AF     		add	r7, sp, #0
 467              		.cfi_def_cfa_register 7
 468 0006 3C1C     		mov	r4, r7
 469 0008 0C34     		add	r4, r4, #12
 470 000a 2080     		strh	r0, [r4]
 471 000c 7B60     		str	r3, [r7, #4]
 472 000e 3B1C     		mov	r3, r7
 473 0010 0B33     		add	r3, r3, #11
 474 0012 1970     		strb	r1, [r3]
 475 0014 3B1C     		mov	r3, r7
 476 0016 0A33     		add	r3, r3, #10
 477 0018 1A70     		strb	r2, [r3]
 311:.\Generated_Source\PSoC4/CYBLE_bls.c ****     CYBLE_API_RESULT_T apiResult;
 312:.\Generated_Source\PSoC4/CYBLE_bls.c ****     
 313:.\Generated_Source\PSoC4/CYBLE_bls.c ****     /* Send Notification if it is enabled and connected */
 314:.\Generated_Source\PSoC4/CYBLE_bls.c ****     if(CYBLE_STATE_CONNECTED != CyBle_GetState())
 478              		.loc 1 314 0
 479 001a 354B     		ldr	r3, .L37
 480 001c 1B78     		ldrb	r3, [r3]
 481 001e 022B     		cmp	r3, #2
 482 0020 05D0     		beq	.L31
 315:.\Generated_Source\PSoC4/CYBLE_bls.c ****     {
 316:.\Generated_Source\PSoC4/CYBLE_bls.c ****         apiResult = CYBLE_ERROR_INVALID_STATE;
ARM GAS  C:\Users\jdmoussa\AppData\Local\Temp\cccazBog.s 			page 15


 483              		.loc 1 316 0
 484 0022 3B1C     		mov	r3, r7
 485 0024 1E33     		add	r3, r3, #30
 486 0026 8322     		mov	r2, #131
 487 0028 5200     		lsl	r2, r2, #1
 488 002a 1A80     		strh	r2, [r3]
 489 002c 58E0     		b	.L32
 490              	.L31:
 317:.\Generated_Source\PSoC4/CYBLE_bls.c ****     }
 318:.\Generated_Source\PSoC4/CYBLE_bls.c ****     else if(charIndex >= CYBLE_BLS_CHAR_COUNT)
 491              		.loc 1 318 0
 492 002e 3B1C     		mov	r3, r7
 493 0030 0B33     		add	r3, r3, #11
 494 0032 1B78     		ldrb	r3, [r3]
 495 0034 022B     		cmp	r3, #2
 496 0036 04D9     		bls	.L33
 319:.\Generated_Source\PSoC4/CYBLE_bls.c ****     {
 320:.\Generated_Source\PSoC4/CYBLE_bls.c ****         apiResult = CYBLE_ERROR_INVALID_PARAMETER;
 497              		.loc 1 320 0
 498 0038 3B1C     		mov	r3, r7
 499 003a 1E33     		add	r3, r3, #30
 500 003c 0122     		mov	r2, #1
 501 003e 1A80     		strh	r2, [r3]
 502 0040 4EE0     		b	.L32
 503              	.L33:
 321:.\Generated_Source\PSoC4/CYBLE_bls.c ****     }
 322:.\Generated_Source\PSoC4/CYBLE_bls.c ****     else if(CYBLE_GATT_INVALID_ATTR_HANDLE_VALUE == cyBle_blss.charInfo[charIndex].charHandle)
 504              		.loc 1 322 0
 505 0042 3B1C     		mov	r3, r7
 506 0044 0B33     		add	r3, r3, #11
 507 0046 1B78     		ldrb	r3, [r3]
 508 0048 2A4A     		ldr	r2, .L37+4
 509 004a 9B00     		lsl	r3, r3, #2
 510 004c D318     		add	r3, r2, r3
 511 004e 5B88     		ldrh	r3, [r3, #2]
 512 0050 002B     		cmp	r3, #0
 513 0052 04D1     		bne	.L34
 323:.\Generated_Source\PSoC4/CYBLE_bls.c ****     {
 324:.\Generated_Source\PSoC4/CYBLE_bls.c ****         apiResult = CYBLE_ERROR_GATT_DB_INVALID_ATTR_HANDLE;
 514              		.loc 1 324 0
 515 0054 3B1C     		mov	r3, r7
 516 0056 1E33     		add	r3, r3, #30
 517 0058 1322     		mov	r2, #19
 518 005a 1A80     		strh	r2, [r3]
 519 005c 40E0     		b	.L32
 520              	.L34:
 325:.\Generated_Source\PSoC4/CYBLE_bls.c ****     }
 326:.\Generated_Source\PSoC4/CYBLE_bls.c ****     else if(!CYBLE_IS_NOTIFICATION_ENABLED(cyBle_blss.charInfo[charIndex].cccdHandle))
 521              		.loc 1 326 0
 522 005e 3B1C     		mov	r3, r7
 523 0060 0B33     		add	r3, r3, #11
 524 0062 1B78     		ldrb	r3, [r3]
 525 0064 234A     		ldr	r2, .L37+4
 526 0066 9B00     		lsl	r3, r3, #2
 527 0068 D318     		add	r3, r2, r3
 528 006a 9B88     		ldrh	r3, [r3, #4]
 529 006c 5A1E     		sub	r2, r3, #1
ARM GAS  C:\Users\jdmoussa\AppData\Local\Temp\cccazBog.s 			page 16


 530 006e 2249     		ldr	r1, .L37+8
 531 0070 131C     		mov	r3, r2
 532 0072 9B00     		lsl	r3, r3, #2
 533 0074 9B18     		add	r3, r3, r2
 534 0076 9B00     		lsl	r3, r3, #2
 535 0078 CB18     		add	r3, r1, r3
 536 007a 0833     		add	r3, r3, #8
 537 007c 9B68     		ldr	r3, [r3, #8]
 538 007e 181C     		mov	r0, r3
 539 0080 FFF7FEFF 		bl	CyBle_Get16ByPtr
 540 0084 031C     		mov	r3, r0
 541 0086 1A1C     		mov	r2, r3
 542 0088 0123     		mov	r3, #1
 543 008a 1340     		and	r3, r2
 544 008c 9BB2     		uxth	r3, r3
 545 008e 002B     		cmp	r3, #0
 546 0090 05D1     		bne	.L35
 327:.\Generated_Source\PSoC4/CYBLE_bls.c ****     {
 328:.\Generated_Source\PSoC4/CYBLE_bls.c ****         apiResult = CYBLE_ERROR_NTF_DISABLED;
 547              		.loc 1 328 0
 548 0092 3B1C     		mov	r3, r7
 549 0094 1E33     		add	r3, r3, #30
 550 0096 0422     		mov	r2, #4
 551 0098 FF32     		add	r2, r2, #255
 552 009a 1A80     		strh	r2, [r3]
 553 009c 20E0     		b	.L32
 554              	.L35:
 555              	.LBB5:
 329:.\Generated_Source\PSoC4/CYBLE_bls.c ****     }
 330:.\Generated_Source\PSoC4/CYBLE_bls.c ****     else
 331:.\Generated_Source\PSoC4/CYBLE_bls.c ****     {
 332:.\Generated_Source\PSoC4/CYBLE_bls.c ****         CYBLE_GATTS_HANDLE_VALUE_NTF_T ntfParam;
 333:.\Generated_Source\PSoC4/CYBLE_bls.c ****         
 334:.\Generated_Source\PSoC4/CYBLE_bls.c ****         /* Fill all fields of write request structure ... */
 335:.\Generated_Source\PSoC4/CYBLE_bls.c ****         ntfParam.attrHandle = cyBle_blss.charInfo[charIndex].charHandle; 
 556              		.loc 1 335 0
 557 009e 3B1C     		mov	r3, r7
 558 00a0 0B33     		add	r3, r3, #11
 559 00a2 1B78     		ldrb	r3, [r3]
 560 00a4 134A     		ldr	r2, .L37+4
 561 00a6 9B00     		lsl	r3, r3, #2
 562 00a8 D318     		add	r3, r2, r3
 563 00aa 5A88     		ldrh	r2, [r3, #2]
 564 00ac 3B1C     		mov	r3, r7
 565 00ae 1033     		add	r3, r3, #16
 566 00b0 1A81     		strh	r2, [r3, #8]
 336:.\Generated_Source\PSoC4/CYBLE_bls.c ****         ntfParam.value.val = attrValue;
 567              		.loc 1 336 0
 568 00b2 3B1C     		mov	r3, r7
 569 00b4 1033     		add	r3, r3, #16
 570 00b6 7A68     		ldr	r2, [r7, #4]
 571 00b8 1A60     		str	r2, [r3]
 337:.\Generated_Source\PSoC4/CYBLE_bls.c ****         ntfParam.value.len = attrSize;
 572              		.loc 1 337 0
 573 00ba 3B1C     		mov	r3, r7
 574 00bc 0A33     		add	r3, r3, #10
 575 00be 1B78     		ldrb	r3, [r3]
ARM GAS  C:\Users\jdmoussa\AppData\Local\Temp\cccazBog.s 			page 17


 576 00c0 9AB2     		uxth	r2, r3
 577 00c2 3B1C     		mov	r3, r7
 578 00c4 1033     		add	r3, r3, #16
 579 00c6 9A80     		strh	r2, [r3, #4]
 338:.\Generated_Source\PSoC4/CYBLE_bls.c ****         
 339:.\Generated_Source\PSoC4/CYBLE_bls.c ****         /* Send notification to client using previously filled structure */
 340:.\Generated_Source\PSoC4/CYBLE_bls.c ****         apiResult = CyBle_GattsNotification(connHandle, &ntfParam);
 580              		.loc 1 340 0
 581 00c8 3C1C     		mov	r4, r7
 582 00ca 1E34     		add	r4, r4, #30
 583 00cc 3B1C     		mov	r3, r7
 584 00ce 0C33     		add	r3, r3, #12
 585 00d0 3A1C     		mov	r2, r7
 586 00d2 1032     		add	r2, r2, #16
 587 00d4 1868     		ldr	r0, [r3]
 588 00d6 111C     		mov	r1, r2
 589 00d8 FFF7FEFF 		bl	CyBle_GattsNotification
 590 00dc 031C     		mov	r3, r0
 591 00de 2380     		strh	r3, [r4]
 592              	.L32:
 593              	.LBE5:
 341:.\Generated_Source\PSoC4/CYBLE_bls.c ****     }
 342:.\Generated_Source\PSoC4/CYBLE_bls.c **** 
 343:.\Generated_Source\PSoC4/CYBLE_bls.c ****     return (apiResult);
 594              		.loc 1 343 0
 595 00e0 3B1C     		mov	r3, r7
 596 00e2 1E33     		add	r3, r3, #30
 597 00e4 1B88     		ldrh	r3, [r3]
 344:.\Generated_Source\PSoC4/CYBLE_bls.c **** }
 598              		.loc 1 344 0
 599 00e6 181C     		mov	r0, r3
 600 00e8 BD46     		mov	sp, r7
 601 00ea 09B0     		add	sp, sp, #36
 602              		@ sp needed
 603 00ec 90BD     		pop	{r4, r7, pc}
 604              	.L38:
 605 00ee C046     		.align	2
 606              	.L37:
 607 00f0 00000000 		.word	cyBle_state
 608 00f4 00000000 		.word	cyBle_blss
 609 00f8 00000000 		.word	cyBle_gattDB
 610              		.cfi_endproc
 611              	.LFE7:
 612              		.size	CyBle_BlssSendNotification, .-CyBle_BlssSendNotification
 613              		.section	.text.CyBle_BlssSendIndication,"ax",%progbits
 614              		.align	2
 615              		.global	CyBle_BlssSendIndication
 616              		.code	16
 617              		.thumb_func
 618              		.type	CyBle_BlssSendIndication, %function
 619              	CyBle_BlssSendIndication:
 620              	.LFB8:
 345:.\Generated_Source\PSoC4/CYBLE_bls.c **** 
 346:.\Generated_Source\PSoC4/CYBLE_bls.c **** 
 347:.\Generated_Source\PSoC4/CYBLE_bls.c **** /******************************************************************************
 348:.\Generated_Source\PSoC4/CYBLE_bls.c **** ##Function Name: CyBle_BlssSendIndication
 349:.\Generated_Source\PSoC4/CYBLE_bls.c **** *******************************************************************************
ARM GAS  C:\Users\jdmoussa\AppData\Local\Temp\cccazBog.s 			page 18


 350:.\Generated_Source\PSoC4/CYBLE_bls.c **** 
 351:.\Generated_Source\PSoC4/CYBLE_bls.c **** Summary:
 352:.\Generated_Source\PSoC4/CYBLE_bls.c ****  Sends an indication of the specified characteristic to the Client device.
 353:.\Generated_Source\PSoC4/CYBLE_bls.c **** 
 354:.\Generated_Source\PSoC4/CYBLE_bls.c **** Parameters:
 355:.\Generated_Source\PSoC4/CYBLE_bls.c ****  connHandle: The connection handle which consist of the device ID and ATT 
 356:.\Generated_Source\PSoC4/CYBLE_bls.c ****               connection ID.
 357:.\Generated_Source\PSoC4/CYBLE_bls.c ****  charIndex: The index of the service characteristic.
 358:.\Generated_Source\PSoC4/CYBLE_bls.c ****  attrSize: The size of the characteristic value attribute.
 359:.\Generated_Source\PSoC4/CYBLE_bls.c ****  *attrValue: The pointer to the characteristic value data that should be
 360:.\Generated_Source\PSoC4/CYBLE_bls.c ****               sent to the client device.
 361:.\Generated_Source\PSoC4/CYBLE_bls.c **** 
 362:.\Generated_Source\PSoC4/CYBLE_bls.c **** Return:
 363:.\Generated_Source\PSoC4/CYBLE_bls.c ****  Return value is of type CYBLE_API_RESULT_T.
 364:.\Generated_Source\PSoC4/CYBLE_bls.c ****   * CYBLE_ERROR_OK - The request handled successfully
 365:.\Generated_Source\PSoC4/CYBLE_bls.c ****   * CYBLE_ERROR_INVALID_PARAMETER - Validation of the input parameter failed
 366:.\Generated_Source\PSoC4/CYBLE_bls.c ****   * CYBLE_ERROR_INVALID_OPERATION - This operation is not permitted
 367:.\Generated_Source\PSoC4/CYBLE_bls.c ****   * CYBLE_ERROR_INVALID_STATE - Connection with the client is not established
 368:.\Generated_Source\PSoC4/CYBLE_bls.c ****   * CYBLE_ERROR_MEMORY_ALLOCATION_FAILED - Memory allocation failed
 369:.\Generated_Source\PSoC4/CYBLE_bls.c ****   * CYBLE_ERROR_IND_DISABLED - Indication is not enabled by the client
 370:.\Generated_Source\PSoC4/CYBLE_bls.c **** 
 371:.\Generated_Source\PSoC4/CYBLE_bls.c **** ******************************************************************************/
 372:.\Generated_Source\PSoC4/CYBLE_bls.c **** CYBLE_API_RESULT_T CyBle_BlssSendIndication(CYBLE_CONN_HANDLE_T connHandle,
 373:.\Generated_Source\PSoC4/CYBLE_bls.c ****                     CYBLE_BLS_CHAR_INDEX_T charIndex, uint8 attrSize, uint8 *attrValue)
 374:.\Generated_Source\PSoC4/CYBLE_bls.c **** {
 621              		.loc 1 374 0
 622              		.cfi_startproc
 623 0000 90B5     		push	{r4, r7, lr}
 624              		.cfi_def_cfa_offset 12
 625              		.cfi_offset 4, -12
 626              		.cfi_offset 7, -8
 627              		.cfi_offset 14, -4
 628 0002 89B0     		sub	sp, sp, #36
 629              		.cfi_def_cfa_offset 48
 630 0004 00AF     		add	r7, sp, #0
 631              		.cfi_def_cfa_register 7
 632 0006 3C1C     		mov	r4, r7
 633 0008 0C34     		add	r4, r4, #12
 634 000a 2080     		strh	r0, [r4]
 635 000c 7B60     		str	r3, [r7, #4]
 636 000e 3B1C     		mov	r3, r7
 637 0010 0B33     		add	r3, r3, #11
 638 0012 1970     		strb	r1, [r3]
 639 0014 3B1C     		mov	r3, r7
 640 0016 0A33     		add	r3, r3, #10
 641 0018 1A70     		strb	r2, [r3]
 375:.\Generated_Source\PSoC4/CYBLE_bls.c ****     CYBLE_API_RESULT_T apiResult;
 376:.\Generated_Source\PSoC4/CYBLE_bls.c ****     
 377:.\Generated_Source\PSoC4/CYBLE_bls.c ****     /* Send Indication if it is enabled and connected */
 378:.\Generated_Source\PSoC4/CYBLE_bls.c ****     if(CYBLE_STATE_CONNECTED != CyBle_GetState())
 642              		.loc 1 378 0
 643 001a 384B     		ldr	r3, .L47
 644 001c 1B78     		ldrb	r3, [r3]
 645 001e 022B     		cmp	r3, #2
 646 0020 05D0     		beq	.L40
 379:.\Generated_Source\PSoC4/CYBLE_bls.c ****     {
 380:.\Generated_Source\PSoC4/CYBLE_bls.c ****         apiResult = CYBLE_ERROR_INVALID_STATE;
ARM GAS  C:\Users\jdmoussa\AppData\Local\Temp\cccazBog.s 			page 19


 647              		.loc 1 380 0
 648 0022 3B1C     		mov	r3, r7
 649 0024 1E33     		add	r3, r3, #30
 650 0026 8322     		mov	r2, #131
 651 0028 5200     		lsl	r2, r2, #1
 652 002a 1A80     		strh	r2, [r3]
 653 002c 5EE0     		b	.L41
 654              	.L40:
 381:.\Generated_Source\PSoC4/CYBLE_bls.c ****     }
 382:.\Generated_Source\PSoC4/CYBLE_bls.c ****     else if(charIndex >= CYBLE_BLS_CHAR_COUNT)
 655              		.loc 1 382 0
 656 002e 3B1C     		mov	r3, r7
 657 0030 0B33     		add	r3, r3, #11
 658 0032 1B78     		ldrb	r3, [r3]
 659 0034 022B     		cmp	r3, #2
 660 0036 04D9     		bls	.L42
 383:.\Generated_Source\PSoC4/CYBLE_bls.c ****     {
 384:.\Generated_Source\PSoC4/CYBLE_bls.c ****         apiResult = CYBLE_ERROR_INVALID_PARAMETER;
 661              		.loc 1 384 0
 662 0038 3B1C     		mov	r3, r7
 663 003a 1E33     		add	r3, r3, #30
 664 003c 0122     		mov	r2, #1
 665 003e 1A80     		strh	r2, [r3]
 666 0040 54E0     		b	.L41
 667              	.L42:
 385:.\Generated_Source\PSoC4/CYBLE_bls.c ****     }
 386:.\Generated_Source\PSoC4/CYBLE_bls.c ****     else if(charIndex != CYBLE_BLS_BPM)
 668              		.loc 1 386 0
 669 0042 3B1C     		mov	r3, r7
 670 0044 0B33     		add	r3, r3, #11
 671 0046 1B78     		ldrb	r3, [r3]
 672 0048 002B     		cmp	r3, #0
 673 004a 04D0     		beq	.L43
 387:.\Generated_Source\PSoC4/CYBLE_bls.c ****     {
 388:.\Generated_Source\PSoC4/CYBLE_bls.c ****         apiResult = CYBLE_ERROR_INVALID_OPERATION;
 674              		.loc 1 388 0
 675 004c 3B1C     		mov	r3, r7
 676 004e 1E33     		add	r3, r3, #30
 677 0050 0222     		mov	r2, #2
 678 0052 1A80     		strh	r2, [r3]
 679 0054 4AE0     		b	.L41
 680              	.L43:
 389:.\Generated_Source\PSoC4/CYBLE_bls.c ****     }
 390:.\Generated_Source\PSoC4/CYBLE_bls.c ****     else if(!CYBLE_IS_INDICATION_ENABLED(cyBle_blss.charInfo[charIndex].cccdHandle))
 681              		.loc 1 390 0
 682 0056 3B1C     		mov	r3, r7
 683 0058 0B33     		add	r3, r3, #11
 684 005a 1B78     		ldrb	r3, [r3]
 685 005c 284A     		ldr	r2, .L47+4
 686 005e 9B00     		lsl	r3, r3, #2
 687 0060 D318     		add	r3, r2, r3
 688 0062 9B88     		ldrh	r3, [r3, #4]
 689 0064 5A1E     		sub	r2, r3, #1
 690 0066 2749     		ldr	r1, .L47+8
 691 0068 131C     		mov	r3, r2
 692 006a 9B00     		lsl	r3, r3, #2
 693 006c 9B18     		add	r3, r3, r2
ARM GAS  C:\Users\jdmoussa\AppData\Local\Temp\cccazBog.s 			page 20


 694 006e 9B00     		lsl	r3, r3, #2
 695 0070 CB18     		add	r3, r1, r3
 696 0072 0833     		add	r3, r3, #8
 697 0074 9B68     		ldr	r3, [r3, #8]
 698 0076 181C     		mov	r0, r3
 699 0078 FFF7FEFF 		bl	CyBle_Get16ByPtr
 700 007c 031C     		mov	r3, r0
 701 007e 1A1C     		mov	r2, r3
 702 0080 0223     		mov	r3, #2
 703 0082 1340     		and	r3, r2
 704 0084 9BB2     		uxth	r3, r3
 705 0086 002B     		cmp	r3, #0
 706 0088 05D1     		bne	.L44
 391:.\Generated_Source\PSoC4/CYBLE_bls.c ****     {
 392:.\Generated_Source\PSoC4/CYBLE_bls.c ****         apiResult = CYBLE_ERROR_IND_DISABLED;
 707              		.loc 1 392 0
 708 008a 3B1C     		mov	r3, r7
 709 008c 1E33     		add	r3, r3, #30
 710 008e 8222     		mov	r2, #130
 711 0090 5200     		lsl	r2, r2, #1
 712 0092 1A80     		strh	r2, [r3]
 713 0094 2AE0     		b	.L41
 714              	.L44:
 715              	.LBB6:
 393:.\Generated_Source\PSoC4/CYBLE_bls.c ****     }
 394:.\Generated_Source\PSoC4/CYBLE_bls.c ****     else
 395:.\Generated_Source\PSoC4/CYBLE_bls.c ****     {
 396:.\Generated_Source\PSoC4/CYBLE_bls.c ****         CYBLE_GATTS_HANDLE_VALUE_IND_T indParam;
 397:.\Generated_Source\PSoC4/CYBLE_bls.c ****         
 398:.\Generated_Source\PSoC4/CYBLE_bls.c ****         /* Fill all fields of write request structure ... */
 399:.\Generated_Source\PSoC4/CYBLE_bls.c ****         indParam.attrHandle = cyBle_blss.charInfo[charIndex].charHandle; 
 716              		.loc 1 399 0
 717 0096 3B1C     		mov	r3, r7
 718 0098 0B33     		add	r3, r3, #11
 719 009a 1B78     		ldrb	r3, [r3]
 720 009c 184A     		ldr	r2, .L47+4
 721 009e 9B00     		lsl	r3, r3, #2
 722 00a0 D318     		add	r3, r2, r3
 723 00a2 5A88     		ldrh	r2, [r3, #2]
 724 00a4 3B1C     		mov	r3, r7
 725 00a6 1033     		add	r3, r3, #16
 726 00a8 1A81     		strh	r2, [r3, #8]
 400:.\Generated_Source\PSoC4/CYBLE_bls.c ****         indParam.value.val = attrValue;
 727              		.loc 1 400 0
 728 00aa 3B1C     		mov	r3, r7
 729 00ac 1033     		add	r3, r3, #16
 730 00ae 7A68     		ldr	r2, [r7, #4]
 731 00b0 1A60     		str	r2, [r3]
 401:.\Generated_Source\PSoC4/CYBLE_bls.c ****         indParam.value.len = attrSize;
 732              		.loc 1 401 0
 733 00b2 3B1C     		mov	r3, r7
 734 00b4 0A33     		add	r3, r3, #10
 735 00b6 1B78     		ldrb	r3, [r3]
 736 00b8 9AB2     		uxth	r2, r3
 737 00ba 3B1C     		mov	r3, r7
 738 00bc 1033     		add	r3, r3, #16
 739 00be 9A80     		strh	r2, [r3, #4]
ARM GAS  C:\Users\jdmoussa\AppData\Local\Temp\cccazBog.s 			page 21


 402:.\Generated_Source\PSoC4/CYBLE_bls.c ****         
 403:.\Generated_Source\PSoC4/CYBLE_bls.c ****         /* Send indication to client using previously filled structure */
 404:.\Generated_Source\PSoC4/CYBLE_bls.c ****         apiResult = CyBle_GattsIndication(connHandle, &indParam);
 740              		.loc 1 404 0
 741 00c0 3C1C     		mov	r4, r7
 742 00c2 1E34     		add	r4, r4, #30
 743 00c4 3B1C     		mov	r3, r7
 744 00c6 0C33     		add	r3, r3, #12
 745 00c8 3A1C     		mov	r2, r7
 746 00ca 1032     		add	r2, r2, #16
 747 00cc 1868     		ldr	r0, [r3]
 748 00ce 111C     		mov	r1, r2
 749 00d0 FFF7FEFF 		bl	CyBle_GattsIndication
 750 00d4 031C     		mov	r3, r0
 751 00d6 2380     		strh	r3, [r4]
 405:.\Generated_Source\PSoC4/CYBLE_bls.c ****         
 406:.\Generated_Source\PSoC4/CYBLE_bls.c ****         /* Save handle to support service specific value confirmation response from client */
 407:.\Generated_Source\PSoC4/CYBLE_bls.c ****         if(CYBLE_ERROR_OK == apiResult)
 752              		.loc 1 407 0
 753 00d8 3B1C     		mov	r3, r7
 754 00da 1E33     		add	r3, r3, #30
 755 00dc 1B88     		ldrh	r3, [r3]
 756 00de 002B     		cmp	r3, #0
 757 00e0 04D1     		bne	.L41
 408:.\Generated_Source\PSoC4/CYBLE_bls.c ****         {
 409:.\Generated_Source\PSoC4/CYBLE_bls.c ****             cyBle_blssReqHandle = indParam.attrHandle;
 758              		.loc 1 409 0
 759 00e2 3B1C     		mov	r3, r7
 760 00e4 1033     		add	r3, r3, #16
 761 00e6 1A89     		ldrh	r2, [r3, #8]
 762 00e8 074B     		ldr	r3, .L47+12
 763 00ea 1A80     		strh	r2, [r3]
 764              	.L41:
 765              	.LBE6:
 410:.\Generated_Source\PSoC4/CYBLE_bls.c ****         }
 411:.\Generated_Source\PSoC4/CYBLE_bls.c ****     }
 412:.\Generated_Source\PSoC4/CYBLE_bls.c **** 
 413:.\Generated_Source\PSoC4/CYBLE_bls.c ****     return (apiResult);
 766              		.loc 1 413 0
 767 00ec 3B1C     		mov	r3, r7
 768 00ee 1E33     		add	r3, r3, #30
 769 00f0 1B88     		ldrh	r3, [r3]
 414:.\Generated_Source\PSoC4/CYBLE_bls.c **** }
 770              		.loc 1 414 0
 771 00f2 181C     		mov	r0, r3
 772 00f4 BD46     		mov	sp, r7
 773 00f6 09B0     		add	sp, sp, #36
 774              		@ sp needed
 775 00f8 90BD     		pop	{r4, r7, pc}
 776              	.L48:
 777 00fa C046     		.align	2
 778              	.L47:
 779 00fc 00000000 		.word	cyBle_state
 780 0100 00000000 		.word	cyBle_blss
 781 0104 00000000 		.word	cyBle_gattDB
 782 0108 04000000 		.word	cyBle_blssReqHandle
 783              		.cfi_endproc
ARM GAS  C:\Users\jdmoussa\AppData\Local\Temp\cccazBog.s 			page 22


 784              	.LFE8:
 785              		.size	CyBle_BlssSendIndication, .-CyBle_BlssSendIndication
 786              		.section	.text.CyBle_BlssConfirmationEventHandler,"ax",%progbits
 787              		.align	2
 788              		.global	CyBle_BlssConfirmationEventHandler
 789              		.code	16
 790              		.thumb_func
 791              		.type	CyBle_BlssConfirmationEventHandler, %function
 792              	CyBle_BlssConfirmationEventHandler:
 793              	.LFB9:
 415:.\Generated_Source\PSoC4/CYBLE_bls.c **** 
 416:.\Generated_Source\PSoC4/CYBLE_bls.c **** 
 417:.\Generated_Source\PSoC4/CYBLE_bls.c **** /******************************************************************************
 418:.\Generated_Source\PSoC4/CYBLE_bls.c **** ##Function Name: CyBle_BlssConfirmationEventHandler
 419:.\Generated_Source\PSoC4/CYBLE_bls.c **** *******************************************************************************
 420:.\Generated_Source\PSoC4/CYBLE_bls.c **** 
 421:.\Generated_Source\PSoC4/CYBLE_bls.c **** Summary:
 422:.\Generated_Source\PSoC4/CYBLE_bls.c ****  Handles the Value Confirmation request event from the BLE stack.
 423:.\Generated_Source\PSoC4/CYBLE_bls.c **** 
 424:.\Generated_Source\PSoC4/CYBLE_bls.c **** Parameters:
 425:.\Generated_Source\PSoC4/CYBLE_bls.c ****  *eventParam - Pointer to a structure of type CYBLE_CONN_HANDLE_T
 426:.\Generated_Source\PSoC4/CYBLE_bls.c **** 
 427:.\Generated_Source\PSoC4/CYBLE_bls.c **** Return:
 428:.\Generated_Source\PSoC4/CYBLE_bls.c ****  None
 429:.\Generated_Source\PSoC4/CYBLE_bls.c **** 
 430:.\Generated_Source\PSoC4/CYBLE_bls.c **** ******************************************************************************/
 431:.\Generated_Source\PSoC4/CYBLE_bls.c **** void CyBle_BlssConfirmationEventHandler(const CYBLE_CONN_HANDLE_T *eventParam)
 432:.\Generated_Source\PSoC4/CYBLE_bls.c **** {
 794              		.loc 1 432 0
 795              		.cfi_startproc
 796 0000 80B5     		push	{r7, lr}
 797              		.cfi_def_cfa_offset 8
 798              		.cfi_offset 7, -8
 799              		.cfi_offset 14, -4
 800 0002 84B0     		sub	sp, sp, #16
 801              		.cfi_def_cfa_offset 24
 802 0004 00AF     		add	r7, sp, #0
 803              		.cfi_def_cfa_register 7
 804 0006 7860     		str	r0, [r7, #4]
 433:.\Generated_Source\PSoC4/CYBLE_bls.c ****     if((NULL != CyBle_BlsApplCallback) && (cyBle_blss.charInfo[CYBLE_BLS_BPM].charHandle == cyBle_b
 805              		.loc 1 433 0
 806 0008 194B     		ldr	r3, .L51
 807 000a 1B68     		ldr	r3, [r3]
 808 000c 002B     		cmp	r3, #0
 809 000e 2BD0     		beq	.L49
 810              		.loc 1 433 0 is_stmt 0 discriminator 1
 811 0010 0E22     		mov	r2, #14
 812 0012 184B     		ldr	r3, .L51+4
 813 0014 1B88     		ldrh	r3, [r3]
 814 0016 9A42     		cmp	r2, r3
 815 0018 26D1     		bne	.L49
 816              	.LBB7:
 434:.\Generated_Source\PSoC4/CYBLE_bls.c ****     {   
 435:.\Generated_Source\PSoC4/CYBLE_bls.c ****         CYBLE_BLS_CHAR_VALUE_T locCharIndex;
 436:.\Generated_Source\PSoC4/CYBLE_bls.c ****         
 437:.\Generated_Source\PSoC4/CYBLE_bls.c ****         cyBle_blssReqHandle = CYBLE_GATT_INVALID_ATTR_HANDLE_VALUE;
 817              		.loc 1 437 0 is_stmt 1
ARM GAS  C:\Users\jdmoussa\AppData\Local\Temp\cccazBog.s 			page 23


 818 001a 164B     		ldr	r3, .L51+4
 819 001c 0022     		mov	r2, #0
 820 001e 1A80     		strh	r2, [r3]
 438:.\Generated_Source\PSoC4/CYBLE_bls.c ****         
 439:.\Generated_Source\PSoC4/CYBLE_bls.c ****         locCharIndex.connHandle = *eventParam;
 821              		.loc 1 439 0
 822 0020 3A1C     		mov	r2, r7
 823 0022 0832     		add	r2, r2, #8
 824 0024 7B68     		ldr	r3, [r7, #4]
 825 0026 111C     		mov	r1, r2
 826 0028 1A1C     		mov	r2, r3
 827 002a 0223     		mov	r3, #2
 828 002c 081C     		mov	r0, r1
 829 002e 111C     		mov	r1, r2
 830 0030 1A1C     		mov	r2, r3
 831 0032 FFF7FEFF 		bl	memcpy
 440:.\Generated_Source\PSoC4/CYBLE_bls.c ****         locCharIndex.charIndex = CYBLE_BLS_BPM;
 832              		.loc 1 440 0
 833 0036 3B1C     		mov	r3, r7
 834 0038 0833     		add	r3, r3, #8
 835 003a 0022     		mov	r2, #0
 836 003c 9A70     		strb	r2, [r3, #2]
 441:.\Generated_Source\PSoC4/CYBLE_bls.c ****         locCharIndex.value = NULL;
 837              		.loc 1 441 0
 838 003e 3B1C     		mov	r3, r7
 839 0040 0833     		add	r3, r3, #8
 840 0042 0022     		mov	r2, #0
 841 0044 5A60     		str	r2, [r3, #4]
 442:.\Generated_Source\PSoC4/CYBLE_bls.c ****         
 443:.\Generated_Source\PSoC4/CYBLE_bls.c ****         cyBle_eventHandlerFlag &= (uint8)~CYBLE_CALLBACK;
 842              		.loc 1 443 0
 843 0046 0C4B     		ldr	r3, .L51+8
 844 0048 1B78     		ldrb	r3, [r3]
 845 004a DBB2     		uxtb	r3, r3
 846 004c 0122     		mov	r2, #1
 847 004e 9343     		bic	r3, r2
 848 0050 DAB2     		uxtb	r2, r3
 849 0052 094B     		ldr	r3, .L51+8
 850 0054 1A70     		strb	r2, [r3]
 444:.\Generated_Source\PSoC4/CYBLE_bls.c ****         CyBle_BlsApplCallback((uint32)CYBLE_EVT_BLSS_INDICATION_CONFIRMED, &locCharIndex);
 851              		.loc 1 444 0
 852 0056 064B     		ldr	r3, .L51
 853 0058 1B68     		ldr	r3, [r3]
 854 005a 9122     		mov	r2, #145
 855 005c 5100     		lsl	r1, r2, #1
 856 005e 3A1C     		mov	r2, r7
 857 0060 0832     		add	r2, r2, #8
 858 0062 081C     		mov	r0, r1
 859 0064 111C     		mov	r1, r2
 860 0066 9847     		blx	r3
 861              	.L49:
 862              	.LBE7:
 445:.\Generated_Source\PSoC4/CYBLE_bls.c ****     }
 446:.\Generated_Source\PSoC4/CYBLE_bls.c **** }
 863              		.loc 1 446 0
 864 0068 BD46     		mov	sp, r7
 865 006a 04B0     		add	sp, sp, #16
ARM GAS  C:\Users\jdmoussa\AppData\Local\Temp\cccazBog.s 			page 24


 866              		@ sp needed
 867 006c 80BD     		pop	{r7, pc}
 868              	.L52:
 869 006e C046     		.align	2
 870              	.L51:
 871 0070 00000000 		.word	CyBle_BlsApplCallback
 872 0074 04000000 		.word	cyBle_blssReqHandle
 873 0078 00000000 		.word	cyBle_eventHandlerFlag
 874              		.cfi_endproc
 875              	.LFE9:
 876              		.size	CyBle_BlssConfirmationEventHandler, .-CyBle_BlssConfirmationEventHandler
 877              		.section	.text.CyBle_BlssWriteEventHandler,"ax",%progbits
 878              		.align	2
 879              		.global	CyBle_BlssWriteEventHandler
 880              		.code	16
 881              		.thumb_func
 882              		.type	CyBle_BlssWriteEventHandler, %function
 883              	CyBle_BlssWriteEventHandler:
 884              	.LFB10:
 447:.\Generated_Source\PSoC4/CYBLE_bls.c **** 
 448:.\Generated_Source\PSoC4/CYBLE_bls.c **** 
 449:.\Generated_Source\PSoC4/CYBLE_bls.c **** /******************************************************************************
 450:.\Generated_Source\PSoC4/CYBLE_bls.c **** ##Function Name: CyBle_BlssWriteEventHandler
 451:.\Generated_Source\PSoC4/CYBLE_bls.c **** *******************************************************************************
 452:.\Generated_Source\PSoC4/CYBLE_bls.c **** 
 453:.\Generated_Source\PSoC4/CYBLE_bls.c **** Summary:
 454:.\Generated_Source\PSoC4/CYBLE_bls.c ****  Handles the Write Request Event.
 455:.\Generated_Source\PSoC4/CYBLE_bls.c **** 
 456:.\Generated_Source\PSoC4/CYBLE_bls.c **** Parameters:
 457:.\Generated_Source\PSoC4/CYBLE_bls.c ****  void *eventParam: the pointer to the data structure specified by the event.
 458:.\Generated_Source\PSoC4/CYBLE_bls.c **** 
 459:.\Generated_Source\PSoC4/CYBLE_bls.c **** Return:
 460:.\Generated_Source\PSoC4/CYBLE_bls.c ****   CYBLE_GATT_ERR_CODE_T - An API result state if the API succeeded 
 461:.\Generated_Source\PSoC4/CYBLE_bls.c ****                            (CYBLE_GATT_ERR_NONE) or GATT error codes returned
 462:.\Generated_Source\PSoC4/CYBLE_bls.c ****                            by CyBle_GattsWriteAttributeValue();
 463:.\Generated_Source\PSoC4/CYBLE_bls.c **** 
 464:.\Generated_Source\PSoC4/CYBLE_bls.c **** ******************************************************************************/
 465:.\Generated_Source\PSoC4/CYBLE_bls.c **** CYBLE_GATT_ERR_CODE_T CyBle_BlssWriteEventHandler(CYBLE_GATTS_WRITE_REQ_PARAM_T *eventParam)
 466:.\Generated_Source\PSoC4/CYBLE_bls.c **** {
 885              		.loc 1 466 0
 886              		.cfi_startproc
 887 0000 90B5     		push	{r4, r7, lr}
 888              		.cfi_def_cfa_offset 12
 889              		.cfi_offset 4, -12
 890              		.cfi_offset 7, -8
 891              		.cfi_offset 14, -4
 892 0002 87B0     		sub	sp, sp, #28
 893              		.cfi_def_cfa_offset 40
 894 0004 00AF     		add	r7, sp, #0
 895              		.cfi_def_cfa_register 7
 896 0006 7860     		str	r0, [r7, #4]
 467:.\Generated_Source\PSoC4/CYBLE_bls.c ****     CYBLE_GATT_ERR_CODE_T gattErr = CYBLE_GATT_ERR_NONE;
 897              		.loc 1 467 0
 898 0008 3B1C     		mov	r3, r7
 899 000a 1733     		add	r3, r3, #23
 900 000c 0022     		mov	r2, #0
 901 000e 1A70     		strb	r2, [r3]
ARM GAS  C:\Users\jdmoussa\AppData\Local\Temp\cccazBog.s 			page 25


 468:.\Generated_Source\PSoC4/CYBLE_bls.c ****     
 469:.\Generated_Source\PSoC4/CYBLE_bls.c ****     if(NULL != CyBle_BlsApplCallback)
 902              		.loc 1 469 0
 903 0010 434B     		ldr	r3, .L66
 904 0012 1B68     		ldr	r3, [r3]
 905 0014 002B     		cmp	r3, #0
 906 0016 00D1     		bne	.LCB804
 907 0018 7BE0     		b	.L54	@long jump
 908              	.LCB804:
 909              	.LBB8:
 470:.\Generated_Source\PSoC4/CYBLE_bls.c ****     {
 471:.\Generated_Source\PSoC4/CYBLE_bls.c **** 	    CYBLE_BLS_CHAR_VALUE_T locCharIndex;
 472:.\Generated_Source\PSoC4/CYBLE_bls.c ****         locCharIndex.connHandle = eventParam->connHandle;
 910              		.loc 1 472 0
 911 001a 3B1C     		mov	r3, r7
 912 001c 0833     		add	r3, r3, #8
 913 001e 7A68     		ldr	r2, [r7, #4]
 914 0020 1288     		ldrh	r2, [r2]
 915 0022 1A80     		strh	r2, [r3]
 473:.\Generated_Source\PSoC4/CYBLE_bls.c **** 	    locCharIndex.value = NULL;
 916              		.loc 1 473 0
 917 0024 3B1C     		mov	r3, r7
 918 0026 0833     		add	r3, r3, #8
 919 0028 0022     		mov	r2, #0
 920 002a 5A60     		str	r2, [r3, #4]
 474:.\Generated_Source\PSoC4/CYBLE_bls.c ****     
 475:.\Generated_Source\PSoC4/CYBLE_bls.c ****         for (locCharIndex.charIndex = CYBLE_BLS_BPM; locCharIndex.charIndex < CYBLE_BLS_BPF; locCha
 921              		.loc 1 475 0
 922 002c 3B1C     		mov	r3, r7
 923 002e 0833     		add	r3, r3, #8
 924 0030 0022     		mov	r2, #0
 925 0032 9A70     		strb	r2, [r3, #2]
 926 0034 68E0     		b	.L55
 927              	.L64:
 476:.\Generated_Source\PSoC4/CYBLE_bls.c ****         {
 477:.\Generated_Source\PSoC4/CYBLE_bls.c ****             if(eventParam->handleValPair.attrHandle == cyBle_blss.charInfo[locCharIndex.charIndex].
 928              		.loc 1 477 0
 929 0036 7B68     		ldr	r3, [r7, #4]
 930 0038 9A89     		ldrh	r2, [r3, #12]
 931 003a 3B1C     		mov	r3, r7
 932 003c 0833     		add	r3, r3, #8
 933 003e 9B78     		ldrb	r3, [r3, #2]
 934 0040 3849     		ldr	r1, .L66+4
 935 0042 9B00     		lsl	r3, r3, #2
 936 0044 CB18     		add	r3, r1, r3
 937 0046 9B88     		ldrh	r3, [r3, #4]
 938 0048 9A42     		cmp	r2, r3
 939 004a 55D1     		bne	.L56
 478:.\Generated_Source\PSoC4/CYBLE_bls.c ****             {
 479:.\Generated_Source\PSoC4/CYBLE_bls.c ****                 gattErr = CyBle_GattsWriteAttributeValue(&eventParam->handleValPair,
 940              		.loc 1 479 0
 941 004c 7B68     		ldr	r3, [r7, #4]
 942 004e 1A1D     		add	r2, r3, #4
 943 0050 7B68     		ldr	r3, [r7, #4]
 944 0052 3C1C     		mov	r4, r7
 945 0054 1734     		add	r4, r4, #23
 946 0056 101C     		mov	r0, r2
ARM GAS  C:\Users\jdmoussa\AppData\Local\Temp\cccazBog.s 			page 26


 947 0058 0021     		mov	r1, #0
 948 005a 1A1C     		mov	r2, r3
 949 005c 4023     		mov	r3, #64
 950 005e FFF7FEFF 		bl	CyBle_GattsWriteAttributeValue
 951 0062 031C     		mov	r3, r0
 952 0064 2370     		strb	r3, [r4]
 480:.\Generated_Source\PSoC4/CYBLE_bls.c ****                             0u, &eventParam->connHandle, CYBLE_GATT_DB_PEER_INITIATED);
 481:.\Generated_Source\PSoC4/CYBLE_bls.c ****             
 482:.\Generated_Source\PSoC4/CYBLE_bls.c ****                 if(CYBLE_GATT_ERR_NONE == gattErr)
 953              		.loc 1 482 0
 954 0066 3B1C     		mov	r3, r7
 955 0068 1733     		add	r3, r3, #23
 956 006a 1B78     		ldrb	r3, [r3]
 957 006c 002B     		cmp	r3, #0
 958 006e 3AD1     		bne	.L57
 959              	.LBB9:
 483:.\Generated_Source\PSoC4/CYBLE_bls.c ****                 {
 484:.\Generated_Source\PSoC4/CYBLE_bls.c ****                     uint32 eventCode;
 485:.\Generated_Source\PSoC4/CYBLE_bls.c ****                     
 486:.\Generated_Source\PSoC4/CYBLE_bls.c ****                     if(locCharIndex.charIndex == CYBLE_BLS_ICP)
 960              		.loc 1 486 0
 961 0070 3B1C     		mov	r3, r7
 962 0072 0833     		add	r3, r3, #8
 963 0074 9B78     		ldrb	r3, [r3, #2]
 964 0076 012B     		cmp	r3, #1
 965 0078 13D1     		bne	.L58
 487:.\Generated_Source\PSoC4/CYBLE_bls.c ****                     {
 488:.\Generated_Source\PSoC4/CYBLE_bls.c ****                         if(CYBLE_IS_NOTIFICATION_ENABLED_IN_PTR(eventParam->handleValPair.value.val
 966              		.loc 1 488 0
 967 007a 7B68     		ldr	r3, [r7, #4]
 968 007c 5B68     		ldr	r3, [r3, #4]
 969 007e 181C     		mov	r0, r3
 970 0080 FFF7FEFF 		bl	CyBle_Get16ByPtr
 971 0084 031C     		mov	r3, r0
 972 0086 1A1C     		mov	r2, r3
 973 0088 0123     		mov	r3, #1
 974 008a 1340     		and	r3, r2
 975 008c 9BB2     		uxth	r3, r3
 976 008e 002B     		cmp	r3, #0
 977 0090 03D0     		beq	.L59
 489:.\Generated_Source\PSoC4/CYBLE_bls.c ****                         {
 490:.\Generated_Source\PSoC4/CYBLE_bls.c ****                             eventCode = (uint32) CYBLE_EVT_BLSS_NOTIFICATION_ENABLED;
 978              		.loc 1 490 0
 979 0092 2423     		mov	r3, #36
 980 0094 FF33     		add	r3, r3, #255
 981 0096 3B61     		str	r3, [r7, #16]
 982 0098 16E0     		b	.L61
 983              	.L59:
 491:.\Generated_Source\PSoC4/CYBLE_bls.c ****                         }
 492:.\Generated_Source\PSoC4/CYBLE_bls.c ****                         else
 493:.\Generated_Source\PSoC4/CYBLE_bls.c ****                         {
 494:.\Generated_Source\PSoC4/CYBLE_bls.c ****                             eventCode = (uint32) CYBLE_EVT_BLSS_NOTIFICATION_DISABLED;
 984              		.loc 1 494 0
 985 009a 9223     		mov	r3, #146
 986 009c 5B00     		lsl	r3, r3, #1
 987 009e 3B61     		str	r3, [r7, #16]
 988 00a0 12E0     		b	.L61
ARM GAS  C:\Users\jdmoussa\AppData\Local\Temp\cccazBog.s 			page 27


 989              	.L58:
 495:.\Generated_Source\PSoC4/CYBLE_bls.c ****                         }
 496:.\Generated_Source\PSoC4/CYBLE_bls.c ****                     }
 497:.\Generated_Source\PSoC4/CYBLE_bls.c ****                     else
 498:.\Generated_Source\PSoC4/CYBLE_bls.c ****                     {
 499:.\Generated_Source\PSoC4/CYBLE_bls.c ****                         if(CYBLE_IS_INDICATION_ENABLED_IN_PTR(eventParam->handleValPair.value.val))
 990              		.loc 1 499 0
 991 00a2 7B68     		ldr	r3, [r7, #4]
 992 00a4 5B68     		ldr	r3, [r3, #4]
 993 00a6 181C     		mov	r0, r3
 994 00a8 FFF7FEFF 		bl	CyBle_Get16ByPtr
 995 00ac 031C     		mov	r3, r0
 996 00ae 1A1C     		mov	r2, r3
 997 00b0 0223     		mov	r3, #2
 998 00b2 1340     		and	r3, r2
 999 00b4 9BB2     		uxth	r3, r3
 1000 00b6 002B     		cmp	r3, #0
 1001 00b8 03D0     		beq	.L62
 500:.\Generated_Source\PSoC4/CYBLE_bls.c ****                         {
 501:.\Generated_Source\PSoC4/CYBLE_bls.c ****                             eventCode = (uint32) CYBLE_EVT_BLSS_INDICATION_ENABLED;
 1002              		.loc 1 501 0
 1003 00ba 9023     		mov	r3, #144
 1004 00bc 5B00     		lsl	r3, r3, #1
 1005 00be 3B61     		str	r3, [r7, #16]
 1006 00c0 02E0     		b	.L61
 1007              	.L62:
 502:.\Generated_Source\PSoC4/CYBLE_bls.c ****                         }
 503:.\Generated_Source\PSoC4/CYBLE_bls.c ****                         else
 504:.\Generated_Source\PSoC4/CYBLE_bls.c ****                         {
 505:.\Generated_Source\PSoC4/CYBLE_bls.c ****                             eventCode = (uint32) CYBLE_EVT_BLSS_INDICATION_DISABLED;
 1008              		.loc 1 505 0
 1009 00c2 2223     		mov	r3, #34
 1010 00c4 FF33     		add	r3, r3, #255
 1011 00c6 3B61     		str	r3, [r7, #16]
 1012              	.L61:
 506:.\Generated_Source\PSoC4/CYBLE_bls.c ****                         }
 507:.\Generated_Source\PSoC4/CYBLE_bls.c ****                     }
 508:.\Generated_Source\PSoC4/CYBLE_bls.c ****                 #if((CYBLE_GAP_ROLE_PERIPHERAL || CYBLE_GAP_ROLE_CENTRAL) && \
 509:.\Generated_Source\PSoC4/CYBLE_bls.c ****                     (CYBLE_BONDING_REQUIREMENT == CYBLE_BONDING_YES))
 510:.\Generated_Source\PSoC4/CYBLE_bls.c ****                     /* Set flag to store bonding data to flash */
 511:.\Generated_Source\PSoC4/CYBLE_bls.c ****                     cyBle_pendingFlashWrite |= CYBLE_PENDING_CCCD_FLASH_WRITE_BIT;
 1013              		.loc 1 511 0
 1014 00c8 174B     		ldr	r3, .L66+8
 1015 00ca 1B78     		ldrb	r3, [r3]
 1016 00cc 0222     		mov	r2, #2
 1017 00ce 1343     		orr	r3, r2
 1018 00d0 DAB2     		uxtb	r2, r3
 1019 00d2 154B     		ldr	r3, .L66+8
 1020 00d4 1A70     		strb	r2, [r3]
 512:.\Generated_Source\PSoC4/CYBLE_bls.c ****                 #endif /* (CYBLE_BONDING_REQUIREMENT == CYBLE_BONDING_YES) */
 513:.\Generated_Source\PSoC4/CYBLE_bls.c ****                     
 514:.\Generated_Source\PSoC4/CYBLE_bls.c ****                     CyBle_BlsApplCallback(eventCode, &locCharIndex);
 1021              		.loc 1 514 0
 1022 00d6 124B     		ldr	r3, .L66
 1023 00d8 1B68     		ldr	r3, [r3]
 1024 00da 3969     		ldr	r1, [r7, #16]
 1025 00dc 3A1C     		mov	r2, r7
ARM GAS  C:\Users\jdmoussa\AppData\Local\Temp\cccazBog.s 			page 28


 1026 00de 0832     		add	r2, r2, #8
 1027 00e0 081C     		mov	r0, r1
 1028 00e2 111C     		mov	r1, r2
 1029 00e4 9847     		blx	r3
 1030              	.L57:
 1031              	.LBE9:
 515:.\Generated_Source\PSoC4/CYBLE_bls.c ****                 }
 516:.\Generated_Source\PSoC4/CYBLE_bls.c **** 				    
 517:.\Generated_Source\PSoC4/CYBLE_bls.c ****                 cyBle_eventHandlerFlag &= (uint8)~CYBLE_CALLBACK;
 1032              		.loc 1 517 0
 1033 00e6 114B     		ldr	r3, .L66+12
 1034 00e8 1B78     		ldrb	r3, [r3]
 1035 00ea DBB2     		uxtb	r3, r3
 1036 00ec 0122     		mov	r2, #1
 1037 00ee 9343     		bic	r3, r2
 1038 00f0 DAB2     		uxtb	r2, r3
 1039 00f2 0E4B     		ldr	r3, .L66+12
 1040 00f4 1A70     		strb	r2, [r3]
 518:.\Generated_Source\PSoC4/CYBLE_bls.c ****                 break;
 1041              		.loc 1 518 0
 1042 00f6 0CE0     		b	.L54
 1043              	.L56:
 475:.\Generated_Source\PSoC4/CYBLE_bls.c ****         for (locCharIndex.charIndex = CYBLE_BLS_BPM; locCharIndex.charIndex < CYBLE_BLS_BPF; locCha
 1044              		.loc 1 475 0
 1045 00f8 3B1C     		mov	r3, r7
 1046 00fa 0833     		add	r3, r3, #8
 1047 00fc 9B78     		ldrb	r3, [r3, #2]
 1048 00fe 0133     		add	r3, r3, #1
 1049 0100 DAB2     		uxtb	r2, r3
 1050 0102 3B1C     		mov	r3, r7
 1051 0104 0833     		add	r3, r3, #8
 1052 0106 9A70     		strb	r2, [r3, #2]
 1053              	.L55:
 475:.\Generated_Source\PSoC4/CYBLE_bls.c ****         for (locCharIndex.charIndex = CYBLE_BLS_BPM; locCharIndex.charIndex < CYBLE_BLS_BPF; locCha
 1054              		.loc 1 475 0 is_stmt 0 discriminator 1
 1055 0108 3B1C     		mov	r3, r7
 1056 010a 0833     		add	r3, r3, #8
 1057 010c 9B78     		ldrb	r3, [r3, #2]
 1058 010e 012B     		cmp	r3, #1
 1059 0110 91D9     		bls	.L64
 1060              	.L54:
 1061              	.LBE8:
 519:.\Generated_Source\PSoC4/CYBLE_bls.c **** 			}
 520:.\Generated_Source\PSoC4/CYBLE_bls.c ****         }
 521:.\Generated_Source\PSoC4/CYBLE_bls.c ****     }
 522:.\Generated_Source\PSoC4/CYBLE_bls.c **** 
 523:.\Generated_Source\PSoC4/CYBLE_bls.c ****     return (gattErr);
 1062              		.loc 1 523 0 is_stmt 1
 1063 0112 3B1C     		mov	r3, r7
 1064 0114 1733     		add	r3, r3, #23
 1065 0116 1B78     		ldrb	r3, [r3]
 524:.\Generated_Source\PSoC4/CYBLE_bls.c **** }
 1066              		.loc 1 524 0
 1067 0118 181C     		mov	r0, r3
 1068 011a BD46     		mov	sp, r7
 1069 011c 07B0     		add	sp, sp, #28
 1070              		@ sp needed
ARM GAS  C:\Users\jdmoussa\AppData\Local\Temp\cccazBog.s 			page 29


 1071 011e 90BD     		pop	{r4, r7, pc}
 1072              	.L67:
 1073              		.align	2
 1074              	.L66:
 1075 0120 00000000 		.word	CyBle_BlsApplCallback
 1076 0124 00000000 		.word	cyBle_blss
 1077 0128 00000000 		.word	cyBle_pendingFlashWrite
 1078 012c 00000000 		.word	cyBle_eventHandlerFlag
 1079              		.cfi_endproc
 1080              	.LFE10:
 1081              		.size	CyBle_BlssWriteEventHandler, .-CyBle_BlssWriteEventHandler
 1082              		.text
 1083              	.Letext0:
 1084              		.file 2 ".\\Generated_Source\\PSoC4\\cytypes.h"
 1085              		.file 3 ".\\Generated_Source\\PSoC4\\CYBLE_Stack.h"
 1086              		.file 4 ".\\Generated_Source\\PSoC4\\CYBLE_StackGatt.h"
 1087              		.file 5 ".\\Generated_Source\\PSoC4\\CYBLE_StackGattServer.h"
 1088              		.file 6 ".\\Generated_Source\\PSoC4\\CYBLE_StackGattDb.h"
 1089              		.file 7 ".\\Generated_Source\\PSoC4\\CYBLE.h"
 1090              		.file 8 ".\\Generated_Source\\PSoC4\\CYBLE_bls.h"
 1091              		.file 9 ".\\Generated_Source\\PSoC4\\CYBLE_dis.h"
 1092              		.file 10 ".\\Generated_Source\\PSoC4\\CYBLE_eventHandler.h"
 1093              		.file 11 ".\\Generated_Source\\PSoC4\\CYBLE_gatt.h"