ARM GAS  C:\Users\jdmoussa\AppData\Local\Temp\ccusLzHp.s 			page 1


   1              		.cpu cortex-m0
   2              		.fpu softvfp
   3              		.eabi_attribute 20, 1
   4              		.eabi_attribute 21, 1
   5              		.eabi_attribute 23, 3
   6              		.eabi_attribute 24, 1
   7              		.eabi_attribute 25, 1
   8              		.eabi_attribute 26, 1
   9              		.eabi_attribute 30, 6
  10              		.eabi_attribute 34, 0
  11              		.eabi_attribute 18, 4
  12              		.code	16
  13              		.file	"CYBLE_bas.c"
  14              		.text
  15              	.Ltext0:
  16              		.cfi_sections	.debug_frame
  17              		.bss
  18              		.align	2
  19              	CyBle_BasApplCallback:
  20 0000 00000000 		.space	4
  21              		.global	cyBle_bass
  22              		.section	.rodata
  23              		.align	2
  24              		.type	cyBle_bass, %object
  25              		.size	cyBle_bass, 8
  26              	cyBle_bass:
  27 0000 2800     		.short	40
  28 0002 2A00     		.short	42
  29 0004 2B00     		.short	43
  30 0006 2C00     		.short	44
  31              		.section	.text.CyBle_BasInit,"ax",%progbits
  32              		.align	2
  33              		.global	CyBle_BasInit
  34              		.code	16
  35              		.thumb_func
  36              		.type	CyBle_BasInit, %function
  37              	CyBle_BasInit:
  38              	.LFB2:
  39              		.file 1 ".\\Generated_Source\\PSoC4\\CYBLE_bas.c"
   1:.\Generated_Source\PSoC4/CYBLE_bas.c **** /*******************************************************************************
   2:.\Generated_Source\PSoC4/CYBLE_bas.c **** File Name: CYBLE_bas.c
   3:.\Generated_Source\PSoC4/CYBLE_bas.c **** Version 1.20
   4:.\Generated_Source\PSoC4/CYBLE_bas.c **** 
   5:.\Generated_Source\PSoC4/CYBLE_bas.c **** Description:
   6:.\Generated_Source\PSoC4/CYBLE_bas.c ****  Contains the source code for Battery Service.
   7:.\Generated_Source\PSoC4/CYBLE_bas.c **** 
   8:.\Generated_Source\PSoC4/CYBLE_bas.c **** ********************************************************************************
   9:.\Generated_Source\PSoC4/CYBLE_bas.c **** Copyright 2014-2015, Cypress Semiconductor Corporation.  All rights reserved.
  10:.\Generated_Source\PSoC4/CYBLE_bas.c **** You may use this file only in accordance with the license, terms, conditions,
  11:.\Generated_Source\PSoC4/CYBLE_bas.c **** disclaimers, and limitations in the end user license agreement accompanying
  12:.\Generated_Source\PSoC4/CYBLE_bas.c **** the software package with which this file was provided.
  13:.\Generated_Source\PSoC4/CYBLE_bas.c **** *******************************************************************************/
  14:.\Generated_Source\PSoC4/CYBLE_bas.c **** 
  15:.\Generated_Source\PSoC4/CYBLE_bas.c **** 
  16:.\Generated_Source\PSoC4/CYBLE_bas.c **** #include "CYBLE_eventHandler.h"
  17:.\Generated_Source\PSoC4/CYBLE_bas.c **** 
  18:.\Generated_Source\PSoC4/CYBLE_bas.c **** static CYBLE_CALLBACK_T CyBle_BasApplCallback = NULL;
ARM GAS  C:\Users\jdmoussa\AppData\Local\Temp\ccusLzHp.s 			page 2


  19:.\Generated_Source\PSoC4/CYBLE_bas.c **** 
  20:.\Generated_Source\PSoC4/CYBLE_bas.c **** #ifdef CYBLE_BAS_SERVER
  21:.\Generated_Source\PSoC4/CYBLE_bas.c **** 
  22:.\Generated_Source\PSoC4/CYBLE_bas.c **** const CYBLE_BASS_T cyBle_bass[0x01u] = {
  23:.\Generated_Source\PSoC4/CYBLE_bas.c ****     {
  24:.\Generated_Source\PSoC4/CYBLE_bas.c ****         0x0028u, /* Handle of the BAS service */ 
  25:.\Generated_Source\PSoC4/CYBLE_bas.c ****         0x002Au, /* Handle of the Battery Level characteristic */ 
  26:.\Generated_Source\PSoC4/CYBLE_bas.c ****         0x002Bu, /* Handle of the Characteristic Presentation Format descriptor */ 
  27:.\Generated_Source\PSoC4/CYBLE_bas.c ****         0x002Cu, /* Handle of the Client Characteristic Configuration descriptor */ 
  28:.\Generated_Source\PSoC4/CYBLE_bas.c ****     },
  29:.\Generated_Source\PSoC4/CYBLE_bas.c **** };
  30:.\Generated_Source\PSoC4/CYBLE_bas.c **** 
  31:.\Generated_Source\PSoC4/CYBLE_bas.c **** 
  32:.\Generated_Source\PSoC4/CYBLE_bas.c **** #endif /* CYBLE_BAS_SERVER */
  33:.\Generated_Source\PSoC4/CYBLE_bas.c **** 
  34:.\Generated_Source\PSoC4/CYBLE_bas.c **** #ifdef CYBLE_BAS_CLIENT
  35:.\Generated_Source\PSoC4/CYBLE_bas.c **** 
  36:.\Generated_Source\PSoC4/CYBLE_bas.c **** CYBLE_BASC_T cyBle_basc[CYBLE_BASC_SERVICE_COUNT];
  37:.\Generated_Source\PSoC4/CYBLE_bas.c **** static CYBLE_GATT_DB_ATTR_HANDLE_T cyBle_bascReqHandle;
  38:.\Generated_Source\PSoC4/CYBLE_bas.c **** 
  39:.\Generated_Source\PSoC4/CYBLE_bas.c **** #endif /* (CYBLE_BAS_CLIENT) */
  40:.\Generated_Source\PSoC4/CYBLE_bas.c **** 
  41:.\Generated_Source\PSoC4/CYBLE_bas.c **** 
  42:.\Generated_Source\PSoC4/CYBLE_bas.c **** /******************************************************************************
  43:.\Generated_Source\PSoC4/CYBLE_bas.c **** ##Function Name: CyBle_BasInit
  44:.\Generated_Source\PSoC4/CYBLE_bas.c **** *******************************************************************************
  45:.\Generated_Source\PSoC4/CYBLE_bas.c **** 
  46:.\Generated_Source\PSoC4/CYBLE_bas.c **** Summary:
  47:.\Generated_Source\PSoC4/CYBLE_bas.c ****  This function initializes the BAS Service.
  48:.\Generated_Source\PSoC4/CYBLE_bas.c **** 
  49:.\Generated_Source\PSoC4/CYBLE_bas.c **** Parameters:
  50:.\Generated_Source\PSoC4/CYBLE_bas.c ****  None
  51:.\Generated_Source\PSoC4/CYBLE_bas.c **** 
  52:.\Generated_Source\PSoC4/CYBLE_bas.c **** Return:
  53:.\Generated_Source\PSoC4/CYBLE_bas.c ****  None
  54:.\Generated_Source\PSoC4/CYBLE_bas.c **** 
  55:.\Generated_Source\PSoC4/CYBLE_bas.c **** ******************************************************************************/
  56:.\Generated_Source\PSoC4/CYBLE_bas.c **** void CyBle_BasInit(void)
  57:.\Generated_Source\PSoC4/CYBLE_bas.c **** {
  40              		.loc 1 57 0
  41              		.cfi_startproc
  42 0000 80B5     		push	{r7, lr}
  43              		.cfi_def_cfa_offset 8
  44              		.cfi_offset 7, -8
  45              		.cfi_offset 14, -4
  46 0002 00AF     		add	r7, sp, #0
  47              		.cfi_def_cfa_register 7
  58:.\Generated_Source\PSoC4/CYBLE_bas.c **** 
  59:.\Generated_Source\PSoC4/CYBLE_bas.c **** #ifdef CYBLE_BAS_CLIENT
  60:.\Generated_Source\PSoC4/CYBLE_bas.c **** 
  61:.\Generated_Source\PSoC4/CYBLE_bas.c ****     (void)memset(&cyBle_basc, 0, sizeof(cyBle_basc));
  62:.\Generated_Source\PSoC4/CYBLE_bas.c ****     cyBle_bascReqHandle = CYBLE_GATT_INVALID_ATTR_HANDLE_VALUE;
  63:.\Generated_Source\PSoC4/CYBLE_bas.c **** 
  64:.\Generated_Source\PSoC4/CYBLE_bas.c **** #endif /* CYBLE_BAS_CLIENT */
  65:.\Generated_Source\PSoC4/CYBLE_bas.c **** }
  48              		.loc 1 65 0
  49 0004 BD46     		mov	sp, r7
ARM GAS  C:\Users\jdmoussa\AppData\Local\Temp\ccusLzHp.s 			page 3


  50              		@ sp needed
  51 0006 80BD     		pop	{r7, pc}
  52              		.cfi_endproc
  53              	.LFE2:
  54              		.size	CyBle_BasInit, .-CyBle_BasInit
  55              		.section	.text.CyBle_BasRegisterAttrCallback,"ax",%progbits
  56              		.align	2
  57              		.global	CyBle_BasRegisterAttrCallback
  58              		.code	16
  59              		.thumb_func
  60              		.type	CyBle_BasRegisterAttrCallback, %function
  61              	CyBle_BasRegisterAttrCallback:
  62              	.LFB3:
  66:.\Generated_Source\PSoC4/CYBLE_bas.c **** 
  67:.\Generated_Source\PSoC4/CYBLE_bas.c **** 
  68:.\Generated_Source\PSoC4/CYBLE_bas.c **** /******************************************************************************
  69:.\Generated_Source\PSoC4/CYBLE_bas.c **** ##Function Name: CyBle_BasRegisterAttrCallback
  70:.\Generated_Source\PSoC4/CYBLE_bas.c **** *******************************************************************************
  71:.\Generated_Source\PSoC4/CYBLE_bas.c **** 
  72:.\Generated_Source\PSoC4/CYBLE_bas.c **** Summary:
  73:.\Generated_Source\PSoC4/CYBLE_bas.c ****  Registers a callback function for service specific attribute operations.
  74:.\Generated_Source\PSoC4/CYBLE_bas.c **** 
  75:.\Generated_Source\PSoC4/CYBLE_bas.c **** Parameters:
  76:.\Generated_Source\PSoC4/CYBLE_bas.c ****  callbackFunc: An application layer event callback function to receive 
  77:.\Generated_Source\PSoC4/CYBLE_bas.c ****                    battery service events from the BLE Component. The
  78:.\Generated_Source\PSoC4/CYBLE_bas.c ****                    definition of CYBLE_CALLBACK_T for Battery Service is, 
  79:.\Generated_Source\PSoC4/CYBLE_bas.c ****                    
  80:.\Generated_Source\PSoC4/CYBLE_bas.c ****                    typedef void (* CYBLE_CALLBACK_T) (uint32 eventCode, 
  81:.\Generated_Source\PSoC4/CYBLE_bas.c ****                                                         void *eventParam)
  82:.\Generated_Source\PSoC4/CYBLE_bas.c ****                                                         
  83:.\Generated_Source\PSoC4/CYBLE_bas.c ****                    * eventCode indicates the event that triggered this 
  84:.\Generated_Source\PSoC4/CYBLE_bas.c ****                       callback (e.g. CYBLE_EVT_BASS_NOTIFICATION_ENABLED)
  85:.\Generated_Source\PSoC4/CYBLE_bas.c ****                    * eventParam contains the parameters corresponding to the
  86:.\Generated_Source\PSoC4/CYBLE_bas.c ****                       current event (e.g., pointer to CYBLE_BAS_CHAR_VALUE_T
  87:.\Generated_Source\PSoC4/CYBLE_bas.c ****                       structure that contains details of the characteristic 
  88:.\Generated_Source\PSoC4/CYBLE_bas.c ****                       for which notification enabled event was triggered)
  89:.\Generated_Source\PSoC4/CYBLE_bas.c **** 
  90:.\Generated_Source\PSoC4/CYBLE_bas.c **** Return:
  91:.\Generated_Source\PSoC4/CYBLE_bas.c ****  None
  92:.\Generated_Source\PSoC4/CYBLE_bas.c **** 
  93:.\Generated_Source\PSoC4/CYBLE_bas.c **** Side Effects: The *eventParams in the callback function should not be used 
  94:.\Generated_Source\PSoC4/CYBLE_bas.c ****                by the application once the callback function execution is 
  95:.\Generated_Source\PSoC4/CYBLE_bas.c ****                finished. Otherwise this data may become corrupted.
  96:.\Generated_Source\PSoC4/CYBLE_bas.c **** 
  97:.\Generated_Source\PSoC4/CYBLE_bas.c **** ******************************************************************************/
  98:.\Generated_Source\PSoC4/CYBLE_bas.c **** void CyBle_BasRegisterAttrCallback(CYBLE_CALLBACK_T callbackFunc)
  99:.\Generated_Source\PSoC4/CYBLE_bas.c **** {
  63              		.loc 1 99 0
  64              		.cfi_startproc
  65 0000 80B5     		push	{r7, lr}
  66              		.cfi_def_cfa_offset 8
  67              		.cfi_offset 7, -8
  68              		.cfi_offset 14, -4
  69 0002 82B0     		sub	sp, sp, #8
  70              		.cfi_def_cfa_offset 16
  71 0004 00AF     		add	r7, sp, #0
  72              		.cfi_def_cfa_register 7
ARM GAS  C:\Users\jdmoussa\AppData\Local\Temp\ccusLzHp.s 			page 4


  73 0006 7860     		str	r0, [r7, #4]
 100:.\Generated_Source\PSoC4/CYBLE_bas.c ****     CyBle_BasApplCallback = callbackFunc;
  74              		.loc 1 100 0
  75 0008 024B     		ldr	r3, .L3
  76 000a 7A68     		ldr	r2, [r7, #4]
  77 000c 1A60     		str	r2, [r3]
 101:.\Generated_Source\PSoC4/CYBLE_bas.c **** }
  78              		.loc 1 101 0
  79 000e BD46     		mov	sp, r7
  80 0010 02B0     		add	sp, sp, #8
  81              		@ sp needed
  82 0012 80BD     		pop	{r7, pc}
  83              	.L4:
  84              		.align	2
  85              	.L3:
  86 0014 00000000 		.word	CyBle_BasApplCallback
  87              		.cfi_endproc
  88              	.LFE3:
  89              		.size	CyBle_BasRegisterAttrCallback, .-CyBle_BasRegisterAttrCallback
  90              		.section	.text.CyBle_BassSetCharacteristicValue,"ax",%progbits
  91              		.align	2
  92              		.global	CyBle_BassSetCharacteristicValue
  93              		.code	16
  94              		.thumb_func
  95              		.type	CyBle_BassSetCharacteristicValue, %function
  96              	CyBle_BassSetCharacteristicValue:
  97              	.LFB4:
 102:.\Generated_Source\PSoC4/CYBLE_bas.c **** 
 103:.\Generated_Source\PSoC4/CYBLE_bas.c **** #ifdef CYBLE_BAS_SERVER
 104:.\Generated_Source\PSoC4/CYBLE_bas.c **** 
 105:.\Generated_Source\PSoC4/CYBLE_bas.c **** 
 106:.\Generated_Source\PSoC4/CYBLE_bas.c **** /******************************************************************************
 107:.\Generated_Source\PSoC4/CYBLE_bas.c **** ##Function Name: CyBle_BassSetCharacteristicValue
 108:.\Generated_Source\PSoC4/CYBLE_bas.c **** *******************************************************************************
 109:.\Generated_Source\PSoC4/CYBLE_bas.c **** 
 110:.\Generated_Source\PSoC4/CYBLE_bas.c **** Summary:
 111:.\Generated_Source\PSoC4/CYBLE_bas.c ****  Sets a characteristic value of the service in the local database.
 112:.\Generated_Source\PSoC4/CYBLE_bas.c **** 
 113:.\Generated_Source\PSoC4/CYBLE_bas.c **** Parameters:
 114:.\Generated_Source\PSoC4/CYBLE_bas.c ****  serviceIndex: The index of the service instance.
 115:.\Generated_Source\PSoC4/CYBLE_bas.c ****  charIndex: The index of the service characteristic of type 
 116:.\Generated_Source\PSoC4/CYBLE_bas.c ****              CYBLE_BAS_CHAR_INDEX_T.
 117:.\Generated_Source\PSoC4/CYBLE_bas.c ****  attrSize: The size of the characteristic value attribute. A battery level
 118:.\Generated_Source\PSoC4/CYBLE_bas.c ****             characteristic has 1 byte length.
 119:.\Generated_Source\PSoC4/CYBLE_bas.c ****  *attrValue: The pointer to the characteristic value data that should be
 120:.\Generated_Source\PSoC4/CYBLE_bas.c ****               stored to the GATT database.
 121:.\Generated_Source\PSoC4/CYBLE_bas.c **** 
 122:.\Generated_Source\PSoC4/CYBLE_bas.c **** Return:
 123:.\Generated_Source\PSoC4/CYBLE_bas.c ****  Return value is of type CYBLE_API_RESULT_T.
 124:.\Generated_Source\PSoC4/CYBLE_bas.c ****  * CYBLE_ERROR_OK - The request handled successfully
 125:.\Generated_Source\PSoC4/CYBLE_bas.c ****  * CYBLE_ERROR_INVALID_PARAMETER - Validation of the input parameter failed
 126:.\Generated_Source\PSoC4/CYBLE_bas.c **** 
 127:.\Generated_Source\PSoC4/CYBLE_bas.c **** ******************************************************************************/
 128:.\Generated_Source\PSoC4/CYBLE_bas.c **** CYBLE_API_RESULT_T CyBle_BassSetCharacteristicValue(uint8 serviceIndex, CYBLE_BAS_CHAR_INDEX_T char
 129:.\Generated_Source\PSoC4/CYBLE_bas.c ****     uint8 attrSize, uint8 *attrValue)
 130:.\Generated_Source\PSoC4/CYBLE_bas.c **** {
  98              		.loc 1 130 0
ARM GAS  C:\Users\jdmoussa\AppData\Local\Temp\ccusLzHp.s 			page 5


  99              		.cfi_startproc
 100 0000 80B5     		push	{r7, lr}
 101              		.cfi_def_cfa_offset 8
 102              		.cfi_offset 7, -8
 103              		.cfi_offset 14, -4
 104 0002 86B0     		sub	sp, sp, #24
 105              		.cfi_def_cfa_offset 32
 106 0004 00AF     		add	r7, sp, #0
 107              		.cfi_def_cfa_register 7
 108 0006 3B60     		str	r3, [r7]
 109 0008 FB1D     		add	r3, r7, #7
 110 000a 1870     		strb	r0, [r3]
 111 000c BB1D     		add	r3, r7, #6
 112 000e 1970     		strb	r1, [r3]
 113 0010 7B1D     		add	r3, r7, #5
 114 0012 1A70     		strb	r2, [r3]
 131:.\Generated_Source\PSoC4/CYBLE_bas.c ****     CYBLE_API_RESULT_T apiResult = CYBLE_ERROR_OK;
 115              		.loc 1 131 0
 116 0014 3B1C     		mov	r3, r7
 117 0016 1633     		add	r3, r3, #22
 118 0018 0022     		mov	r2, #0
 119 001a 1A80     		strh	r2, [r3]
 132:.\Generated_Source\PSoC4/CYBLE_bas.c ****     CYBLE_GATT_HANDLE_VALUE_PAIR_T locHandleValuePair;
 133:.\Generated_Source\PSoC4/CYBLE_bas.c **** 
 134:.\Generated_Source\PSoC4/CYBLE_bas.c ****     if((serviceIndex >= CYBLE_BASS_SERVICE_COUNT) || (charIndex >= CYBLE_BAS_CHAR_COUNT) ||
 120              		.loc 1 134 0
 121 001c FB1D     		add	r3, r7, #7
 122 001e 1B78     		ldrb	r3, [r3]
 123 0020 002B     		cmp	r3, #0
 124 0022 0BD1     		bne	.L6
 125              		.loc 1 134 0 is_stmt 0 discriminator 1
 126 0024 BB1D     		add	r3, r7, #6
 127 0026 1B78     		ldrb	r3, [r3]
 128 0028 002B     		cmp	r3, #0
 129 002a 07D1     		bne	.L6
 130 002c 7B1D     		add	r3, r7, #5
 131 002e 1B78     		ldrb	r3, [r3]
 132 0030 012B     		cmp	r3, #1
 133 0032 03D1     		bne	.L6
 135:.\Generated_Source\PSoC4/CYBLE_bas.c ****        (attrSize != CYBLE_BAS_BATTERY_LEVEL_LEN) || (*attrValue > CYBLE_BAS_MAX_BATTERY_LEVEL_VALUE
 134              		.loc 1 135 0 is_stmt 1
 135 0034 3B68     		ldr	r3, [r7]
 136 0036 1B78     		ldrb	r3, [r3]
 137 0038 642B     		cmp	r3, #100
 138 003a 04D9     		bls	.L7
 139              	.L6:
 136:.\Generated_Source\PSoC4/CYBLE_bas.c ****     {
 137:.\Generated_Source\PSoC4/CYBLE_bas.c ****         apiResult = CYBLE_ERROR_INVALID_PARAMETER;
 140              		.loc 1 137 0
 141 003c 3B1C     		mov	r3, r7
 142 003e 1633     		add	r3, r3, #22
 143 0040 0122     		mov	r2, #1
 144 0042 1A80     		strh	r2, [r3]
 145 0044 21E0     		b	.L8
 146              	.L7:
 138:.\Generated_Source\PSoC4/CYBLE_bas.c ****     }
 139:.\Generated_Source\PSoC4/CYBLE_bas.c ****     else
ARM GAS  C:\Users\jdmoussa\AppData\Local\Temp\ccusLzHp.s 			page 6


 140:.\Generated_Source\PSoC4/CYBLE_bas.c ****     {
 141:.\Generated_Source\PSoC4/CYBLE_bas.c ****         /* Store data in database */
 142:.\Generated_Source\PSoC4/CYBLE_bas.c ****         locHandleValuePair.attrHandle = cyBle_bass[serviceIndex].batteryLevelHandle;
 147              		.loc 1 142 0
 148 0046 FB1D     		add	r3, r7, #7
 149 0048 1B78     		ldrb	r3, [r3]
 150 004a 134A     		ldr	r2, .L10
 151 004c DB00     		lsl	r3, r3, #3
 152 004e D318     		add	r3, r2, r3
 153 0050 5A88     		ldrh	r2, [r3, #2]
 154 0052 3B1C     		mov	r3, r7
 155 0054 0833     		add	r3, r3, #8
 156 0056 1A81     		strh	r2, [r3, #8]
 143:.\Generated_Source\PSoC4/CYBLE_bas.c ****         locHandleValuePair.value.len = attrSize;
 157              		.loc 1 143 0
 158 0058 7B1D     		add	r3, r7, #5
 159 005a 1B78     		ldrb	r3, [r3]
 160 005c 9AB2     		uxth	r2, r3
 161 005e 3B1C     		mov	r3, r7
 162 0060 0833     		add	r3, r3, #8
 163 0062 9A80     		strh	r2, [r3, #4]
 144:.\Generated_Source\PSoC4/CYBLE_bas.c ****         locHandleValuePair.value.val = attrValue;
 164              		.loc 1 144 0
 165 0064 3B1C     		mov	r3, r7
 166 0066 0833     		add	r3, r3, #8
 167 0068 3A68     		ldr	r2, [r7]
 168 006a 1A60     		str	r2, [r3]
 145:.\Generated_Source\PSoC4/CYBLE_bas.c ****         if(CYBLE_GATT_ERR_NONE !=
 146:.\Generated_Source\PSoC4/CYBLE_bas.c ****             CyBle_GattsWriteAttributeValue(&locHandleValuePair, 0u, NULL, CYBLE_GATT_DB_LOCALLY_INI
 169              		.loc 1 146 0
 170 006c 3B1C     		mov	r3, r7
 171 006e 0833     		add	r3, r3, #8
 172 0070 181C     		mov	r0, r3
 173 0072 0021     		mov	r1, #0
 174 0074 0022     		mov	r2, #0
 175 0076 0023     		mov	r3, #0
 176 0078 FFF7FEFF 		bl	CyBle_GattsWriteAttributeValue
 177 007c 031C     		mov	r3, r0
 145:.\Generated_Source\PSoC4/CYBLE_bas.c ****         if(CYBLE_GATT_ERR_NONE !=
 178              		.loc 1 145 0
 179 007e 002B     		cmp	r3, #0
 180 0080 03D0     		beq	.L8
 147:.\Generated_Source\PSoC4/CYBLE_bas.c ****         {
 148:.\Generated_Source\PSoC4/CYBLE_bas.c ****             apiResult = CYBLE_ERROR_INVALID_PARAMETER;
 181              		.loc 1 148 0
 182 0082 3B1C     		mov	r3, r7
 183 0084 1633     		add	r3, r3, #22
 184 0086 0122     		mov	r2, #1
 185 0088 1A80     		strh	r2, [r3]
 186              	.L8:
 149:.\Generated_Source\PSoC4/CYBLE_bas.c ****         }
 150:.\Generated_Source\PSoC4/CYBLE_bas.c ****     }
 151:.\Generated_Source\PSoC4/CYBLE_bas.c ****     return (apiResult);
 187              		.loc 1 151 0
 188 008a 3B1C     		mov	r3, r7
 189 008c 1633     		add	r3, r3, #22
 190 008e 1B88     		ldrh	r3, [r3]
ARM GAS  C:\Users\jdmoussa\AppData\Local\Temp\ccusLzHp.s 			page 7


 152:.\Generated_Source\PSoC4/CYBLE_bas.c **** }
 191              		.loc 1 152 0
 192 0090 181C     		mov	r0, r3
 193 0092 BD46     		mov	sp, r7
 194 0094 06B0     		add	sp, sp, #24
 195              		@ sp needed
 196 0096 80BD     		pop	{r7, pc}
 197              	.L11:
 198              		.align	2
 199              	.L10:
 200 0098 00000000 		.word	cyBle_bass
 201              		.cfi_endproc
 202              	.LFE4:
 203              		.size	CyBle_BassSetCharacteristicValue, .-CyBle_BassSetCharacteristicValue
 204              		.section	.text.CyBle_BassGetCharacteristicValue,"ax",%progbits
 205              		.align	2
 206              		.global	CyBle_BassGetCharacteristicValue
 207              		.code	16
 208              		.thumb_func
 209              		.type	CyBle_BassGetCharacteristicValue, %function
 210              	CyBle_BassGetCharacteristicValue:
 211              	.LFB5:
 153:.\Generated_Source\PSoC4/CYBLE_bas.c **** 
 154:.\Generated_Source\PSoC4/CYBLE_bas.c **** 
 155:.\Generated_Source\PSoC4/CYBLE_bas.c **** /******************************************************************************
 156:.\Generated_Source\PSoC4/CYBLE_bas.c **** ##Function Name: CyBle_BassGetCharacteristicValue
 157:.\Generated_Source\PSoC4/CYBLE_bas.c **** *******************************************************************************
 158:.\Generated_Source\PSoC4/CYBLE_bas.c **** 
 159:.\Generated_Source\PSoC4/CYBLE_bas.c **** Summary:
 160:.\Generated_Source\PSoC4/CYBLE_bas.c ****  Gets a characteristic value of the Battery service, which is identified by 
 161:.\Generated_Source\PSoC4/CYBLE_bas.c ****  charIndex.
 162:.\Generated_Source\PSoC4/CYBLE_bas.c **** 
 163:.\Generated_Source\PSoC4/CYBLE_bas.c **** Parameters:
 164:.\Generated_Source\PSoC4/CYBLE_bas.c ****  serviceIndex: The index of the service instance. e.g. If two Battery Services
 165:.\Generated_Source\PSoC4/CYBLE_bas.c ****                 are supported in your design, then first service will be 
 166:.\Generated_Source\PSoC4/CYBLE_bas.c ****                 identified by serviceIndex of 0 and the second by serviceIndex
 167:.\Generated_Source\PSoC4/CYBLE_bas.c ****                 of 1.
 168:.\Generated_Source\PSoC4/CYBLE_bas.c ****  charIndex: The index of a service characteristic of type CYBLE_BAS_CHAR_INDEX_T.
 169:.\Generated_Source\PSoC4/CYBLE_bas.c ****  attrSize: The size of the characteristic value attribute. A battery level
 170:.\Generated_Source\PSoC4/CYBLE_bas.c ****             characteristic has a 1 byte length.
 171:.\Generated_Source\PSoC4/CYBLE_bas.c ****  *attrValue: The pointer to the location where characteristic value data
 172:.\Generated_Source\PSoC4/CYBLE_bas.c ****               should be stored.
 173:.\Generated_Source\PSoC4/CYBLE_bas.c **** 
 174:.\Generated_Source\PSoC4/CYBLE_bas.c **** Return:
 175:.\Generated_Source\PSoC4/CYBLE_bas.c ****  Return value is of type CYBLE_API_RESULT_T.
 176:.\Generated_Source\PSoC4/CYBLE_bas.c ****  * CYBLE_ERROR_OK - The request handled successfully
 177:.\Generated_Source\PSoC4/CYBLE_bas.c ****  * CYBLE_ERROR_INVALID_PARAMETER - Validation of the input parameter failed
 178:.\Generated_Source\PSoC4/CYBLE_bas.c **** 
 179:.\Generated_Source\PSoC4/CYBLE_bas.c **** ******************************************************************************/
 180:.\Generated_Source\PSoC4/CYBLE_bas.c **** CYBLE_API_RESULT_T CyBle_BassGetCharacteristicValue(uint8 serviceIndex, CYBLE_BAS_CHAR_INDEX_T char
 181:.\Generated_Source\PSoC4/CYBLE_bas.c ****     uint8 attrSize, uint8 *attrValue)
 182:.\Generated_Source\PSoC4/CYBLE_bas.c **** {
 212              		.loc 1 182 0
 213              		.cfi_startproc
 214 0000 80B5     		push	{r7, lr}
 215              		.cfi_def_cfa_offset 8
 216              		.cfi_offset 7, -8
ARM GAS  C:\Users\jdmoussa\AppData\Local\Temp\ccusLzHp.s 			page 8


 217              		.cfi_offset 14, -4
 218 0002 86B0     		sub	sp, sp, #24
 219              		.cfi_def_cfa_offset 32
 220 0004 00AF     		add	r7, sp, #0
 221              		.cfi_def_cfa_register 7
 222 0006 3B60     		str	r3, [r7]
 223 0008 FB1D     		add	r3, r7, #7
 224 000a 1870     		strb	r0, [r3]
 225 000c BB1D     		add	r3, r7, #6
 226 000e 1970     		strb	r1, [r3]
 227 0010 7B1D     		add	r3, r7, #5
 228 0012 1A70     		strb	r2, [r3]
 183:.\Generated_Source\PSoC4/CYBLE_bas.c ****     CYBLE_API_RESULT_T apiResult = CYBLE_ERROR_OK;
 229              		.loc 1 183 0
 230 0014 3B1C     		mov	r3, r7
 231 0016 1633     		add	r3, r3, #22
 232 0018 0022     		mov	r2, #0
 233 001a 1A80     		strh	r2, [r3]
 184:.\Generated_Source\PSoC4/CYBLE_bas.c ****     CYBLE_GATT_HANDLE_VALUE_PAIR_T locHandleValuePair;
 185:.\Generated_Source\PSoC4/CYBLE_bas.c **** 
 186:.\Generated_Source\PSoC4/CYBLE_bas.c ****     if((serviceIndex >= CYBLE_BASS_SERVICE_COUNT) || (charIndex >= CYBLE_BAS_CHAR_COUNT) ||
 234              		.loc 1 186 0
 235 001c FB1D     		add	r3, r7, #7
 236 001e 1B78     		ldrb	r3, [r3]
 237 0020 002B     		cmp	r3, #0
 238 0022 07D1     		bne	.L13
 239              		.loc 1 186 0 is_stmt 0 discriminator 1
 240 0024 BB1D     		add	r3, r7, #6
 241 0026 1B78     		ldrb	r3, [r3]
 242 0028 002B     		cmp	r3, #0
 243 002a 03D1     		bne	.L13
 244 002c 7B1D     		add	r3, r7, #5
 245 002e 1B78     		ldrb	r3, [r3]
 246 0030 012B     		cmp	r3, #1
 247 0032 04D0     		beq	.L14
 248              	.L13:
 187:.\Generated_Source\PSoC4/CYBLE_bas.c ****        (attrSize != CYBLE_BAS_BATTERY_LEVEL_LEN) )
 188:.\Generated_Source\PSoC4/CYBLE_bas.c ****     {
 189:.\Generated_Source\PSoC4/CYBLE_bas.c ****         apiResult = CYBLE_ERROR_INVALID_PARAMETER;
 249              		.loc 1 189 0 is_stmt 1
 250 0034 3B1C     		mov	r3, r7
 251 0036 1633     		add	r3, r3, #22
 252 0038 0122     		mov	r2, #1
 253 003a 1A80     		strh	r2, [r3]
 254 003c 20E0     		b	.L15
 255              	.L14:
 190:.\Generated_Source\PSoC4/CYBLE_bas.c ****     }
 191:.\Generated_Source\PSoC4/CYBLE_bas.c ****     else
 192:.\Generated_Source\PSoC4/CYBLE_bas.c ****     {
 193:.\Generated_Source\PSoC4/CYBLE_bas.c ****         /* Read characteristic value from database */
 194:.\Generated_Source\PSoC4/CYBLE_bas.c ****         locHandleValuePair.attrHandle = cyBle_bass[serviceIndex].batteryLevelHandle;
 256              		.loc 1 194 0
 257 003e FB1D     		add	r3, r7, #7
 258 0040 1B78     		ldrb	r3, [r3]
 259 0042 134A     		ldr	r2, .L17
 260 0044 DB00     		lsl	r3, r3, #3
 261 0046 D318     		add	r3, r2, r3
ARM GAS  C:\Users\jdmoussa\AppData\Local\Temp\ccusLzHp.s 			page 9


 262 0048 5A88     		ldrh	r2, [r3, #2]
 263 004a 3B1C     		mov	r3, r7
 264 004c 0833     		add	r3, r3, #8
 265 004e 1A81     		strh	r2, [r3, #8]
 195:.\Generated_Source\PSoC4/CYBLE_bas.c ****         locHandleValuePair.value.len = attrSize;
 266              		.loc 1 195 0
 267 0050 7B1D     		add	r3, r7, #5
 268 0052 1B78     		ldrb	r3, [r3]
 269 0054 9AB2     		uxth	r2, r3
 270 0056 3B1C     		mov	r3, r7
 271 0058 0833     		add	r3, r3, #8
 272 005a 9A80     		strh	r2, [r3, #4]
 196:.\Generated_Source\PSoC4/CYBLE_bas.c ****         locHandleValuePair.value.val = attrValue;
 273              		.loc 1 196 0
 274 005c 3B1C     		mov	r3, r7
 275 005e 0833     		add	r3, r3, #8
 276 0060 3A68     		ldr	r2, [r7]
 277 0062 1A60     		str	r2, [r3]
 197:.\Generated_Source\PSoC4/CYBLE_bas.c ****         if(CYBLE_GATT_ERR_NONE !=
 198:.\Generated_Source\PSoC4/CYBLE_bas.c ****             CyBle_GattsReadAttributeValue(&locHandleValuePair, NULL, CYBLE_GATT_DB_LOCALLY_INITIATE
 278              		.loc 1 198 0
 279 0064 3B1C     		mov	r3, r7
 280 0066 0833     		add	r3, r3, #8
 281 0068 181C     		mov	r0, r3
 282 006a 0021     		mov	r1, #0
 283 006c 0022     		mov	r2, #0
 284 006e FFF7FEFF 		bl	CyBle_GattsReadAttributeValue
 285 0072 031C     		mov	r3, r0
 197:.\Generated_Source\PSoC4/CYBLE_bas.c ****         if(CYBLE_GATT_ERR_NONE !=
 286              		.loc 1 197 0
 287 0074 002B     		cmp	r3, #0
 288 0076 03D0     		beq	.L15
 199:.\Generated_Source\PSoC4/CYBLE_bas.c ****         {
 200:.\Generated_Source\PSoC4/CYBLE_bas.c ****             apiResult = CYBLE_ERROR_INVALID_PARAMETER;
 289              		.loc 1 200 0
 290 0078 3B1C     		mov	r3, r7
 291 007a 1633     		add	r3, r3, #22
 292 007c 0122     		mov	r2, #1
 293 007e 1A80     		strh	r2, [r3]
 294              	.L15:
 201:.\Generated_Source\PSoC4/CYBLE_bas.c ****         }
 202:.\Generated_Source\PSoC4/CYBLE_bas.c ****     }
 203:.\Generated_Source\PSoC4/CYBLE_bas.c ****     return (apiResult);
 295              		.loc 1 203 0
 296 0080 3B1C     		mov	r3, r7
 297 0082 1633     		add	r3, r3, #22
 298 0084 1B88     		ldrh	r3, [r3]
 204:.\Generated_Source\PSoC4/CYBLE_bas.c **** }
 299              		.loc 1 204 0
 300 0086 181C     		mov	r0, r3
 301 0088 BD46     		mov	sp, r7
 302 008a 06B0     		add	sp, sp, #24
 303              		@ sp needed
 304 008c 80BD     		pop	{r7, pc}
 305              	.L18:
 306 008e C046     		.align	2
 307              	.L17:
ARM GAS  C:\Users\jdmoussa\AppData\Local\Temp\ccusLzHp.s 			page 10


 308 0090 00000000 		.word	cyBle_bass
 309              		.cfi_endproc
 310              	.LFE5:
 311              		.size	CyBle_BassGetCharacteristicValue, .-CyBle_BassGetCharacteristicValue
 312              		.section	.text.CyBle_BassGetCharacteristicDescriptor,"ax",%progbits
 313              		.align	2
 314              		.global	CyBle_BassGetCharacteristicDescriptor
 315              		.code	16
 316              		.thumb_func
 317              		.type	CyBle_BassGetCharacteristicDescriptor, %function
 318              	CyBle_BassGetCharacteristicDescriptor:
 319              	.LFB6:
 205:.\Generated_Source\PSoC4/CYBLE_bas.c **** 
 206:.\Generated_Source\PSoC4/CYBLE_bas.c **** 
 207:.\Generated_Source\PSoC4/CYBLE_bas.c **** /******************************************************************************
 208:.\Generated_Source\PSoC4/CYBLE_bas.c **** ##Function Name: CyBle_BassGetCharacteristicDescriptor
 209:.\Generated_Source\PSoC4/CYBLE_bas.c **** *******************************************************************************
 210:.\Generated_Source\PSoC4/CYBLE_bas.c **** 
 211:.\Generated_Source\PSoC4/CYBLE_bas.c **** Summary:
 212:.\Generated_Source\PSoC4/CYBLE_bas.c ****  Gets a characteristic descriptor of a specified characteristic of the 
 213:.\Generated_Source\PSoC4/CYBLE_bas.c ****   Battery service from the local GATT database.
 214:.\Generated_Source\PSoC4/CYBLE_bas.c **** 
 215:.\Generated_Source\PSoC4/CYBLE_bas.c **** Parameters:
 216:.\Generated_Source\PSoC4/CYBLE_bas.c ****  serviceIndex: The index of the service instance. e.g. If two Battery Services
 217:.\Generated_Source\PSoC4/CYBLE_bas.c ****                 are supported in your design, then first service will be 
 218:.\Generated_Source\PSoC4/CYBLE_bas.c ****                 identified by serviceIndex of 0 and the second by serviceIndex
 219:.\Generated_Source\PSoC4/CYBLE_bas.c ****                 of 1.
 220:.\Generated_Source\PSoC4/CYBLE_bas.c ****  charIndex: The index of a service characteristic of type 
 221:.\Generated_Source\PSoC4/CYBLE_bas.c ****              CYBLE_BAS_CHAR_INDEX_T.
 222:.\Generated_Source\PSoC4/CYBLE_bas.c ****  descrIndex: The index of a service characteristic descriptor of type 
 223:.\Generated_Source\PSoC4/CYBLE_bas.c ****               CYBLE_BAS_DESCR_INDEX_T.
 224:.\Generated_Source\PSoC4/CYBLE_bas.c ****  attrSize: The size of the characteristic descriptor attribute.
 225:.\Generated_Source\PSoC4/CYBLE_bas.c ****  *attrValue: The pointer to the location where characteristic descriptor 
 226:.\Generated_Source\PSoC4/CYBLE_bas.c ****               value data should be stored.
 227:.\Generated_Source\PSoC4/CYBLE_bas.c **** 
 228:.\Generated_Source\PSoC4/CYBLE_bas.c **** Return:
 229:.\Generated_Source\PSoC4/CYBLE_bas.c ****  Return value is of type CYBLE_API_RESULT_T.
 230:.\Generated_Source\PSoC4/CYBLE_bas.c ****  * CYBLE_ERROR_OK - The request handled successfully
 231:.\Generated_Source\PSoC4/CYBLE_bas.c ****  * CYBLE_ERROR_INVALID_PARAMETER - Validation of the input parameter failed
 232:.\Generated_Source\PSoC4/CYBLE_bas.c **** 
 233:.\Generated_Source\PSoC4/CYBLE_bas.c **** ******************************************************************************/
 234:.\Generated_Source\PSoC4/CYBLE_bas.c **** CYBLE_API_RESULT_T CyBle_BassGetCharacteristicDescriptor(uint8 serviceIndex, CYBLE_BAS_CHAR_INDEX_T
 235:.\Generated_Source\PSoC4/CYBLE_bas.c ****     CYBLE_BAS_DESCR_INDEX_T descrIndex, uint8 attrSize, uint8 *attrValue)
 236:.\Generated_Source\PSoC4/CYBLE_bas.c **** {
 320              		.loc 1 236 0
 321              		.cfi_startproc
 322 0000 90B5     		push	{r4, r7, lr}
 323              		.cfi_def_cfa_offset 12
 324              		.cfi_offset 4, -12
 325              		.cfi_offset 7, -8
 326              		.cfi_offset 14, -4
 327 0002 87B0     		sub	sp, sp, #28
 328              		.cfi_def_cfa_offset 40
 329 0004 00AF     		add	r7, sp, #0
 330              		.cfi_def_cfa_register 7
 331 0006 041C     		mov	r4, r0
 332 0008 081C     		mov	r0, r1
ARM GAS  C:\Users\jdmoussa\AppData\Local\Temp\ccusLzHp.s 			page 11


 333 000a 111C     		mov	r1, r2
 334 000c 1A1C     		mov	r2, r3
 335 000e FB1D     		add	r3, r7, #7
 336 0010 1C70     		strb	r4, [r3]
 337 0012 BB1D     		add	r3, r7, #6
 338 0014 1870     		strb	r0, [r3]
 339 0016 7B1D     		add	r3, r7, #5
 340 0018 1970     		strb	r1, [r3]
 341 001a 3B1D     		add	r3, r7, #4
 342 001c 1A70     		strb	r2, [r3]
 237:.\Generated_Source\PSoC4/CYBLE_bas.c ****     CYBLE_API_RESULT_T apiResult = CYBLE_ERROR_OK;
 343              		.loc 1 237 0
 344 001e 3B1C     		mov	r3, r7
 345 0020 1633     		add	r3, r3, #22
 346 0022 0022     		mov	r2, #0
 347 0024 1A80     		strh	r2, [r3]
 238:.\Generated_Source\PSoC4/CYBLE_bas.c ****     CYBLE_GATT_HANDLE_VALUE_PAIR_T locHandleValuePair;
 239:.\Generated_Source\PSoC4/CYBLE_bas.c **** 
 240:.\Generated_Source\PSoC4/CYBLE_bas.c ****     if((serviceIndex >= CYBLE_BASS_SERVICE_COUNT) || (charIndex >= CYBLE_BAS_CHAR_COUNT) ||
 348              		.loc 1 240 0
 349 0026 FB1D     		add	r3, r7, #7
 350 0028 1B78     		ldrb	r3, [r3]
 351 002a 002B     		cmp	r3, #0
 352 002c 07D1     		bne	.L20
 353              		.loc 1 240 0 is_stmt 0 discriminator 1
 354 002e BB1D     		add	r3, r7, #6
 355 0030 1B78     		ldrb	r3, [r3]
 356 0032 002B     		cmp	r3, #0
 357 0034 03D1     		bne	.L20
 358 0036 7B1D     		add	r3, r7, #5
 359 0038 1B78     		ldrb	r3, [r3]
 360 003a 012B     		cmp	r3, #1
 361 003c 04D9     		bls	.L21
 362              	.L20:
 241:.\Generated_Source\PSoC4/CYBLE_bas.c ****        (descrIndex >= CYBLE_BAS_DESCR_COUNT))
 242:.\Generated_Source\PSoC4/CYBLE_bas.c ****     {
 243:.\Generated_Source\PSoC4/CYBLE_bas.c ****         apiResult = CYBLE_ERROR_INVALID_PARAMETER;
 363              		.loc 1 243 0 is_stmt 1
 364 003e 3B1C     		mov	r3, r7
 365 0040 1633     		add	r3, r3, #22
 366 0042 0122     		mov	r2, #1
 367 0044 1A80     		strh	r2, [r3]
 368 0046 29E0     		b	.L22
 369              	.L21:
 244:.\Generated_Source\PSoC4/CYBLE_bas.c ****     }
 245:.\Generated_Source\PSoC4/CYBLE_bas.c ****     else
 246:.\Generated_Source\PSoC4/CYBLE_bas.c ****     {
 247:.\Generated_Source\PSoC4/CYBLE_bas.c ****         /* Get data from database */
 248:.\Generated_Source\PSoC4/CYBLE_bas.c ****         if(descrIndex == CYBLE_BAS_BATTERY_LEVEL_CCCD)
 370              		.loc 1 248 0
 371 0048 7B1D     		add	r3, r7, #5
 372 004a 1B78     		ldrb	r3, [r3]
 373 004c 002B     		cmp	r3, #0
 374 004e 04D1     		bne	.L23
 249:.\Generated_Source\PSoC4/CYBLE_bas.c ****         {
 250:.\Generated_Source\PSoC4/CYBLE_bas.c ****             locHandleValuePair.attrHandle = cyBle_bass[serviceIndex].cccdHandle;
 375              		.loc 1 250 0
ARM GAS  C:\Users\jdmoussa\AppData\Local\Temp\ccusLzHp.s 			page 12


 376 0050 2C22     		mov	r2, #44
 377 0052 3B1C     		mov	r3, r7
 378 0054 0833     		add	r3, r3, #8
 379 0056 1A81     		strh	r2, [r3, #8]
 380 0058 08E0     		b	.L24
 381              	.L23:
 251:.\Generated_Source\PSoC4/CYBLE_bas.c ****         }
 252:.\Generated_Source\PSoC4/CYBLE_bas.c ****         else
 253:.\Generated_Source\PSoC4/CYBLE_bas.c ****         {
 254:.\Generated_Source\PSoC4/CYBLE_bas.c ****             locHandleValuePair.attrHandle = cyBle_bass[serviceIndex].cpfdHandle;
 382              		.loc 1 254 0
 383 005a FB1D     		add	r3, r7, #7
 384 005c 1B78     		ldrb	r3, [r3]
 385 005e 134A     		ldr	r2, .L26
 386 0060 DB00     		lsl	r3, r3, #3
 387 0062 D318     		add	r3, r2, r3
 388 0064 9A88     		ldrh	r2, [r3, #4]
 389 0066 3B1C     		mov	r3, r7
 390 0068 0833     		add	r3, r3, #8
 391 006a 1A81     		strh	r2, [r3, #8]
 392              	.L24:
 255:.\Generated_Source\PSoC4/CYBLE_bas.c ****         }
 256:.\Generated_Source\PSoC4/CYBLE_bas.c ****         locHandleValuePair.value.len = attrSize;
 393              		.loc 1 256 0
 394 006c 3B1D     		add	r3, r7, #4
 395 006e 1B78     		ldrb	r3, [r3]
 396 0070 9AB2     		uxth	r2, r3
 397 0072 3B1C     		mov	r3, r7
 398 0074 0833     		add	r3, r3, #8
 399 0076 9A80     		strh	r2, [r3, #4]
 257:.\Generated_Source\PSoC4/CYBLE_bas.c ****         locHandleValuePair.value.val = attrValue;
 400              		.loc 1 257 0
 401 0078 3B1C     		mov	r3, r7
 402 007a 0833     		add	r3, r3, #8
 403 007c BA6A     		ldr	r2, [r7, #40]
 404 007e 1A60     		str	r2, [r3]
 258:.\Generated_Source\PSoC4/CYBLE_bas.c ****         if(CYBLE_GATT_ERR_NONE !=
 259:.\Generated_Source\PSoC4/CYBLE_bas.c ****             CyBle_GattsReadAttributeValue(&locHandleValuePair, NULL, CYBLE_GATT_DB_LOCALLY_INITIATE
 405              		.loc 1 259 0
 406 0080 3B1C     		mov	r3, r7
 407 0082 0833     		add	r3, r3, #8
 408 0084 181C     		mov	r0, r3
 409 0086 0021     		mov	r1, #0
 410 0088 0022     		mov	r2, #0
 411 008a FFF7FEFF 		bl	CyBle_GattsReadAttributeValue
 412 008e 031C     		mov	r3, r0
 258:.\Generated_Source\PSoC4/CYBLE_bas.c ****         if(CYBLE_GATT_ERR_NONE !=
 413              		.loc 1 258 0
 414 0090 002B     		cmp	r3, #0
 415 0092 03D0     		beq	.L22
 260:.\Generated_Source\PSoC4/CYBLE_bas.c ****         {
 261:.\Generated_Source\PSoC4/CYBLE_bas.c ****             apiResult = CYBLE_ERROR_INVALID_PARAMETER;
 416              		.loc 1 261 0
 417 0094 3B1C     		mov	r3, r7
 418 0096 1633     		add	r3, r3, #22
 419 0098 0122     		mov	r2, #1
 420 009a 1A80     		strh	r2, [r3]
ARM GAS  C:\Users\jdmoussa\AppData\Local\Temp\ccusLzHp.s 			page 13


 421              	.L22:
 262:.\Generated_Source\PSoC4/CYBLE_bas.c ****         }
 263:.\Generated_Source\PSoC4/CYBLE_bas.c ****     }
 264:.\Generated_Source\PSoC4/CYBLE_bas.c ****     return (apiResult);
 422              		.loc 1 264 0
 423 009c 3B1C     		mov	r3, r7
 424 009e 1633     		add	r3, r3, #22
 425 00a0 1B88     		ldrh	r3, [r3]
 265:.\Generated_Source\PSoC4/CYBLE_bas.c **** }
 426              		.loc 1 265 0
 427 00a2 181C     		mov	r0, r3
 428 00a4 BD46     		mov	sp, r7
 429 00a6 07B0     		add	sp, sp, #28
 430              		@ sp needed
 431 00a8 90BD     		pop	{r4, r7, pc}
 432              	.L27:
 433 00aa C046     		.align	2
 434              	.L26:
 435 00ac 00000000 		.word	cyBle_bass
 436              		.cfi_endproc
 437              	.LFE6:
 438              		.size	CyBle_BassGetCharacteristicDescriptor, .-CyBle_BassGetCharacteristicDescriptor
 439              		.section	.text.CyBle_BassWriteEventHandler,"ax",%progbits
 440              		.align	2
 441              		.global	CyBle_BassWriteEventHandler
 442              		.code	16
 443              		.thumb_func
 444              		.type	CyBle_BassWriteEventHandler, %function
 445              	CyBle_BassWriteEventHandler:
 446              	.LFB7:
 266:.\Generated_Source\PSoC4/CYBLE_bas.c **** 
 267:.\Generated_Source\PSoC4/CYBLE_bas.c **** 
 268:.\Generated_Source\PSoC4/CYBLE_bas.c **** /******************************************************************************
 269:.\Generated_Source\PSoC4/CYBLE_bas.c **** ##Function Name: CyBle_BassWriteEventHandler
 270:.\Generated_Source\PSoC4/CYBLE_bas.c **** *******************************************************************************
 271:.\Generated_Source\PSoC4/CYBLE_bas.c **** 
 272:.\Generated_Source\PSoC4/CYBLE_bas.c **** Summary:
 273:.\Generated_Source\PSoC4/CYBLE_bas.c ****  Handles the Write Request Event for Battery service.
 274:.\Generated_Source\PSoC4/CYBLE_bas.c **** 
 275:.\Generated_Source\PSoC4/CYBLE_bas.c **** Parameters:
 276:.\Generated_Source\PSoC4/CYBLE_bas.c ****  void *eventParam: the pointer to the data structure specified by the event.
 277:.\Generated_Source\PSoC4/CYBLE_bas.c **** 
 278:.\Generated_Source\PSoC4/CYBLE_bas.c **** Return:
 279:.\Generated_Source\PSoC4/CYBLE_bas.c ****  Return value is of type CYBLE_GATT_ERR_CODE_T.
 280:.\Generated_Source\PSoC4/CYBLE_bas.c ****   * CYBLE_GATT_ERR_NONE - Write request is handled successfully.
 281:.\Generated_Source\PSoC4/CYBLE_bas.c ****   * CYBLE_GATT_ERR_REQUEST_NOT_SUPPORTED - Notification isn't supported.
 282:.\Generated_Source\PSoC4/CYBLE_bas.c ****   * CYBLE_GATT_ERR_UNLIKELY_ERROR - Internal error while writing attribute
 283:.\Generated_Source\PSoC4/CYBLE_bas.c ****                                      value.
 284:.\Generated_Source\PSoC4/CYBLE_bas.c **** 
 285:.\Generated_Source\PSoC4/CYBLE_bas.c **** ******************************************************************************/
 286:.\Generated_Source\PSoC4/CYBLE_bas.c **** CYBLE_GATT_ERR_CODE_T CyBle_BassWriteEventHandler(CYBLE_GATTS_WRITE_REQ_PARAM_T *eventParam)
 287:.\Generated_Source\PSoC4/CYBLE_bas.c **** {
 447              		.loc 1 287 0
 448              		.cfi_startproc
 449 0000 90B5     		push	{r4, r7, lr}
 450              		.cfi_def_cfa_offset 12
 451              		.cfi_offset 4, -12
ARM GAS  C:\Users\jdmoussa\AppData\Local\Temp\ccusLzHp.s 			page 14


 452              		.cfi_offset 7, -8
 453              		.cfi_offset 14, -4
 454 0002 87B0     		sub	sp, sp, #28
 455              		.cfi_def_cfa_offset 40
 456 0004 00AF     		add	r7, sp, #0
 457              		.cfi_def_cfa_register 7
 458 0006 7860     		str	r0, [r7, #4]
 288:.\Generated_Source\PSoC4/CYBLE_bas.c ****     uint8 locServiceIndex = 0u;
 459              		.loc 1 288 0
 460 0008 3B1C     		mov	r3, r7
 461 000a 1733     		add	r3, r3, #23
 462 000c 0022     		mov	r2, #0
 463 000e 1A70     		strb	r2, [r3]
 289:.\Generated_Source\PSoC4/CYBLE_bas.c ****     CYBLE_BAS_CHAR_VALUE_T locCharIndex;
 290:.\Generated_Source\PSoC4/CYBLE_bas.c ****     CYBLE_GATT_ERR_CODE_T gattErr = CYBLE_GATT_ERR_NONE;
 464              		.loc 1 290 0
 465 0010 3B1C     		mov	r3, r7
 466 0012 1633     		add	r3, r3, #22
 467 0014 0022     		mov	r2, #0
 468 0016 1A70     		strb	r2, [r3]
 291:.\Generated_Source\PSoC4/CYBLE_bas.c **** 
 292:.\Generated_Source\PSoC4/CYBLE_bas.c ****     if(NULL != CyBle_BasApplCallback)
 469              		.loc 1 292 0
 470 0018 454B     		ldr	r3, .L38
 471 001a 1B68     		ldr	r3, [r3]
 472 001c 002B     		cmp	r3, #0
 473 001e 00D1     		bne	.LCB395
 474 0020 7EE0     		b	.L29	@long jump
 475              	.LCB395:
 476              	.L36:
 293:.\Generated_Source\PSoC4/CYBLE_bas.c ****     {
 294:.\Generated_Source\PSoC4/CYBLE_bas.c ****         do
 295:.\Generated_Source\PSoC4/CYBLE_bas.c ****         {
 296:.\Generated_Source\PSoC4/CYBLE_bas.c ****             /* Client Characteristic Configuration descriptor write request */
 297:.\Generated_Source\PSoC4/CYBLE_bas.c ****             if(eventParam->handleValPair.attrHandle == cyBle_bass[locServiceIndex].cccdHandle)
 477              		.loc 1 297 0
 478 0022 7B68     		ldr	r3, [r7, #4]
 479 0024 9A89     		ldrh	r2, [r3, #12]
 480 0026 2C23     		mov	r3, #44
 481 0028 9A42     		cmp	r2, r3
 482 002a 6CD1     		bne	.L30
 298:.\Generated_Source\PSoC4/CYBLE_bas.c ****             {
 299:.\Generated_Source\PSoC4/CYBLE_bas.c ****                 /* Verify that optional notification property is enabled for Battery Level characte
 300:.\Generated_Source\PSoC4/CYBLE_bas.c ****                 if(CYBLE_IS_NOTIFICATION_SUPPORTED(cyBle_bass[locServiceIndex].batteryLevelHandle))
 483              		.loc 1 300 0
 484 002c 3B1C     		mov	r3, r7
 485 002e 1733     		add	r3, r3, #23
 486 0030 1B78     		ldrb	r3, [r3]
 487 0032 404A     		ldr	r2, .L38+4
 488 0034 DB00     		lsl	r3, r3, #3
 489 0036 D318     		add	r3, r2, r3
 490 0038 5B88     		ldrh	r3, [r3, #2]
 491 003a 5A1E     		sub	r2, r3, #1
 492 003c 3E49     		ldr	r1, .L38+8
 493 003e 131C     		mov	r3, r2
 494 0040 9B00     		lsl	r3, r3, #2
 495 0042 9B18     		add	r3, r3, r2
ARM GAS  C:\Users\jdmoussa\AppData\Local\Temp\ccusLzHp.s 			page 15


 496 0044 9B00     		lsl	r3, r3, #2
 497 0046 CB18     		add	r3, r1, r3
 498 0048 5A68     		ldr	r2, [r3, #4]
 499 004a 8023     		mov	r3, #128
 500 004c 5B01     		lsl	r3, r3, #5
 501 004e 1340     		and	r3, r2
 502 0050 4CD0     		beq	.L31
 301:.\Generated_Source\PSoC4/CYBLE_bas.c ****                 {
 302:.\Generated_Source\PSoC4/CYBLE_bas.c ****                     gattErr = CyBle_GattsWriteAttributeValue(&eventParam->handleValPair, 0u, 
 503              		.loc 1 302 0
 504 0052 7B68     		ldr	r3, [r7, #4]
 505 0054 1A1D     		add	r2, r3, #4
 506 0056 7B68     		ldr	r3, [r7, #4]
 507 0058 3C1C     		mov	r4, r7
 508 005a 1634     		add	r4, r4, #22
 509 005c 101C     		mov	r0, r2
 510 005e 0021     		mov	r1, #0
 511 0060 1A1C     		mov	r2, r3
 512 0062 4023     		mov	r3, #64
 513 0064 FFF7FEFF 		bl	CyBle_GattsWriteAttributeValue
 514 0068 031C     		mov	r3, r0
 515 006a 2370     		strb	r3, [r4]
 303:.\Generated_Source\PSoC4/CYBLE_bas.c ****                         &eventParam->connHandle, CYBLE_GATT_DB_PEER_INITIATED);
 304:.\Generated_Source\PSoC4/CYBLE_bas.c ****                     if(CYBLE_GATT_ERR_NONE == gattErr)
 516              		.loc 1 304 0
 517 006c 3B1C     		mov	r3, r7
 518 006e 1633     		add	r3, r3, #22
 519 0070 1B78     		ldrb	r3, [r3]
 520 0072 002B     		cmp	r3, #0
 521 0074 3ED1     		bne	.L35
 305:.\Generated_Source\PSoC4/CYBLE_bas.c ****                     {
 306:.\Generated_Source\PSoC4/CYBLE_bas.c ****                         locCharIndex.connHandle = eventParam->connHandle;
 522              		.loc 1 306 0
 523 0076 3B1C     		mov	r3, r7
 524 0078 0C33     		add	r3, r3, #12
 525 007a 7A68     		ldr	r2, [r7, #4]
 526 007c 1288     		ldrh	r2, [r2]
 527 007e 1A80     		strh	r2, [r3]
 307:.\Generated_Source\PSoC4/CYBLE_bas.c ****                         locCharIndex.serviceIndex = locServiceIndex;
 528              		.loc 1 307 0
 529 0080 3B1C     		mov	r3, r7
 530 0082 0C33     		add	r3, r3, #12
 531 0084 3A1C     		mov	r2, r7
 532 0086 1732     		add	r2, r2, #23
 533 0088 1278     		ldrb	r2, [r2]
 534 008a 9A70     		strb	r2, [r3, #2]
 308:.\Generated_Source\PSoC4/CYBLE_bas.c ****                         locCharIndex.charIndex = CYBLE_BAS_BATTERY_LEVEL;
 535              		.loc 1 308 0
 536 008c 3B1C     		mov	r3, r7
 537 008e 0C33     		add	r3, r3, #12
 538 0090 0022     		mov	r2, #0
 539 0092 DA70     		strb	r2, [r3, #3]
 309:.\Generated_Source\PSoC4/CYBLE_bas.c ****                         locCharIndex.value = NULL;
 540              		.loc 1 309 0
 541 0094 3B1C     		mov	r3, r7
 542 0096 0C33     		add	r3, r3, #12
 543 0098 0022     		mov	r2, #0
ARM GAS  C:\Users\jdmoussa\AppData\Local\Temp\ccusLzHp.s 			page 16


 544 009a 5A60     		str	r2, [r3, #4]
 310:.\Generated_Source\PSoC4/CYBLE_bas.c ****                         
 311:.\Generated_Source\PSoC4/CYBLE_bas.c ****                         if(CYBLE_IS_NOTIFICATION_ENABLED_IN_PTR(eventParam->handleValPair.value.val
 545              		.loc 1 311 0
 546 009c 7B68     		ldr	r3, [r7, #4]
 547 009e 5B68     		ldr	r3, [r3, #4]
 548 00a0 181C     		mov	r0, r3
 549 00a2 FFF7FEFF 		bl	CyBle_Get16ByPtr
 550 00a6 031C     		mov	r3, r0
 551 00a8 1A1C     		mov	r2, r3
 552 00aa 0123     		mov	r3, #1
 553 00ac 1340     		and	r3, r2
 554 00ae 9BB2     		uxth	r3, r3
 555 00b0 002B     		cmp	r3, #0
 556 00b2 09D0     		beq	.L33
 312:.\Generated_Source\PSoC4/CYBLE_bas.c ****                         {
 313:.\Generated_Source\PSoC4/CYBLE_bas.c ****                             CyBle_BasApplCallback((uint32)CYBLE_EVT_BASS_NOTIFICATION_ENABLED, &loc
 557              		.loc 1 313 0
 558 00b4 1E4B     		ldr	r3, .L38
 559 00b6 1B68     		ldr	r3, [r3]
 560 00b8 8D22     		mov	r2, #141
 561 00ba 5100     		lsl	r1, r2, #1
 562 00bc 3A1C     		mov	r2, r7
 563 00be 0C32     		add	r2, r2, #12
 564 00c0 081C     		mov	r0, r1
 565 00c2 111C     		mov	r1, r2
 566 00c4 9847     		blx	r3
 567 00c6 09E0     		b	.L34
 568              	.L33:
 314:.\Generated_Source\PSoC4/CYBLE_bas.c ****                         }
 315:.\Generated_Source\PSoC4/CYBLE_bas.c ****                         else
 316:.\Generated_Source\PSoC4/CYBLE_bas.c ****                         {
 317:.\Generated_Source\PSoC4/CYBLE_bas.c ****                             CyBle_BasApplCallback((uint32)CYBLE_EVT_BASS_NOTIFICATION_DISABLED, &lo
 569              		.loc 1 317 0
 570 00c8 194B     		ldr	r3, .L38
 571 00ca 1B68     		ldr	r3, [r3]
 572 00cc 1C22     		mov	r2, #28
 573 00ce 111C     		mov	r1, r2
 574 00d0 FF31     		add	r1, r1, #255
 575 00d2 3A1C     		mov	r2, r7
 576 00d4 0C32     		add	r2, r2, #12
 577 00d6 081C     		mov	r0, r1
 578 00d8 111C     		mov	r1, r2
 579 00da 9847     		blx	r3
 580              	.L34:
 318:.\Generated_Source\PSoC4/CYBLE_bas.c ****                         }
 319:.\Generated_Source\PSoC4/CYBLE_bas.c ****                     #if((CYBLE_GAP_ROLE_PERIPHERAL || CYBLE_GAP_ROLE_CENTRAL) && \
 320:.\Generated_Source\PSoC4/CYBLE_bas.c ****                         (CYBLE_BONDING_REQUIREMENT == CYBLE_BONDING_YES))
 321:.\Generated_Source\PSoC4/CYBLE_bas.c ****                         /* Set flag to store bonding data to flash */
 322:.\Generated_Source\PSoC4/CYBLE_bas.c ****                         cyBle_pendingFlashWrite |= CYBLE_PENDING_CCCD_FLASH_WRITE_BIT;
 581              		.loc 1 322 0
 582 00dc 174B     		ldr	r3, .L38+12
 583 00de 1B78     		ldrb	r3, [r3]
 584 00e0 0222     		mov	r2, #2
 585 00e2 1343     		orr	r3, r2
 586 00e4 DAB2     		uxtb	r2, r3
 587 00e6 154B     		ldr	r3, .L38+12
ARM GAS  C:\Users\jdmoussa\AppData\Local\Temp\ccusLzHp.s 			page 17


 588 00e8 1A70     		strb	r2, [r3]
 589 00ea 03E0     		b	.L35
 590              	.L31:
 323:.\Generated_Source\PSoC4/CYBLE_bas.c ****                     #endif /* (CYBLE_BONDING_REQUIREMENT == CYBLE_BONDING_YES) */
 324:.\Generated_Source\PSoC4/CYBLE_bas.c ****                     }
 325:.\Generated_Source\PSoC4/CYBLE_bas.c ****                 }
 326:.\Generated_Source\PSoC4/CYBLE_bas.c ****                 else
 327:.\Generated_Source\PSoC4/CYBLE_bas.c ****                 {
 328:.\Generated_Source\PSoC4/CYBLE_bas.c ****                     gattErr = CYBLE_GATT_ERR_REQUEST_NOT_SUPPORTED;
 591              		.loc 1 328 0
 592 00ec 3B1C     		mov	r3, r7
 593 00ee 1633     		add	r3, r3, #22
 594 00f0 0622     		mov	r2, #6
 595 00f2 1A70     		strb	r2, [r3]
 596              	.L35:
 329:.\Generated_Source\PSoC4/CYBLE_bas.c ****                 }
 330:.\Generated_Source\PSoC4/CYBLE_bas.c ****                 cyBle_eventHandlerFlag &= (uint8)~CYBLE_CALLBACK;
 597              		.loc 1 330 0
 598 00f4 124B     		ldr	r3, .L38+16
 599 00f6 1B78     		ldrb	r3, [r3]
 600 00f8 DBB2     		uxtb	r3, r3
 601 00fa 0122     		mov	r2, #1
 602 00fc 9343     		bic	r3, r2
 603 00fe DAB2     		uxtb	r2, r3
 604 0100 0F4B     		ldr	r3, .L38+16
 605 0102 1A70     		strb	r2, [r3]
 331:.\Generated_Source\PSoC4/CYBLE_bas.c ****                 break;
 606              		.loc 1 331 0
 607 0104 0CE0     		b	.L29
 608              	.L30:
 332:.\Generated_Source\PSoC4/CYBLE_bas.c ****             }
 333:.\Generated_Source\PSoC4/CYBLE_bas.c ****         locServiceIndex++;
 609              		.loc 1 333 0
 610 0106 3B1C     		mov	r3, r7
 611 0108 1733     		add	r3, r3, #23
 612 010a 1A78     		ldrb	r2, [r3]
 613 010c 3B1C     		mov	r3, r7
 614 010e 1733     		add	r3, r3, #23
 615 0110 0132     		add	r2, r2, #1
 616 0112 1A70     		strb	r2, [r3]
 334:.\Generated_Source\PSoC4/CYBLE_bas.c ****         }while(locServiceIndex < CYBLE_BASS_SERVICE_COUNT);
 617              		.loc 1 334 0
 618 0114 3B1C     		mov	r3, r7
 619 0116 1733     		add	r3, r3, #23
 620 0118 1B78     		ldrb	r3, [r3]
 621 011a 002B     		cmp	r3, #0
 622 011c 00D1     		bne	.LCB534
 623 011e 80E7     		b	.L36	@long jump
 624              	.LCB534:
 625              	.L29:
 335:.\Generated_Source\PSoC4/CYBLE_bas.c ****     }
 336:.\Generated_Source\PSoC4/CYBLE_bas.c ****     return (gattErr);
 626              		.loc 1 336 0
 627 0120 3B1C     		mov	r3, r7
 628 0122 1633     		add	r3, r3, #22
 629 0124 1B78     		ldrb	r3, [r3]
 337:.\Generated_Source\PSoC4/CYBLE_bas.c **** }
ARM GAS  C:\Users\jdmoussa\AppData\Local\Temp\ccusLzHp.s 			page 18


 630              		.loc 1 337 0
 631 0126 181C     		mov	r0, r3
 632 0128 BD46     		mov	sp, r7
 633 012a 07B0     		add	sp, sp, #28
 634              		@ sp needed
 635 012c 90BD     		pop	{r4, r7, pc}
 636              	.L39:
 637 012e C046     		.align	2
 638              	.L38:
 639 0130 00000000 		.word	CyBle_BasApplCallback
 640 0134 00000000 		.word	cyBle_bass
 641 0138 00000000 		.word	cyBle_gattDB
 642 013c 00000000 		.word	cyBle_pendingFlashWrite
 643 0140 00000000 		.word	cyBle_eventHandlerFlag
 644              		.cfi_endproc
 645              	.LFE7:
 646              		.size	CyBle_BassWriteEventHandler, .-CyBle_BassWriteEventHandler
 647              		.section	.text.CyBle_BassSendNotification,"ax",%progbits
 648              		.align	2
 649              		.global	CyBle_BassSendNotification
 650              		.code	16
 651              		.thumb_func
 652              		.type	CyBle_BassSendNotification, %function
 653              	CyBle_BassSendNotification:
 654              	.LFB8:
 338:.\Generated_Source\PSoC4/CYBLE_bas.c **** 
 339:.\Generated_Source\PSoC4/CYBLE_bas.c **** 
 340:.\Generated_Source\PSoC4/CYBLE_bas.c **** /******************************************************************************
 341:.\Generated_Source\PSoC4/CYBLE_bas.c **** ##Function Name: CyBle_BassSendNotification
 342:.\Generated_Source\PSoC4/CYBLE_bas.c **** *******************************************************************************
 343:.\Generated_Source\PSoC4/CYBLE_bas.c **** 
 344:.\Generated_Source\PSoC4/CYBLE_bas.c **** Summary:
 345:.\Generated_Source\PSoC4/CYBLE_bas.c ****  This function updates the value of the Battery Level characteristic in the 
 346:.\Generated_Source\PSoC4/CYBLE_bas.c ****  GATT database. If the client has configured a notification on the Battery
 347:.\Generated_Source\PSoC4/CYBLE_bas.c ****  Level characteristic, the function additionally sends this value using a 
 348:.\Generated_Source\PSoC4/CYBLE_bas.c ****  GATT Notification message.
 349:.\Generated_Source\PSoC4/CYBLE_bas.c **** 
 350:.\Generated_Source\PSoC4/CYBLE_bas.c ****  The CYBLE_EVT_BASC_NOTIFICATION event is received by the peer device, on 
 351:.\Generated_Source\PSoC4/CYBLE_bas.c ****  invoking this function.
 352:.\Generated_Source\PSoC4/CYBLE_bas.c **** 
 353:.\Generated_Source\PSoC4/CYBLE_bas.c **** Parameters:
 354:.\Generated_Source\PSoC4/CYBLE_bas.c ****  connHandle: The BLE peer device connection handle
 355:.\Generated_Source\PSoC4/CYBLE_bas.c ****  serviceIndex: The index of the service instance. e.g. If two Battery Services
 356:.\Generated_Source\PSoC4/CYBLE_bas.c ****                 are supported in your design, then first service will be 
 357:.\Generated_Source\PSoC4/CYBLE_bas.c ****                 identified by serviceIndex of 0 and the second by 
 358:.\Generated_Source\PSoC4/CYBLE_bas.c ****                 serviceIndex of 1.
 359:.\Generated_Source\PSoC4/CYBLE_bas.c ****  charIndex: The index of a service characteristic of type 
 360:.\Generated_Source\PSoC4/CYBLE_bas.c ****              CYBLE_BAS_CHAR_INDEX_T.
 361:.\Generated_Source\PSoC4/CYBLE_bas.c ****  attrSize: The size of the characteristic value attribute. A battery level
 362:.\Generated_Source\PSoC4/CYBLE_bas.c ****             characteristic has 1 byte length.
 363:.\Generated_Source\PSoC4/CYBLE_bas.c ****  *attrValue: The pointer to the characteristic value data that should be
 364:.\Generated_Source\PSoC4/CYBLE_bas.c ****               sent to the Client device.
 365:.\Generated_Source\PSoC4/CYBLE_bas.c **** 
 366:.\Generated_Source\PSoC4/CYBLE_bas.c **** Return:
 367:.\Generated_Source\PSoC4/CYBLE_bas.c ****  Return value is of type CYBLE_API_RESULT_T.
 368:.\Generated_Source\PSoC4/CYBLE_bas.c ****   * CYBLE_ERROR_OK - The request handled successfully
 369:.\Generated_Source\PSoC4/CYBLE_bas.c ****   * CYBLE_ERROR_INVALID_PARAMETER - Validation of the input parameter failed
ARM GAS  C:\Users\jdmoussa\AppData\Local\Temp\ccusLzHp.s 			page 19


 370:.\Generated_Source\PSoC4/CYBLE_bas.c ****   * CYBLE_ERROR_INVALID_OPERATION - This operation is not permitted
 371:.\Generated_Source\PSoC4/CYBLE_bas.c ****   * CYBLE_ERROR_INVALID_STATE - Connection with the client is not established
 372:.\Generated_Source\PSoC4/CYBLE_bas.c ****   * CYBLE_ERROR_MEMORY_ALLOCATION_FAILED - Memory allocation failed. 
 373:.\Generated_Source\PSoC4/CYBLE_bas.c ****   * CYBLE_ERROR_NTF_DISABLED - Notification is not enabled by the client.
 374:.\Generated_Source\PSoC4/CYBLE_bas.c **** 
 375:.\Generated_Source\PSoC4/CYBLE_bas.c **** ******************************************************************************/
 376:.\Generated_Source\PSoC4/CYBLE_bas.c **** CYBLE_API_RESULT_T CyBle_BassSendNotification(CYBLE_CONN_HANDLE_T connHandle,
 377:.\Generated_Source\PSoC4/CYBLE_bas.c ****     uint8 serviceIndex, CYBLE_BAS_CHAR_INDEX_T charIndex, uint8 attrSize, uint8 *attrValue)
 378:.\Generated_Source\PSoC4/CYBLE_bas.c **** {
 655              		.loc 1 378 0
 656              		.cfi_startproc
 657 0000 90B5     		push	{r4, r7, lr}
 658              		.cfi_def_cfa_offset 12
 659              		.cfi_offset 4, -12
 660              		.cfi_offset 7, -8
 661              		.cfi_offset 14, -4
 662 0002 87B0     		sub	sp, sp, #28
 663              		.cfi_def_cfa_offset 40
 664 0004 00AF     		add	r7, sp, #0
 665              		.cfi_def_cfa_register 7
 666 0006 3C1D     		add	r4, r7, #4
 667 0008 2080     		strh	r0, [r4]
 668 000a 081C     		mov	r0, r1
 669 000c 111C     		mov	r1, r2
 670 000e 1A1C     		mov	r2, r3
 671 0010 FB1C     		add	r3, r7, #3
 672 0012 1870     		strb	r0, [r3]
 673 0014 BB1C     		add	r3, r7, #2
 674 0016 1970     		strb	r1, [r3]
 675 0018 7B1C     		add	r3, r7, #1
 676 001a 1A70     		strb	r2, [r3]
 379:.\Generated_Source\PSoC4/CYBLE_bas.c ****     CYBLE_API_RESULT_T apiResult;
 380:.\Generated_Source\PSoC4/CYBLE_bas.c **** 
 381:.\Generated_Source\PSoC4/CYBLE_bas.c ****     /* Store new data in database */
 382:.\Generated_Source\PSoC4/CYBLE_bas.c ****     apiResult = CyBle_BassSetCharacteristicValue(serviceIndex, charIndex, attrSize, attrValue);
 677              		.loc 1 382 0
 678 001c 3C1C     		mov	r4, r7
 679 001e 1634     		add	r4, r4, #22
 680 0020 FB1C     		add	r3, r7, #3
 681 0022 1878     		ldrb	r0, [r3]
 682 0024 BB1C     		add	r3, r7, #2
 683 0026 1978     		ldrb	r1, [r3]
 684 0028 7B1C     		add	r3, r7, #1
 685 002a 1A78     		ldrb	r2, [r3]
 686 002c BB6A     		ldr	r3, [r7, #40]
 687 002e FFF7FEFF 		bl	CyBle_BassSetCharacteristicValue
 688 0032 031C     		mov	r3, r0
 689 0034 2380     		strh	r3, [r4]
 383:.\Generated_Source\PSoC4/CYBLE_bas.c ****     
 384:.\Generated_Source\PSoC4/CYBLE_bas.c ****     if(CYBLE_ERROR_OK == apiResult)  
 690              		.loc 1 384 0
 691 0036 3B1C     		mov	r3, r7
 692 0038 1633     		add	r3, r3, #22
 693 003a 1B88     		ldrh	r3, [r3]
 694 003c 002B     		cmp	r3, #0
 695 003e 44D1     		bne	.L41
 385:.\Generated_Source\PSoC4/CYBLE_bas.c ****     {
ARM GAS  C:\Users\jdmoussa\AppData\Local\Temp\ccusLzHp.s 			page 20


 386:.\Generated_Source\PSoC4/CYBLE_bas.c ****         /* Send Notification if it is enabled and connected */
 387:.\Generated_Source\PSoC4/CYBLE_bas.c ****         if(CYBLE_STATE_CONNECTED != CyBle_GetState())
 696              		.loc 1 387 0
 697 0040 254B     		ldr	r3, .L46
 698 0042 1B78     		ldrb	r3, [r3]
 699 0044 022B     		cmp	r3, #2
 700 0046 05D0     		beq	.L42
 388:.\Generated_Source\PSoC4/CYBLE_bas.c ****         {
 389:.\Generated_Source\PSoC4/CYBLE_bas.c ****             apiResult = CYBLE_ERROR_INVALID_STATE;
 701              		.loc 1 389 0
 702 0048 3B1C     		mov	r3, r7
 703 004a 1633     		add	r3, r3, #22
 704 004c 8322     		mov	r2, #131
 705 004e 5200     		lsl	r2, r2, #1
 706 0050 1A80     		strh	r2, [r3]
 707 0052 3AE0     		b	.L41
 708              	.L42:
 390:.\Generated_Source\PSoC4/CYBLE_bas.c ****         }
 391:.\Generated_Source\PSoC4/CYBLE_bas.c ****         else if((cyBle_bass[serviceIndex].cccdHandle == CYBLE_GATT_INVALID_ATTR_HANDLE_VALUE)
 709              		.loc 1 391 0
 710 0054 2C23     		mov	r3, #44
 711 0056 002B     		cmp	r3, #0
 712 0058 13D0     		beq	.L43
 392:.\Generated_Source\PSoC4/CYBLE_bas.c ****             || (!CYBLE_IS_NOTIFICATION_ENABLED(cyBle_bass[serviceIndex].cccdHandle)))
 713              		.loc 1 392 0
 714 005a 2C23     		mov	r3, #44
 715 005c 5A1E     		sub	r2, r3, #1
 716 005e 1F49     		ldr	r1, .L46+4
 717 0060 131C     		mov	r3, r2
 718 0062 9B00     		lsl	r3, r3, #2
 719 0064 9B18     		add	r3, r3, r2
 720 0066 9B00     		lsl	r3, r3, #2
 721 0068 CB18     		add	r3, r1, r3
 722 006a 0833     		add	r3, r3, #8
 723 006c 9B68     		ldr	r3, [r3, #8]
 724 006e 181C     		mov	r0, r3
 725 0070 FFF7FEFF 		bl	CyBle_Get16ByPtr
 726 0074 031C     		mov	r3, r0
 727 0076 1A1C     		mov	r2, r3
 728 0078 0123     		mov	r3, #1
 729 007a 1340     		and	r3, r2
 730 007c 9BB2     		uxth	r3, r3
 731 007e 002B     		cmp	r3, #0
 732 0080 05D1     		bne	.L44
 733              	.L43:
 393:.\Generated_Source\PSoC4/CYBLE_bas.c ****         {
 394:.\Generated_Source\PSoC4/CYBLE_bas.c ****             apiResult = CYBLE_ERROR_NTF_DISABLED;
 734              		.loc 1 394 0
 735 0082 3B1C     		mov	r3, r7
 736 0084 1633     		add	r3, r3, #22
 737 0086 0422     		mov	r2, #4
 738 0088 FF32     		add	r2, r2, #255
 739 008a 1A80     		strh	r2, [r3]
 740 008c 1DE0     		b	.L41
 741              	.L44:
 742              	.LBB2:
 395:.\Generated_Source\PSoC4/CYBLE_bas.c ****         }
ARM GAS  C:\Users\jdmoussa\AppData\Local\Temp\ccusLzHp.s 			page 21


 396:.\Generated_Source\PSoC4/CYBLE_bas.c ****         else
 397:.\Generated_Source\PSoC4/CYBLE_bas.c ****         {
 398:.\Generated_Source\PSoC4/CYBLE_bas.c ****             CYBLE_GATTS_HANDLE_VALUE_NTF_T ntfReqParam;
 399:.\Generated_Source\PSoC4/CYBLE_bas.c ****             
 400:.\Generated_Source\PSoC4/CYBLE_bas.c ****             /* Fill all fields of write request structure ... */
 401:.\Generated_Source\PSoC4/CYBLE_bas.c ****             ntfReqParam.attrHandle = cyBle_bass[serviceIndex].batteryLevelHandle;
 743              		.loc 1 401 0
 744 008e FB1C     		add	r3, r7, #3
 745 0090 1B78     		ldrb	r3, [r3]
 746 0092 134A     		ldr	r2, .L46+8
 747 0094 DB00     		lsl	r3, r3, #3
 748 0096 D318     		add	r3, r2, r3
 749 0098 5A88     		ldrh	r2, [r3, #2]
 750 009a 3B1C     		mov	r3, r7
 751 009c 0833     		add	r3, r3, #8
 752 009e 1A81     		strh	r2, [r3, #8]
 402:.\Generated_Source\PSoC4/CYBLE_bas.c ****             ntfReqParam.value.val = attrValue;
 753              		.loc 1 402 0
 754 00a0 3B1C     		mov	r3, r7
 755 00a2 0833     		add	r3, r3, #8
 756 00a4 BA6A     		ldr	r2, [r7, #40]
 757 00a6 1A60     		str	r2, [r3]
 403:.\Generated_Source\PSoC4/CYBLE_bas.c ****             ntfReqParam.value.len = attrSize;
 758              		.loc 1 403 0
 759 00a8 7B1C     		add	r3, r7, #1
 760 00aa 1B78     		ldrb	r3, [r3]
 761 00ac 9AB2     		uxth	r2, r3
 762 00ae 3B1C     		mov	r3, r7
 763 00b0 0833     		add	r3, r3, #8
 764 00b2 9A80     		strh	r2, [r3, #4]
 404:.\Generated_Source\PSoC4/CYBLE_bas.c ****             
 405:.\Generated_Source\PSoC4/CYBLE_bas.c ****             /* Send notification to client using previously filled structure */
 406:.\Generated_Source\PSoC4/CYBLE_bas.c ****             apiResult = CyBle_GattsNotification(connHandle, &ntfReqParam);
 765              		.loc 1 406 0
 766 00b4 3C1C     		mov	r4, r7
 767 00b6 1634     		add	r4, r4, #22
 768 00b8 3B1D     		add	r3, r7, #4
 769 00ba 3A1C     		mov	r2, r7
 770 00bc 0832     		add	r2, r2, #8
 771 00be 1868     		ldr	r0, [r3]
 772 00c0 111C     		mov	r1, r2
 773 00c2 FFF7FEFF 		bl	CyBle_GattsNotification
 774 00c6 031C     		mov	r3, r0
 775 00c8 2380     		strh	r3, [r4]
 776              	.L41:
 777              	.LBE2:
 407:.\Generated_Source\PSoC4/CYBLE_bas.c ****         }
 408:.\Generated_Source\PSoC4/CYBLE_bas.c ****     }
 409:.\Generated_Source\PSoC4/CYBLE_bas.c ****     
 410:.\Generated_Source\PSoC4/CYBLE_bas.c ****     return (apiResult);
 778              		.loc 1 410 0
 779 00ca 3B1C     		mov	r3, r7
 780 00cc 1633     		add	r3, r3, #22
 781 00ce 1B88     		ldrh	r3, [r3]
 411:.\Generated_Source\PSoC4/CYBLE_bas.c **** }
 782              		.loc 1 411 0
 783 00d0 181C     		mov	r0, r3
ARM GAS  C:\Users\jdmoussa\AppData\Local\Temp\ccusLzHp.s 			page 22


 784 00d2 BD46     		mov	sp, r7
 785 00d4 07B0     		add	sp, sp, #28
 786              		@ sp needed
 787 00d6 90BD     		pop	{r4, r7, pc}
 788              	.L47:
 789              		.align	2
 790              	.L46:
 791 00d8 00000000 		.word	cyBle_state
 792 00dc 00000000 		.word	cyBle_gattDB
 793 00e0 00000000 		.word	cyBle_bass
 794              		.cfi_endproc
 795              	.LFE8:
 796              		.size	CyBle_BassSendNotification, .-CyBle_BassSendNotification
 797              		.text
 798              	.Letext0:
 799              		.file 2 ".\\Generated_Source\\PSoC4\\cytypes.h"
 800              		.file 3 ".\\Generated_Source\\PSoC4\\CYBLE_Stack.h"
 801              		.file 4 ".\\Generated_Source\\PSoC4\\CYBLE_StackGatt.h"
 802              		.file 5 ".\\Generated_Source\\PSoC4\\CYBLE_StackGattServer.h"
 803              		.file 6 ".\\Generated_Source\\PSoC4\\CYBLE_StackGattDb.h"
 804              		.file 7 ".\\Generated_Source\\PSoC4\\CYBLE.h"
 805              		.file 8 ".\\Generated_Source\\PSoC4\\CYBLE_bas.h"
 806              		.file 9 ".\\Generated_Source\\PSoC4\\CYBLE_bls.h"
 807              		.file 10 ".\\Generated_Source\\PSoC4\\CYBLE_dis.h"
 808              		.file 11 ".\\Generated_Source\\PSoC4\\CYBLE_eventHandler.h"
 809              		.file 12 ".\\Generated_Source\\PSoC4\\CYBLE_gatt.h"