ARM GAS  C:\Users\jdmoussa\AppData\Local\Temp\ccsp17ZB.s 			page 1


   1              		.cpu cortex-m0
   2              		.fpu softvfp
   3              		.eabi_attribute 20, 1
   4              		.eabi_attribute 21, 1
   5              		.eabi_attribute 23, 3
   6              		.eabi_attribute 24, 1
   7              		.eabi_attribute 25, 1
   8              		.eabi_attribute 26, 1
   9              		.eabi_attribute 30, 6
  10              		.eabi_attribute 34, 0
  11              		.eabi_attribute 18, 4
  12              		.code	16
  13              		.file	"CYBLE.c"
  14              		.text
  15              	.Ltext0:
  16              		.cfi_sections	.debug_frame
  17              		.global	cyBle_initVar
  18              		.bss
  19              		.type	cyBle_initVar, %object
  20              		.size	cyBle_initVar, 1
  21              	cyBle_initVar:
  22 0000 00       		.space	1
  23              		.global	cyBle_discoveryParam
  24              		.data
  25              		.align	2
  26              		.type	cyBle_discoveryParam, %object
  27              		.size	cyBle_discoveryParam, 16
  28              	cyBle_discoveryParam:
  29 0000 2000     		.short	32
  30 0002 3000     		.short	48
  31 0004 00       		.byte	0
  32 0005 00       		.byte	0
  33 0006 00       		.byte	0
  34 0007 0C       		.byte	12
  35 0008 00       		.byte	0
  36 0009 00       		.byte	0
  37 000a 50       		.byte	80
  38 000b A0       		.byte	-96
  39 000c 00       		.byte	0
  40 000d 07       		.byte	7
  41 000e 00       		.byte	0
  42 000f 00       		.space	1
  43              		.global	cyBle_discoveryData
  44              		.align	2
  45              		.type	cyBle_discoveryData, %object
  46              		.size	cyBle_discoveryData, 32
  47              	cyBle_discoveryData:
  48 0010 02       		.byte	2
  49 0011 01       		.byte	1
  50 0012 06       		.byte	6
  51 0013 16       		.byte	22
  52 0014 09       		.byte	9
  53 0015 42       		.byte	66
  54 0016 6C       		.byte	108
  55 0017 6F       		.byte	111
  56 0018 6F       		.byte	111
  57 0019 64       		.byte	100
ARM GAS  C:\Users\jdmoussa\AppData\Local\Temp\ccsp17ZB.s 			page 2


  58 001a 20       		.byte	32
  59 001b 50       		.byte	80
  60 001c 72       		.byte	114
  61 001d 65       		.byte	101
  62 001e 73       		.byte	115
  63 001f 73       		.byte	115
  64 0020 75       		.byte	117
  65 0021 72       		.byte	114
  66 0022 65       		.byte	101
  67 0023 20       		.byte	32
  68 0024 53       		.byte	83
  69 0025 65       		.byte	101
  70 0026 6E       		.byte	110
  71 0027 73       		.byte	115
  72 0028 6F       		.byte	111
  73 0029 72       		.byte	114
  74 002a 00       		.byte	0
  75 002b 00       		.byte	0
  76 002c 00       		.byte	0
  77 002d 00       		.byte	0
  78 002e 00       		.byte	0
  79 002f 1A       		.byte	26
  80              		.global	cyBle_scanRspData
  81              		.align	2
  82              		.type	cyBle_scanRspData, %object
  83              		.size	cyBle_scanRspData, 32
  84              	cyBle_scanRspData:
  85 0030 16       		.byte	22
  86 0031 09       		.byte	9
  87 0032 42       		.byte	66
  88 0033 6C       		.byte	108
  89 0034 6F       		.byte	111
  90 0035 6F       		.byte	111
  91 0036 64       		.byte	100
  92 0037 20       		.byte	32
  93 0038 50       		.byte	80
  94 0039 72       		.byte	114
  95 003a 65       		.byte	101
  96 003b 73       		.byte	115
  97 003c 73       		.byte	115
  98 003d 75       		.byte	117
  99 003e 72       		.byte	114
 100 003f 65       		.byte	101
 101 0040 20       		.byte	32
 102 0041 53       		.byte	83
 103 0042 65       		.byte	101
 104 0043 6E       		.byte	110
 105 0044 73       		.byte	115
 106 0045 6F       		.byte	111
 107 0046 72       		.byte	114
 108 0047 00       		.byte	0
 109 0048 00       		.byte	0
 110 0049 00       		.byte	0
 111 004a 00       		.byte	0
 112 004b 00       		.byte	0
 113 004c 00       		.byte	0
 114 004d 00       		.byte	0
ARM GAS  C:\Users\jdmoussa\AppData\Local\Temp\ccsp17ZB.s 			page 3


 115 004e 00       		.byte	0
 116 004f 17       		.byte	23
 117              		.global	cyBle_discoveryModeInfo
 118              		.align	2
 119              		.type	cyBle_discoveryModeInfo, %object
 120              		.size	cyBle_discoveryModeInfo, 20
 121              	cyBle_discoveryModeInfo:
 122 0050 02       		.byte	2
 123 0051 000000   		.space	3
 124 0054 00000000 		.word	cyBle_discoveryParam
 125 0058 00000000 		.word	cyBle_discoveryData
 126 005c 00000000 		.word	cyBle_scanRspData
 127 0060 1E00     		.short	30
 128 0062 0000     		.space	2
 129              		.comm	cyBle_pendingFlashWrite,1,1
 130              		.comm	CyBle_ApplCallback,4,4
 131              		.global	cyBle_deviceAddress
 132              		.align	2
 133              		.type	cyBle_deviceAddress, %object
 134              		.size	cyBle_deviceAddress, 7
 135              	cyBle_deviceAddress:
 136 0064 0C       		.byte	12
 137 0065 00       		.byte	0
 138 0066 00       		.byte	0
 139 0067 50       		.byte	80
 140 0068 A0       		.byte	-96
 141 0069 00       		.byte	0
 142 006a 00       		.byte	0
 143              		.global	cyBle_sflashDeviceAddress
 144 006b 00       		.align	2
 145              		.type	cyBle_sflashDeviceAddress, %object
 146              		.size	cyBle_sflashDeviceAddress, 4
 147              	cyBle_sflashDeviceAddress:
 148 006c 00F2FF0F 		.word	268431872
 149              		.section	.text.CyBle_Init,"ax",%progbits
 150              		.align	2
 151              		.global	CyBle_Init
 152              		.code	16
 153              		.thumb_func
 154              		.type	CyBle_Init, %function
 155              	CyBle_Init:
 156              	.LFB2:
 157              		.file 1 ".\\Generated_Source\\PSoC4\\CYBLE.c"
   1:.\Generated_Source\PSoC4/CYBLE.c **** /*******************************************************************************
   2:.\Generated_Source\PSoC4/CYBLE.c **** File Name: CYBLE.c
   3:.\Generated_Source\PSoC4/CYBLE.c **** Version 1.20
   4:.\Generated_Source\PSoC4/CYBLE.c **** 
   5:.\Generated_Source\PSoC4/CYBLE.c **** Description:
   6:.\Generated_Source\PSoC4/CYBLE.c ****  This file contains the source code for the Common APIs of the BLE Component.
   7:.\Generated_Source\PSoC4/CYBLE.c **** 
   8:.\Generated_Source\PSoC4/CYBLE.c **** ********************************************************************************
   9:.\Generated_Source\PSoC4/CYBLE.c **** Copyright 2014-2015, Cypress Semiconductor Corporation.  All rights reserved.
  10:.\Generated_Source\PSoC4/CYBLE.c **** You may use this file only in accordance with the license, terms, conditions,
  11:.\Generated_Source\PSoC4/CYBLE.c **** disclaimers, and limitations in the end user license agreement accompanying
  12:.\Generated_Source\PSoC4/CYBLE.c **** the software package with which this file was provided.
  13:.\Generated_Source\PSoC4/CYBLE.c **** *******************************************************************************/
  14:.\Generated_Source\PSoC4/CYBLE.c **** 
ARM GAS  C:\Users\jdmoussa\AppData\Local\Temp\ccsp17ZB.s 			page 4


  15:.\Generated_Source\PSoC4/CYBLE.c **** #include "CYBLE_eventHandler.h"
  16:.\Generated_Source\PSoC4/CYBLE.c **** #include "CYBLE_HAL_PVT.h"
  17:.\Generated_Source\PSoC4/CYBLE.c **** 
  18:.\Generated_Source\PSoC4/CYBLE.c **** 
  19:.\Generated_Source\PSoC4/CYBLE.c **** /***************************************
  20:.\Generated_Source\PSoC4/CYBLE.c **** ##Function Prototypes
  21:.\Generated_Source\PSoC4/CYBLE.c **** ***************************************/
  22:.\Generated_Source\PSoC4/CYBLE.c **** 
  23:.\Generated_Source\PSoC4/CYBLE.c **** #if(CYBLE_GATT_ROLE_SERVER)
  24:.\Generated_Source\PSoC4/CYBLE.c ****     #if(CYBLE_GAP_ROLE_PERIPHERAL)
  25:.\Generated_Source\PSoC4/CYBLE.c ****         static void CyBle_ChangeAdLocalName(const char8 name[], uint8 dest);
  26:.\Generated_Source\PSoC4/CYBLE.c ****     #endif /* (CYBLE_GAP_ROLE_PERIPHERAL) */
  27:.\Generated_Source\PSoC4/CYBLE.c **** #endif /* (CYBLE_GATT_ROLE_SERVER) */
  28:.\Generated_Source\PSoC4/CYBLE.c ****     
  29:.\Generated_Source\PSoC4/CYBLE.c **** 
  30:.\Generated_Source\PSoC4/CYBLE.c **** /***************************************
  31:.\Generated_Source\PSoC4/CYBLE.c **** ##Global Variables
  32:.\Generated_Source\PSoC4/CYBLE.c **** ***************************************/
  33:.\Generated_Source\PSoC4/CYBLE.c **** 
  34:.\Generated_Source\PSoC4/CYBLE.c **** /* Indicates whether the BLE has been initialized. The variable is initialized to
  35:.\Generated_Source\PSoC4/CYBLE.c ****    0 and set to 1 the first time CyBle_Start() is called. This allows the component
  36:.\Generated_Source\PSoC4/CYBLE.c ****    to restart without reinitialization after the first call to the CyBle_Start() 
  37:.\Generated_Source\PSoC4/CYBLE.c ****    routine. If reinitialization of the component is required, the variable should 
  38:.\Generated_Source\PSoC4/CYBLE.c ****    be set to 0 before the CyBle_Start() routine is called. Alternatively, the BLE
  39:.\Generated_Source\PSoC4/CYBLE.c ****    can be reinitialized by calling the CyBle_Init() function.
  40:.\Generated_Source\PSoC4/CYBLE.c **** */
  41:.\Generated_Source\PSoC4/CYBLE.c **** uint8  cyBle_initVar = 0u;
  42:.\Generated_Source\PSoC4/CYBLE.c **** 
  43:.\Generated_Source\PSoC4/CYBLE.c **** #if(CYBLE_GAP_ROLE_PERIPHERAL || CYBLE_GAP_ROLE_BROADCASTER)
  44:.\Generated_Source\PSoC4/CYBLE.c **** 
  45:.\Generated_Source\PSoC4/CYBLE.c **** CYBLE_GAPP_DISC_PARAM_T cyBle_discoveryParam =
  46:.\Generated_Source\PSoC4/CYBLE.c **** {
  47:.\Generated_Source\PSoC4/CYBLE.c ****     0x0020u,    /* uint16 advertising_interval_min */
  48:.\Generated_Source\PSoC4/CYBLE.c ****     0x0030u,    /* uint16 advertising_interval_max */
  49:.\Generated_Source\PSoC4/CYBLE.c ****     CYBLE_GAPP_CONNECTABLE_UNDIRECTED_ADV, /* uint8 advertising_type */
  50:.\Generated_Source\PSoC4/CYBLE.c ****     0x00u,      /* uint8 own_addr_type */
  51:.\Generated_Source\PSoC4/CYBLE.c ****     0x00u,      /* uint8 direct_addr_type */
  52:.\Generated_Source\PSoC4/CYBLE.c ****     {0x0Cu, 0x00u, 0x00u, 0x50u, 0xA0u, 0x00u}, /* uint8* direct_addr */
  53:.\Generated_Source\PSoC4/CYBLE.c ****     0x07u,      /* uint8 advertising_channel_map */
  54:.\Generated_Source\PSoC4/CYBLE.c ****     0x00u,      /* uint8 advertising_filter_policy */
  55:.\Generated_Source\PSoC4/CYBLE.c **** };
  56:.\Generated_Source\PSoC4/CYBLE.c **** 
  57:.\Generated_Source\PSoC4/CYBLE.c **** CYBLE_GAPP_DISC_DATA_T cyBle_discoveryData =
  58:.\Generated_Source\PSoC4/CYBLE.c **** {
  59:.\Generated_Source\PSoC4/CYBLE.c ****     { 0x02u, 0x01u, 0x06u, 0x16u, 0x09u, 0x42u, 0x6Cu,
  60:.\Generated_Source\PSoC4/CYBLE.c ****     0x6Fu, 0x6Fu, 0x64u, 0x20u, 0x50u, 0x72u, 0x65u, 0x73u,
  61:.\Generated_Source\PSoC4/CYBLE.c ****     0x73u, 0x75u, 0x72u, 0x65u, 0x20u, 0x53u, 0x65u, 0x6Eu,
  62:.\Generated_Source\PSoC4/CYBLE.c ****     0x73u, 0x6Fu, 0x72u, 0x00u, 0x00u, 0x00u, 0x00u, 0x00u }, /* uint8 advertising_data[CYBLE_MAX_A
  63:.\Generated_Source\PSoC4/CYBLE.c ****     0x1Au,      /* uint8 adv_data_length */
  64:.\Generated_Source\PSoC4/CYBLE.c **** };
  65:.\Generated_Source\PSoC4/CYBLE.c **** 
  66:.\Generated_Source\PSoC4/CYBLE.c **** CYBLE_GAPP_SCAN_RSP_DATA_T cyBle_scanRspData =
  67:.\Generated_Source\PSoC4/CYBLE.c **** {
  68:.\Generated_Source\PSoC4/CYBLE.c ****     { 0x16u, 0x09u, 0x42u, 0x6Cu, 0x6Fu, 0x6Fu, 0x64u,
  69:.\Generated_Source\PSoC4/CYBLE.c ****     0x20u, 0x50u, 0x72u, 0x65u, 0x73u, 0x73u, 0x75u, 0x72u,
  70:.\Generated_Source\PSoC4/CYBLE.c ****     0x65u, 0x20u, 0x53u, 0x65u, 0x6Eu, 0x73u, 0x6Fu, 0x72u,
  71:.\Generated_Source\PSoC4/CYBLE.c ****     0x00u, 0x00u, 0x00u, 0x00u, 0x00u, 0x00u, 0x00u, 0x00u }, /* uint8 scan_rsp_data[CYBLE_MAX_SCAN
ARM GAS  C:\Users\jdmoussa\AppData\Local\Temp\ccsp17ZB.s 			page 5


  72:.\Generated_Source\PSoC4/CYBLE.c ****     0x17u,      /* uint8 scan_rsp_data_length */
  73:.\Generated_Source\PSoC4/CYBLE.c **** };
  74:.\Generated_Source\PSoC4/CYBLE.c **** 
  75:.\Generated_Source\PSoC4/CYBLE.c **** /* This variable of type CYBLE_GAPP_DISC_MODE_INFO_T is present only when 
  76:.\Generated_Source\PSoC4/CYBLE.c ****    the BLE component is configured for Peripheral GAP role or Central and 
  77:.\Generated_Source\PSoC4/CYBLE.c ****    Peripheral GAP role. It contains the Advertisement settings and also the 
  78:.\Generated_Source\PSoC4/CYBLE.c ****    Advertisement and Scan response data parameters entered in the customizer.
  79:.\Generated_Source\PSoC4/CYBLE.c ****    This variable can be used by advanced users to change Advertisement settings,
  80:.\Generated_Source\PSoC4/CYBLE.c ****    Advertisement or Scan response data in runtime. 
  81:.\Generated_Source\PSoC4/CYBLE.c **** */
  82:.\Generated_Source\PSoC4/CYBLE.c **** CYBLE_GAPP_DISC_MODE_INFO_T cyBle_discoveryModeInfo =
  83:.\Generated_Source\PSoC4/CYBLE.c **** {
  84:.\Generated_Source\PSoC4/CYBLE.c ****     0x02u,      /* uint8 discMode */
  85:.\Generated_Source\PSoC4/CYBLE.c ****     &cyBle_discoveryParam,
  86:.\Generated_Source\PSoC4/CYBLE.c ****     &cyBle_discoveryData,
  87:.\Generated_Source\PSoC4/CYBLE.c ****     &cyBle_scanRspData,
  88:.\Generated_Source\PSoC4/CYBLE.c ****     0x001Eu,    /* uint16 advTo */
  89:.\Generated_Source\PSoC4/CYBLE.c **** };
  90:.\Generated_Source\PSoC4/CYBLE.c **** 
  91:.\Generated_Source\PSoC4/CYBLE.c **** 
  92:.\Generated_Source\PSoC4/CYBLE.c **** #endif /* CYBLE_GAP_ROLE_PERIPHERAL || CYBLE_GAP_ROLE_BROADCASTER */
  93:.\Generated_Source\PSoC4/CYBLE.c **** 
  94:.\Generated_Source\PSoC4/CYBLE.c **** #if(CYBLE_GAP_ROLE_CENTRAL)
  95:.\Generated_Source\PSoC4/CYBLE.c ****     
  96:.\Generated_Source\PSoC4/CYBLE.c **** CYBLE_GAPC_CONN_PARAM_T cyBle_connectionParameters;
  97:.\Generated_Source\PSoC4/CYBLE.c **** 
  98:.\Generated_Source\PSoC4/CYBLE.c **** /* Connecting timeout is set to 30 seconds in CyBle_Init function. 
  99:.\Generated_Source\PSoC4/CYBLE.c ****    Not zero value starts timer in CyBle_GapcConnectDevice API.
 100:.\Generated_Source\PSoC4/CYBLE.c **** */
 101:.\Generated_Source\PSoC4/CYBLE.c **** uint16 cyBle_connectingTimeout;
 102:.\Generated_Source\PSoC4/CYBLE.c ****     
 103:.\Generated_Source\PSoC4/CYBLE.c **** #endif /* CYBLE_GAP_ROLE_CENTRAL */
 104:.\Generated_Source\PSoC4/CYBLE.c **** 
 105:.\Generated_Source\PSoC4/CYBLE.c **** #if(CYBLE_GAP_ROLE_CENTRAL || CYBLE_GAP_ROLE_OBSERVER)
 106:.\Generated_Source\PSoC4/CYBLE.c ****     
 107:.\Generated_Source\PSoC4/CYBLE.c **** 
 108:.\Generated_Source\PSoC4/CYBLE.c ****     
 109:.\Generated_Source\PSoC4/CYBLE.c **** #endif /* CYBLE_GAP_ROLE_CENTRAL || CYBLE_GAP_ROLE_OBSERVER */
 110:.\Generated_Source\PSoC4/CYBLE.c **** 
 111:.\Generated_Source\PSoC4/CYBLE.c **** #if((CYBLE_GAP_ROLE_PERIPHERAL || CYBLE_GAP_ROLE_CENTRAL) && (CYBLE_BONDING_REQUIREMENT == CYBLE_BO
 112:.\Generated_Source\PSoC4/CYBLE.c **** 
 113:.\Generated_Source\PSoC4/CYBLE.c **** uint8 cyBle_pendingFlashWrite;
 114:.\Generated_Source\PSoC4/CYBLE.c ****     
 115:.\Generated_Source\PSoC4/CYBLE.c **** #endif  /* (CYBLE_BONDING_REQUIREMENT == CYBLE_BONDING_YES) */
 116:.\Generated_Source\PSoC4/CYBLE.c **** 
 117:.\Generated_Source\PSoC4/CYBLE.c **** CYBLE_CALLBACK_T CyBle_ApplCallback;
 118:.\Generated_Source\PSoC4/CYBLE.c **** CYBLE_GAP_BD_ADDR_T cyBle_deviceAddress = {{0x0Cu, 0x00u, 0x00u, 0x50u, 0xA0u, 0x00u}, 0x00u };
 119:.\Generated_Source\PSoC4/CYBLE.c **** CYBLE_GAP_BD_ADDR_T * cyBle_sflashDeviceAddress = CYBLE_SFLASH_DEVICE_ADDRESS_PTR;
 120:.\Generated_Source\PSoC4/CYBLE.c **** 
 121:.\Generated_Source\PSoC4/CYBLE.c **** 
 122:.\Generated_Source\PSoC4/CYBLE.c **** /******************************************************************************
 123:.\Generated_Source\PSoC4/CYBLE.c **** ##Function Name: CyBle_Init
 124:.\Generated_Source\PSoC4/CYBLE.c **** *******************************************************************************
 125:.\Generated_Source\PSoC4/CYBLE.c ****  Summary:
 126:.\Generated_Source\PSoC4/CYBLE.c ****   Initializes the component with the parameters set in the customizer.
 127:.\Generated_Source\PSoC4/CYBLE.c **** 
 128:.\Generated_Source\PSoC4/CYBLE.c ****  Parameters:
ARM GAS  C:\Users\jdmoussa\AppData\Local\Temp\ccsp17ZB.s 			page 6


 129:.\Generated_Source\PSoC4/CYBLE.c ****   None
 130:.\Generated_Source\PSoC4/CYBLE.c **** 
 131:.\Generated_Source\PSoC4/CYBLE.c ****  Return:
 132:.\Generated_Source\PSoC4/CYBLE.c ****   None
 133:.\Generated_Source\PSoC4/CYBLE.c **** 
 134:.\Generated_Source\PSoC4/CYBLE.c **** ******************************************************************************/
 135:.\Generated_Source\PSoC4/CYBLE.c **** void CyBle_Init(void)
 136:.\Generated_Source\PSoC4/CYBLE.c **** {
 158              		.loc 1 136 0
 159              		.cfi_startproc
 160 0000 80B5     		push	{r7, lr}
 161              		.cfi_def_cfa_offset 8
 162              		.cfi_offset 7, -8
 163              		.cfi_offset 14, -4
 164 0002 00AF     		add	r7, sp, #0
 165              		.cfi_def_cfa_register 7
 137:.\Generated_Source\PSoC4/CYBLE.c ****     cyBle_eventHandlerFlag = 0u;
 166              		.loc 1 137 0
 167 0004 074B     		ldr	r3, .L2
 168 0006 0022     		mov	r2, #0
 169 0008 1A70     		strb	r2, [r3]
 138:.\Generated_Source\PSoC4/CYBLE.c ****     cyBle_busyStatus = CYBLE_STACK_STATE_FREE;
 170              		.loc 1 138 0
 171 000a 074B     		ldr	r3, .L2+4
 172 000c 0022     		mov	r2, #0
 173 000e 1A70     		strb	r2, [r3]
 139:.\Generated_Source\PSoC4/CYBLE.c ****     
 140:.\Generated_Source\PSoC4/CYBLE.c ****     #if(CYBLE_GAP_ROLE_PERIPHERAL || CYBLE_GAP_ROLE_BROADCASTER) 
 141:.\Generated_Source\PSoC4/CYBLE.c ****         cyBle_advertisingIntervalType = CYBLE_ADVERTISING_FAST; 
 174              		.loc 1 141 0
 175 0010 064B     		ldr	r3, .L2+8
 176 0012 0022     		mov	r2, #0
 177 0014 1A70     		strb	r2, [r3]
 142:.\Generated_Source\PSoC4/CYBLE.c ****     #endif /* (CYBLE_GAP_ROLE_PERIPHERAL || CYBLE_GAP_ROLE_BROADCASTER)  */
 143:.\Generated_Source\PSoC4/CYBLE.c ****     #if(CYBLE_GAP_ROLE_CENTRAL || CYBLE_GAP_ROLE_OBSERVER)
 144:.\Generated_Source\PSoC4/CYBLE.c ****         cyBle_scanningIntervalType = CYBLE_SCANNING_FAST; 
 145:.\Generated_Source\PSoC4/CYBLE.c ****     #endif /* (CYBLE_GAP_ROLE_CENTRAL || CYBLE_GAP_ROLE_OBSERVER) */
 146:.\Generated_Source\PSoC4/CYBLE.c ****         
 147:.\Generated_Source\PSoC4/CYBLE.c ****     /* Init default connection parameters. 
 148:.\Generated_Source\PSoC4/CYBLE.c ****        Application may change it before initiating a connection */
 149:.\Generated_Source\PSoC4/CYBLE.c ****     #if(CYBLE_GAP_ROLE_CENTRAL)
 150:.\Generated_Source\PSoC4/CYBLE.c ****         cyBle_connectionParameters.scanIntv = cyBle_discoveryInfo.scanIntv;
 151:.\Generated_Source\PSoC4/CYBLE.c ****         cyBle_connectionParameters.scanWindow = cyBle_discoveryInfo.scanWindow;
 152:.\Generated_Source\PSoC4/CYBLE.c ****         cyBle_connectionParameters.ownAddrType = cyBle_discoveryInfo.ownAddrType;
 153:.\Generated_Source\PSoC4/CYBLE.c ****         cyBle_connectionParameters.initiatorFilterPolicy = cyBle_discoveryInfo.scanFilterPolicy;
 154:.\Generated_Source\PSoC4/CYBLE.c ****         cyBle_connectionParameters.connIntvMin = CYBLE_GAPC_CONNECTION_INTERVAL_MIN;
 155:.\Generated_Source\PSoC4/CYBLE.c ****         cyBle_connectionParameters.connIntvMax = CYBLE_GAPC_CONNECTION_INTERVAL_MAX;
 156:.\Generated_Source\PSoC4/CYBLE.c ****         cyBle_connectionParameters.connLatency = CYBLE_GAPC_CONNECTION_SLAVE_LATENCY;
 157:.\Generated_Source\PSoC4/CYBLE.c ****         cyBle_connectionParameters.supervisionTO = CYBLE_GAPC_CONNECTION_TIME_OUT;
 158:.\Generated_Source\PSoC4/CYBLE.c ****         cyBle_connectionParameters.minCeLength = 0x0000u;
 159:.\Generated_Source\PSoC4/CYBLE.c ****         cyBle_connectionParameters.maxCeLength = 0xFFFFu;
 160:.\Generated_Source\PSoC4/CYBLE.c ****         
 161:.\Generated_Source\PSoC4/CYBLE.c ****         cyBle_connectingTimeout = CYBLE_GAPC_CONNECTING_TIMEOUT;
 162:.\Generated_Source\PSoC4/CYBLE.c ****     #endif /* CYBLE_GAP_ROLE_CENTRAL */
 163:.\Generated_Source\PSoC4/CYBLE.c **** 
 164:.\Generated_Source\PSoC4/CYBLE.c ****     CyBle_ServiceInit();
 178              		.loc 1 164 0
ARM GAS  C:\Users\jdmoussa\AppData\Local\Temp\ccsp17ZB.s 			page 7


 179 0016 FFF7FEFF 		bl	CyBle_ServiceInit
 165:.\Generated_Source\PSoC4/CYBLE.c **** 
 166:.\Generated_Source\PSoC4/CYBLE.c **** #if((CYBLE_GAP_ROLE_PERIPHERAL || CYBLE_GAP_ROLE_CENTRAL) && (CYBLE_BONDING_REQUIREMENT == CYBLE_BO
 167:.\Generated_Source\PSoC4/CYBLE.c ****     cyBle_pendingFlashWrite = 0u;
 180              		.loc 1 167 0
 181 001a 054B     		ldr	r3, .L2+12
 182 001c 0022     		mov	r2, #0
 183 001e 1A70     		strb	r2, [r3]
 168:.\Generated_Source\PSoC4/CYBLE.c **** #endif  /* (CYBLE_BONDING_REQUIREMENT == CYBLE_BONDING_YES) */
 169:.\Generated_Source\PSoC4/CYBLE.c **** 
 170:.\Generated_Source\PSoC4/CYBLE.c **** }
 184              		.loc 1 170 0
 185 0020 BD46     		mov	sp, r7
 186              		@ sp needed
 187 0022 80BD     		pop	{r7, pc}
 188              	.L3:
 189              		.align	2
 190              	.L2:
 191 0024 00000000 		.word	cyBle_eventHandlerFlag
 192 0028 00000000 		.word	cyBle_busyStatus
 193 002c 00000000 		.word	cyBle_advertisingIntervalType
 194 0030 00000000 		.word	cyBle_pendingFlashWrite
 195              		.cfi_endproc
 196              	.LFE2:
 197              		.size	CyBle_Init, .-CyBle_Init
 198              		.section	.text.CyBle_ServiceInit,"ax",%progbits
 199              		.align	2
 200              		.global	CyBle_ServiceInit
 201              		.code	16
 202              		.thumb_func
 203              		.type	CyBle_ServiceInit, %function
 204              	CyBle_ServiceInit:
 205              	.LFB3:
 171:.\Generated_Source\PSoC4/CYBLE.c **** 
 172:.\Generated_Source\PSoC4/CYBLE.c **** 
 173:.\Generated_Source\PSoC4/CYBLE.c **** /******************************************************************************
 174:.\Generated_Source\PSoC4/CYBLE.c **** ##Function Name: CyBle_ServiceInit
 175:.\Generated_Source\PSoC4/CYBLE.c **** *******************************************************************************
 176:.\Generated_Source\PSoC4/CYBLE.c **** 
 177:.\Generated_Source\PSoC4/CYBLE.c **** Summary:
 178:.\Generated_Source\PSoC4/CYBLE.c ****  Initializes all included services.
 179:.\Generated_Source\PSoC4/CYBLE.c **** 
 180:.\Generated_Source\PSoC4/CYBLE.c **** Parameters:
 181:.\Generated_Source\PSoC4/CYBLE.c ****  None
 182:.\Generated_Source\PSoC4/CYBLE.c **** 
 183:.\Generated_Source\PSoC4/CYBLE.c **** Return:
 184:.\Generated_Source\PSoC4/CYBLE.c ****  None
 185:.\Generated_Source\PSoC4/CYBLE.c **** 
 186:.\Generated_Source\PSoC4/CYBLE.c **** ******************************************************************************/
 187:.\Generated_Source\PSoC4/CYBLE.c **** void CyBle_ServiceInit(void)
 188:.\Generated_Source\PSoC4/CYBLE.c **** {
 206              		.loc 1 188 0
 207              		.cfi_startproc
 208 0000 80B5     		push	{r7, lr}
 209              		.cfi_def_cfa_offset 8
 210              		.cfi_offset 7, -8
 211              		.cfi_offset 14, -4
ARM GAS  C:\Users\jdmoussa\AppData\Local\Temp\ccsp17ZB.s 			page 8


 212 0002 00AF     		add	r7, sp, #0
 213              		.cfi_def_cfa_register 7
 189:.\Generated_Source\PSoC4/CYBLE.c ****     #if(CYBLE_GATT_ROLE_CLIENT)
 190:.\Generated_Source\PSoC4/CYBLE.c ****         (void)memset(&cyBle_gapc, 0, sizeof(cyBle_gapc));
 191:.\Generated_Source\PSoC4/CYBLE.c ****         (void)memset(&cyBle_gattc, 0, sizeof(cyBle_gattc));
 192:.\Generated_Source\PSoC4/CYBLE.c ****     #endif /* CYBLE_GATT_ROLE_CLIENT */
 193:.\Generated_Source\PSoC4/CYBLE.c ****     
 194:.\Generated_Source\PSoC4/CYBLE.c ****     #ifdef CYBLE_ANS
 195:.\Generated_Source\PSoC4/CYBLE.c ****         CyBle_AnsInit();
 196:.\Generated_Source\PSoC4/CYBLE.c ****     #endif /* CYBLE_ANS */
 197:.\Generated_Source\PSoC4/CYBLE.c ****     
 198:.\Generated_Source\PSoC4/CYBLE.c ****     #ifdef CYBLE_BAS
 199:.\Generated_Source\PSoC4/CYBLE.c ****         CyBle_BasInit();
 214              		.loc 1 199 0
 215 0004 FFF7FEFF 		bl	CyBle_BasInit
 200:.\Generated_Source\PSoC4/CYBLE.c ****     #endif /* CYBLE_BAS */
 201:.\Generated_Source\PSoC4/CYBLE.c ****     
 202:.\Generated_Source\PSoC4/CYBLE.c ****     #ifdef CYBLE_BLS
 203:.\Generated_Source\PSoC4/CYBLE.c ****         CyBle_BlsInit();
 216              		.loc 1 203 0
 217 0008 FFF7FEFF 		bl	CyBle_BlsInit
 204:.\Generated_Source\PSoC4/CYBLE.c ****     #endif /* CYBLE_BLS */
 205:.\Generated_Source\PSoC4/CYBLE.c ****     
 206:.\Generated_Source\PSoC4/CYBLE.c ****     #ifdef CYBLE_CGMS
 207:.\Generated_Source\PSoC4/CYBLE.c ****         CyBle_CgmsInit();
 208:.\Generated_Source\PSoC4/CYBLE.c ****     #endif /* CYBLE_CGMS */
 209:.\Generated_Source\PSoC4/CYBLE.c **** 
 210:.\Generated_Source\PSoC4/CYBLE.c ****     #ifdef CYBLE_CPS
 211:.\Generated_Source\PSoC4/CYBLE.c ****         CyBle_CpsInit();
 212:.\Generated_Source\PSoC4/CYBLE.c ****     #endif /* CYBLE_CPS */
 213:.\Generated_Source\PSoC4/CYBLE.c **** 
 214:.\Generated_Source\PSoC4/CYBLE.c ****     #ifdef CYBLE_CSCS
 215:.\Generated_Source\PSoC4/CYBLE.c ****         CyBle_CscsInit();
 216:.\Generated_Source\PSoC4/CYBLE.c ****     #endif /* CYBLE_CSCS */
 217:.\Generated_Source\PSoC4/CYBLE.c ****     
 218:.\Generated_Source\PSoC4/CYBLE.c ****     #ifdef CYBLE_CTS
 219:.\Generated_Source\PSoC4/CYBLE.c ****         CyBle_CtsInit();
 220:.\Generated_Source\PSoC4/CYBLE.c ****     #endif /* CYBLE_CTS */
 221:.\Generated_Source\PSoC4/CYBLE.c **** 
 222:.\Generated_Source\PSoC4/CYBLE.c ****     #ifdef CYBLE_DIS
 223:.\Generated_Source\PSoC4/CYBLE.c ****         CyBle_DisInit();
 218              		.loc 1 223 0
 219 000c FFF7FEFF 		bl	CyBle_DisInit
 224:.\Generated_Source\PSoC4/CYBLE.c ****     #endif /* CYBLE_DIS */
 225:.\Generated_Source\PSoC4/CYBLE.c **** 
 226:.\Generated_Source\PSoC4/CYBLE.c ****     #ifdef CYBLE_GLS
 227:.\Generated_Source\PSoC4/CYBLE.c ****         CyBle_GlsInit();
 228:.\Generated_Source\PSoC4/CYBLE.c ****     #endif /* CYBLE_GLS */
 229:.\Generated_Source\PSoC4/CYBLE.c ****     
 230:.\Generated_Source\PSoC4/CYBLE.c ****     #ifdef CYBLE_HIDS
 231:.\Generated_Source\PSoC4/CYBLE.c ****         CyBle_HidsInit();
 232:.\Generated_Source\PSoC4/CYBLE.c ****     #endif /* CYBLE_HIDS */
 233:.\Generated_Source\PSoC4/CYBLE.c **** 
 234:.\Generated_Source\PSoC4/CYBLE.c ****     #ifdef CYBLE_HRS
 235:.\Generated_Source\PSoC4/CYBLE.c ****         CyBle_HrsInit();
 236:.\Generated_Source\PSoC4/CYBLE.c ****     #endif /* CYBLE_HRS */
 237:.\Generated_Source\PSoC4/CYBLE.c ****     
ARM GAS  C:\Users\jdmoussa\AppData\Local\Temp\ccsp17ZB.s 			page 9


 238:.\Generated_Source\PSoC4/CYBLE.c ****     #ifdef CYBLE_HTS
 239:.\Generated_Source\PSoC4/CYBLE.c ****         CyBle_HtsInit();
 240:.\Generated_Source\PSoC4/CYBLE.c ****     #endif /* CYBLE_RSCS */
 241:.\Generated_Source\PSoC4/CYBLE.c **** 
 242:.\Generated_Source\PSoC4/CYBLE.c ****     #ifdef CYBLE_IAS
 243:.\Generated_Source\PSoC4/CYBLE.c ****         CyBle_IasInit();
 244:.\Generated_Source\PSoC4/CYBLE.c ****     #endif /* CYBLE_IAS */
 245:.\Generated_Source\PSoC4/CYBLE.c **** 
 246:.\Generated_Source\PSoC4/CYBLE.c ****     #ifdef CYBLE_LLS
 247:.\Generated_Source\PSoC4/CYBLE.c ****         CyBle_LlsInit();
 248:.\Generated_Source\PSoC4/CYBLE.c ****     #endif /* CYBLE_LLS */
 249:.\Generated_Source\PSoC4/CYBLE.c **** 
 250:.\Generated_Source\PSoC4/CYBLE.c ****     #ifdef CYBLE_RTUS
 251:.\Generated_Source\PSoC4/CYBLE.c ****         CyBle_RtusInit();
 252:.\Generated_Source\PSoC4/CYBLE.c ****     #endif /* CYBLE_RTUS */
 253:.\Generated_Source\PSoC4/CYBLE.c **** 
 254:.\Generated_Source\PSoC4/CYBLE.c ****     #ifdef CYBLE_LNS
 255:.\Generated_Source\PSoC4/CYBLE.c ****         CyBle_LnsInit();
 256:.\Generated_Source\PSoC4/CYBLE.c ****     #endif /* CYBLE_LNS */
 257:.\Generated_Source\PSoC4/CYBLE.c ****     
 258:.\Generated_Source\PSoC4/CYBLE.c ****     #ifdef CYBLE_PASS
 259:.\Generated_Source\PSoC4/CYBLE.c ****         CyBle_PassInit();
 260:.\Generated_Source\PSoC4/CYBLE.c ****     #endif /* CYBLE_PASS */
 261:.\Generated_Source\PSoC4/CYBLE.c ****     
 262:.\Generated_Source\PSoC4/CYBLE.c ****     #ifdef CYBLE_RSCS
 263:.\Generated_Source\PSoC4/CYBLE.c ****         CyBle_RscsInit();
 264:.\Generated_Source\PSoC4/CYBLE.c ****     #endif /* CYBLE_RSCS */
 265:.\Generated_Source\PSoC4/CYBLE.c **** 
 266:.\Generated_Source\PSoC4/CYBLE.c ****     #ifdef CYBLE_SCPS
 267:.\Generated_Source\PSoC4/CYBLE.c ****         CyBle_ScpsInit();
 268:.\Generated_Source\PSoC4/CYBLE.c ****     #endif /* CYBLE_SCPS */
 269:.\Generated_Source\PSoC4/CYBLE.c ****     
 270:.\Generated_Source\PSoC4/CYBLE.c ****     #ifdef CYBLE_TPS
 271:.\Generated_Source\PSoC4/CYBLE.c ****         CyBle_TpsInit();
 272:.\Generated_Source\PSoC4/CYBLE.c ****     #endif /* CYBLE_TPS */
 273:.\Generated_Source\PSoC4/CYBLE.c ****     
 274:.\Generated_Source\PSoC4/CYBLE.c ****     #ifdef CYBLE_UDS
 275:.\Generated_Source\PSoC4/CYBLE.c ****         CyBle_UdsInit();
 276:.\Generated_Source\PSoC4/CYBLE.c ****     #endif /* CYBLE_UDS */
 277:.\Generated_Source\PSoC4/CYBLE.c **** }
 220              		.loc 1 277 0
 221 0010 BD46     		mov	sp, r7
 222              		@ sp needed
 223 0012 80BD     		pop	{r7, pc}
 224              		.cfi_endproc
 225              	.LFE3:
 226              		.size	CyBle_ServiceInit, .-CyBle_ServiceInit
 227              		.section	.text.CyBle_Start,"ax",%progbits
 228              		.align	2
 229              		.global	CyBle_Start
 230              		.code	16
 231              		.thumb_func
 232              		.type	CyBle_Start, %function
 233              	CyBle_Start:
 234              	.LFB4:
 278:.\Generated_Source\PSoC4/CYBLE.c **** 
 279:.\Generated_Source\PSoC4/CYBLE.c **** 
ARM GAS  C:\Users\jdmoussa\AppData\Local\Temp\ccsp17ZB.s 			page 10


 280:.\Generated_Source\PSoC4/CYBLE.c **** /******************************************************************************
 281:.\Generated_Source\PSoC4/CYBLE.c **** ##Function Name: CyBle_Start
 282:.\Generated_Source\PSoC4/CYBLE.c **** *******************************************************************************
 283:.\Generated_Source\PSoC4/CYBLE.c **** 
 284:.\Generated_Source\PSoC4/CYBLE.c **** Summary:
 285:.\Generated_Source\PSoC4/CYBLE.c ****  This function initializes the BLE Stack, which consists of the BLE Stack 
 286:.\Generated_Source\PSoC4/CYBLE.c ****  Manager, BLE Controller, and BLE Host modules. It takes care of initializing
 287:.\Generated_Source\PSoC4/CYBLE.c ****  the Profile layer, schedulers, Timer and other platform related
 288:.\Generated_Source\PSoC4/CYBLE.c ****  resources required for the BLE component. It also registers the callback 
 289:.\Generated_Source\PSoC4/CYBLE.c ****  function for BLE events that will be registered in the BLE stack.
 290:.\Generated_Source\PSoC4/CYBLE.c **** 
 291:.\Generated_Source\PSoC4/CYBLE.c ****  Note that this function does not reset the BLE Stack.
 292:.\Generated_Source\PSoC4/CYBLE.c **** 
 293:.\Generated_Source\PSoC4/CYBLE.c ****  For HCI-Mode of operation, this function will not initialize the BLE Host 
 294:.\Generated_Source\PSoC4/CYBLE.c ****  module.
 295:.\Generated_Source\PSoC4/CYBLE.c **** 
 296:.\Generated_Source\PSoC4/CYBLE.c ****  Calling this function results in the generation of CYBLE_EVT_STACK_ON event
 297:.\Generated_Source\PSoC4/CYBLE.c ****  on successful initialization of the BLE Stack.
 298:.\Generated_Source\PSoC4/CYBLE.c **** 
 299:.\Generated_Source\PSoC4/CYBLE.c **** Parameters:
 300:.\Generated_Source\PSoC4/CYBLE.c ****  callbackFunc: Event callback function to receive events from BLE stack.
 301:.\Generated_Source\PSoC4/CYBLE.c ****   CYBLE_CALLBACK_T is a function pointer type.
 302:.\Generated_Source\PSoC4/CYBLE.c **** 
 303:.\Generated_Source\PSoC4/CYBLE.c **** Return:
 304:.\Generated_Source\PSoC4/CYBLE.c ****  CYBLE_API_RESULT_T : Return value indicates if the function succeeded or 
 305:.\Generated_Source\PSoC4/CYBLE.c ****  failed. Following are the possible error codes.
 306:.\Generated_Source\PSoC4/CYBLE.c ****  <table>
 307:.\Generated_Source\PSoC4/CYBLE.c ****   Errors codes                        Description
 308:.\Generated_Source\PSoC4/CYBLE.c ****   ------------                        -----------------
 309:.\Generated_Source\PSoC4/CYBLE.c ****   CYBLE_ERROR_OK                      On successful operation.
 310:.\Generated_Source\PSoC4/CYBLE.c ****   CYBLE_ERROR_INVALID_PARAMETER       On passing a NULL pointer to the 
 311:.\Generated_Source\PSoC4/CYBLE.c ****                                        function when the BLE stack is not 
 312:.\Generated_Source\PSoC4/CYBLE.c ****                                        built in HCI mode.
 313:.\Generated_Source\PSoC4/CYBLE.c ****                                        CYBLE_ERROR_INVALID_PARAMETER
 314:.\Generated_Source\PSoC4/CYBLE.c ****                                        is never returned in HCI mode.
 315:.\Generated_Source\PSoC4/CYBLE.c ****   CYBLE_ERROR_REPEATED_ATTEMPTS       On invoking this function more
 316:.\Generated_Source\PSoC4/CYBLE.c ****                                        than once without calling
 317:.\Generated_Source\PSoC4/CYBLE.c ****                                        CyBle_Shutdown() function 
 318:.\Generated_Source\PSoC4/CYBLE.c ****                                        between calls to this function.
 319:.\Generated_Source\PSoC4/CYBLE.c ****  </table>
 320:.\Generated_Source\PSoC4/CYBLE.c **** 
 321:.\Generated_Source\PSoC4/CYBLE.c **** ******************************************************************************/
 322:.\Generated_Source\PSoC4/CYBLE.c **** CYBLE_API_RESULT_T CyBle_Start(CYBLE_CALLBACK_T callbackFunc)
 323:.\Generated_Source\PSoC4/CYBLE.c **** {
 235              		.loc 1 323 0
 236              		.cfi_startproc
 237 0000 90B5     		push	{r4, r7, lr}
 238              		.cfi_def_cfa_offset 12
 239              		.cfi_offset 4, -12
 240              		.cfi_offset 7, -8
 241              		.cfi_offset 14, -4
 242 0002 85B0     		sub	sp, sp, #20
 243              		.cfi_def_cfa_offset 32
 244 0004 00AF     		add	r7, sp, #0
 245              		.cfi_def_cfa_register 7
 246 0006 7860     		str	r0, [r7, #4]
 324:.\Generated_Source\PSoC4/CYBLE.c ****     CYBLE_API_RESULT_T apiResult = CYBLE_ERROR_INVALID_PARAMETER;
ARM GAS  C:\Users\jdmoussa\AppData\Local\Temp\ccsp17ZB.s 			page 11


 247              		.loc 1 324 0
 248 0008 3B1C     		mov	r3, r7
 249 000a 0E33     		add	r3, r3, #14
 250 000c 0122     		mov	r2, #1
 251 000e 1A80     		strh	r2, [r3]
 325:.\Generated_Source\PSoC4/CYBLE.c ****     
 326:.\Generated_Source\PSoC4/CYBLE.c ****     /* Allocate RAM memory for stack */
 327:.\Generated_Source\PSoC4/CYBLE.c ****     CYBLE_CYALIGNED static uint8 cyBle_stackMemoryRam[CYBLE_STACK_RAM_SIZE];
 328:.\Generated_Source\PSoC4/CYBLE.c ****     
 329:.\Generated_Source\PSoC4/CYBLE.c ****     /* If not initialized then initialize all the required hardware and software */
 330:.\Generated_Source\PSoC4/CYBLE.c ****     if(cyBle_initVar == 0u)
 252              		.loc 1 330 0
 253 0010 194B     		ldr	r3, .L9
 254 0012 1B78     		ldrb	r3, [r3]
 255 0014 002B     		cmp	r3, #0
 256 0016 04D1     		bne	.L6
 331:.\Generated_Source\PSoC4/CYBLE.c ****     {
 332:.\Generated_Source\PSoC4/CYBLE.c ****         CyBle_Init();
 257              		.loc 1 332 0
 258 0018 FFF7FEFF 		bl	CyBle_Init
 333:.\Generated_Source\PSoC4/CYBLE.c ****         cyBle_initVar = 1u;
 259              		.loc 1 333 0
 260 001c 164B     		ldr	r3, .L9
 261 001e 0122     		mov	r2, #1
 262 0020 1A70     		strb	r2, [r3]
 263              	.L6:
 334:.\Generated_Source\PSoC4/CYBLE.c ****     }
 335:.\Generated_Source\PSoC4/CYBLE.c ****     
 336:.\Generated_Source\PSoC4/CYBLE.c ****     if(NULL != callbackFunc)
 264              		.loc 1 336 0
 265 0022 7B68     		ldr	r3, [r7, #4]
 266 0024 002B     		cmp	r3, #0
 267 0026 1FD0     		beq	.L7
 337:.\Generated_Source\PSoC4/CYBLE.c ****     {
 338:.\Generated_Source\PSoC4/CYBLE.c ****         CyBle_ApplCallback = callbackFunc;
 268              		.loc 1 338 0
 269 0028 144B     		ldr	r3, .L9+4
 270 002a 7A68     		ldr	r2, [r7, #4]
 271 002c 1A60     		str	r2, [r3]
 339:.\Generated_Source\PSoC4/CYBLE.c **** 
 340:.\Generated_Source\PSoC4/CYBLE.c ****         apiResult = CyBle_StackInit(&CyBle_EventHandler, cyBle_stackMemoryRam, CYBLE_GATT_MTU);
 272              		.loc 1 340 0
 273 002e 3C1C     		mov	r4, r7
 274 0030 0E34     		add	r4, r4, #14
 275 0032 134A     		ldr	r2, .L9+8
 276 0034 134B     		ldr	r3, .L9+12
 277 0036 101C     		mov	r0, r2
 278 0038 191C     		mov	r1, r3
 279 003a 1722     		mov	r2, #23
 280 003c FFF7FEFF 		bl	CyBle_StackInit
 281 0040 031C     		mov	r3, r0
 282 0042 2380     		strh	r3, [r4]
 341:.\Generated_Source\PSoC4/CYBLE.c **** 
 342:.\Generated_Source\PSoC4/CYBLE.c ****         if(apiResult == CYBLE_ERROR_OK)
 283              		.loc 1 342 0
 284 0044 3B1C     		mov	r3, r7
 285 0046 0E33     		add	r3, r3, #14
ARM GAS  C:\Users\jdmoussa\AppData\Local\Temp\ccsp17ZB.s 			page 12


 286 0048 1B88     		ldrh	r3, [r3]
 287 004a 002B     		cmp	r3, #0
 288 004c 0CD1     		bne	.L7
 343:.\Generated_Source\PSoC4/CYBLE.c ****         {
 344:.\Generated_Source\PSoC4/CYBLE.c ****             CyBle_SetState(CYBLE_STATE_INITIALIZING);
 289              		.loc 1 344 0
 290 004e 0E4B     		ldr	r3, .L9+16
 291 0050 0122     		mov	r2, #1
 292 0052 1A70     		strb	r2, [r3]
 345:.\Generated_Source\PSoC4/CYBLE.c ****             
 346:.\Generated_Source\PSoC4/CYBLE.c ****         #if (CYBLE_GATT_ROLE_CLIENT)
 347:.\Generated_Source\PSoC4/CYBLE.c ****             CyBle_SetClientState(CYBLE_CLIENT_STATE_DISCONNECTED);
 348:.\Generated_Source\PSoC4/CYBLE.c ****         #endif /* CYBLE_GATT_ROLE_CLIENT */
 349:.\Generated_Source\PSoC4/CYBLE.c ****             
 350:.\Generated_Source\PSoC4/CYBLE.c ****         #if(CYBLE_GATT_ROLE_SERVER)
 351:.\Generated_Source\PSoC4/CYBLE.c ****             apiResult = CyBle_GattsDbRegister(cyBle_gattDB, CYBLE_GATT_DB_INDEX_COUNT, CYBLE_GATT_D
 293              		.loc 1 351 0
 294 0054 3C1C     		mov	r4, r7
 295 0056 0E34     		add	r4, r4, #14
 296 0058 0C4B     		ldr	r3, .L9+20
 297 005a 181C     		mov	r0, r3
 298 005c 2C21     		mov	r1, #44
 299 005e 1522     		mov	r2, #21
 300 0060 FFF7FEFF 		bl	CyBle_GattsDbRegister
 301 0064 031C     		mov	r3, r0
 302 0066 2380     		strh	r3, [r4]
 303              	.L7:
 352:.\Generated_Source\PSoC4/CYBLE.c ****         #endif /* CYBLE_GATT_ROLE_SERVER */
 353:.\Generated_Source\PSoC4/CYBLE.c ****         }
 354:.\Generated_Source\PSoC4/CYBLE.c ****     }
 355:.\Generated_Source\PSoC4/CYBLE.c **** 
 356:.\Generated_Source\PSoC4/CYBLE.c ****     return (apiResult);
 304              		.loc 1 356 0
 305 0068 3B1C     		mov	r3, r7
 306 006a 0E33     		add	r3, r3, #14
 307 006c 1B88     		ldrh	r3, [r3]
 357:.\Generated_Source\PSoC4/CYBLE.c **** }
 308              		.loc 1 357 0
 309 006e 181C     		mov	r0, r3
 310 0070 BD46     		mov	sp, r7
 311 0072 05B0     		add	sp, sp, #20
 312              		@ sp needed
 313 0074 90BD     		pop	{r4, r7, pc}
 314              	.L10:
 315 0076 C046     		.align	2
 316              	.L9:
 317 0078 00000000 		.word	cyBle_initVar
 318 007c 00000000 		.word	CyBle_ApplCallback
 319 0080 00000000 		.word	CyBle_EventHandler
 320 0084 08000000 		.word	cyBle_stackMemoryRam.6149
 321 0088 00000000 		.word	cyBle_state
 322 008c 00000000 		.word	cyBle_gattDB
 323              		.cfi_endproc
 324              	.LFE4:
 325              		.size	CyBle_Start, .-CyBle_Start
 326              		.section	.text.CyBle_Stop,"ax",%progbits
 327              		.align	2
ARM GAS  C:\Users\jdmoussa\AppData\Local\Temp\ccsp17ZB.s 			page 13


 328              		.global	CyBle_Stop
 329              		.code	16
 330              		.thumb_func
 331              		.type	CyBle_Stop, %function
 332              	CyBle_Stop:
 333              	.LFB5:
 358:.\Generated_Source\PSoC4/CYBLE.c **** 
 359:.\Generated_Source\PSoC4/CYBLE.c **** 
 360:.\Generated_Source\PSoC4/CYBLE.c **** /******************************************************************************
 361:.\Generated_Source\PSoC4/CYBLE.c **** ##Function Name: CyBle_Stop
 362:.\Generated_Source\PSoC4/CYBLE.c **** *******************************************************************************
 363:.\Generated_Source\PSoC4/CYBLE.c **** 
 364:.\Generated_Source\PSoC4/CYBLE.c **** Summary:
 365:.\Generated_Source\PSoC4/CYBLE.c ****  This function stops any ongoing operation in the BLE Stack and forces the 
 366:.\Generated_Source\PSoC4/CYBLE.c ****  BLE Stack to shut down. The only function that can be called after calling
 367:.\Generated_Source\PSoC4/CYBLE.c ****  this function is CyBle_Start(). 
 368:.\Generated_Source\PSoC4/CYBLE.c **** 
 369:.\Generated_Source\PSoC4/CYBLE.c **** Parameters:
 370:.\Generated_Source\PSoC4/CYBLE.c ****  None
 371:.\Generated_Source\PSoC4/CYBLE.c **** 
 372:.\Generated_Source\PSoC4/CYBLE.c **** Return:
 373:.\Generated_Source\PSoC4/CYBLE.c ****  None
 374:.\Generated_Source\PSoC4/CYBLE.c **** 
 375:.\Generated_Source\PSoC4/CYBLE.c **** ******************************************************************************/
 376:.\Generated_Source\PSoC4/CYBLE.c **** void CyBle_Stop(void)
 377:.\Generated_Source\PSoC4/CYBLE.c **** {
 334              		.loc 1 377 0
 335              		.cfi_startproc
 336 0000 80B5     		push	{r7, lr}
 337              		.cfi_def_cfa_offset 8
 338              		.cfi_offset 7, -8
 339              		.cfi_offset 14, -4
 340 0002 00AF     		add	r7, sp, #0
 341              		.cfi_def_cfa_register 7
 378:.\Generated_Source\PSoC4/CYBLE.c ****     CyBle_Shutdown(); /* stop all ongoing activities */
 342              		.loc 1 378 0
 343 0004 FFF7FEFF 		bl	CyBle_Shutdown
 379:.\Generated_Source\PSoC4/CYBLE.c ****     CyBle_ProcessEvents(); /* process all pending events */
 344              		.loc 1 379 0
 345 0008 FFF7FEFF 		bl	CyBle_ProcessEvents
 380:.\Generated_Source\PSoC4/CYBLE.c ****     CyBle_SetState(CYBLE_STATE_STOPPED);
 346              		.loc 1 380 0
 347 000c 024B     		ldr	r3, .L12
 348 000e 0022     		mov	r2, #0
 349 0010 1A70     		strb	r2, [r3]
 381:.\Generated_Source\PSoC4/CYBLE.c **** }
 350              		.loc 1 381 0
 351 0012 BD46     		mov	sp, r7
 352              		@ sp needed
 353 0014 80BD     		pop	{r7, pc}
 354              	.L13:
 355 0016 C046     		.align	2
 356              	.L12:
 357 0018 00000000 		.word	cyBle_state
 358              		.cfi_endproc
 359              	.LFE5:
 360              		.size	CyBle_Stop, .-CyBle_Stop
ARM GAS  C:\Users\jdmoussa\AppData\Local\Temp\ccsp17ZB.s 			page 14


 361              		.section	.text.CyBle_StoreBondingData,"ax",%progbits
 362              		.align	2
 363              		.global	CyBle_StoreBondingData
 364              		.code	16
 365              		.thumb_func
 366              		.type	CyBle_StoreBondingData, %function
 367              	CyBle_StoreBondingData:
 368              	.LFB6:
 382:.\Generated_Source\PSoC4/CYBLE.c **** 
 383:.\Generated_Source\PSoC4/CYBLE.c **** 
 384:.\Generated_Source\PSoC4/CYBLE.c **** #if((CYBLE_GAP_ROLE_PERIPHERAL || CYBLE_GAP_ROLE_CENTRAL) && (CYBLE_BONDING_REQUIREMENT == CYBLE_BO
 385:.\Generated_Source\PSoC4/CYBLE.c **** 
 386:.\Generated_Source\PSoC4/CYBLE.c ****     
 387:.\Generated_Source\PSoC4/CYBLE.c **** /******************************************************************************
 388:.\Generated_Source\PSoC4/CYBLE.c **** ##Function Name: CyBle_StoreBondingData
 389:.\Generated_Source\PSoC4/CYBLE.c **** *******************************************************************************
 390:.\Generated_Source\PSoC4/CYBLE.c **** 
 391:.\Generated_Source\PSoC4/CYBLE.c **** Summary:
 392:.\Generated_Source\PSoC4/CYBLE.c ****  This function writes the new bonding data from RAM to the dedicated Flash 
 393:.\Generated_Source\PSoC4/CYBLE.c ****  location as defined by the component. It performs data comparing between RAM
 394:.\Generated_Source\PSoC4/CYBLE.c ****  and Flash before writing to Flash. If there is no change between RAM and Flash
 395:.\Generated_Source\PSoC4/CYBLE.c ****  data, then no write is performed. It writes only one flash row in one call.
 396:.\Generated_Source\PSoC4/CYBLE.c ****  Application should keep calling this function till API return CYBLE_ERROR_OK. 
 397:.\Generated_Source\PSoC4/CYBLE.c ****  This function is available only when Bonding requirement is selected in
 398:.\Generated_Source\PSoC4/CYBLE.c ****  Security settings.    
 399:.\Generated_Source\PSoC4/CYBLE.c ****     
 400:.\Generated_Source\PSoC4/CYBLE.c **** Parameters:
 401:.\Generated_Source\PSoC4/CYBLE.c ****  isForceWrite:  If value is set to 0, then stack will check if flash write 
 402:.\Generated_Source\PSoC4/CYBLE.c ****                 is permissible. 
 403:.\Generated_Source\PSoC4/CYBLE.c ****  
 404:.\Generated_Source\PSoC4/CYBLE.c **** Return:
 405:.\Generated_Source\PSoC4/CYBLE.c ****  Return value is of type CYBLE_API_RESULT_T.
 406:.\Generated_Source\PSoC4/CYBLE.c ****  * CYBLE_ERROR_OK - On successful operation
 407:.\Generated_Source\PSoC4/CYBLE.c ****  * CYBLE_ERROR_FLASH_WRITE_NOT_PERMITED - Flash Write is not complete
 408:.\Generated_Source\PSoC4/CYBLE.c ****    
 409:.\Generated_Source\PSoC4/CYBLE.c ****  Side Effects:
 410:.\Generated_Source\PSoC4/CYBLE.c ****   This API will automatically modify the clock settings for the device.
 411:.\Generated_Source\PSoC4/CYBLE.c ****   Writing to flash requires changes to be done to the IMO (set to 48 MHz)
 412:.\Generated_Source\PSoC4/CYBLE.c ****   and HFCLK (source set to IMO) settings. The configuration is restored before
 413:.\Generated_Source\PSoC4/CYBLE.c ****   returning. This will impact the operation of most of the hardware in the
 414:.\Generated_Source\PSoC4/CYBLE.c ****   device.
 415:.\Generated_Source\PSoC4/CYBLE.c **** 
 416:.\Generated_Source\PSoC4/CYBLE.c **** ******************************************************************************/
 417:.\Generated_Source\PSoC4/CYBLE.c **** CYBLE_API_RESULT_T CyBle_StoreBondingData(uint8 isForceWrite)
 418:.\Generated_Source\PSoC4/CYBLE.c **** {
 369              		.loc 1 418 0
 370              		.cfi_startproc
 371 0000 90B5     		push	{r4, r7, lr}
 372              		.cfi_def_cfa_offset 12
 373              		.cfi_offset 4, -12
 374              		.cfi_offset 7, -8
 375              		.cfi_offset 14, -4
 376 0002 85B0     		sub	sp, sp, #20
 377              		.cfi_def_cfa_offset 32
 378 0004 00AF     		add	r7, sp, #0
 379              		.cfi_def_cfa_register 7
 380 0006 021C     		mov	r2, r0
ARM GAS  C:\Users\jdmoussa\AppData\Local\Temp\ccsp17ZB.s 			page 15


 381 0008 FB1D     		add	r3, r7, #7
 382 000a 1A70     		strb	r2, [r3]
 419:.\Generated_Source\PSoC4/CYBLE.c ****     CYBLE_API_RESULT_T apiResult = CYBLE_ERROR_OK;
 383              		.loc 1 419 0
 384 000c 3B1C     		mov	r3, r7
 385 000e 0E33     		add	r3, r3, #14
 386 0010 0022     		mov	r2, #0
 387 0012 1A80     		strh	r2, [r3]
 420:.\Generated_Source\PSoC4/CYBLE.c ****     
 421:.\Generated_Source\PSoC4/CYBLE.c ****     /* Store Stack data */
 422:.\Generated_Source\PSoC4/CYBLE.c ****     if((cyBle_pendingFlashWrite & CYBLE_PENDING_STACK_FLASH_WRITE_BIT) != 0u)
 388              		.loc 1 422 0
 389 0014 2D4B     		ldr	r3, .L19
 390 0016 1B78     		ldrb	r3, [r3]
 391 0018 1A1C     		mov	r2, r3
 392 001a 0123     		mov	r3, #1
 393 001c 1340     		and	r3, r2
 394 001e 1ED0     		beq	.L15
 423:.\Generated_Source\PSoC4/CYBLE.c ****     {
 424:.\Generated_Source\PSoC4/CYBLE.c ****         apiResult = CyBle_StoreStackData(isForceWrite);
 395              		.loc 1 424 0
 396 0020 3C1C     		mov	r4, r7
 397 0022 0E34     		add	r4, r4, #14
 398 0024 FB1D     		add	r3, r7, #7
 399 0026 1B78     		ldrb	r3, [r3]
 400 0028 181C     		mov	r0, r3
 401 002a FFF7FEFF 		bl	CyBle_StoreStackData
 402 002e 031C     		mov	r3, r0
 403 0030 2380     		strh	r3, [r4]
 425:.\Generated_Source\PSoC4/CYBLE.c ****         if(apiResult == CYBLE_ERROR_OK)
 404              		.loc 1 425 0
 405 0032 3B1C     		mov	r3, r7
 406 0034 0E33     		add	r3, r3, #14
 407 0036 1B88     		ldrh	r3, [r3]
 408 0038 002B     		cmp	r3, #0
 409 003a 10D1     		bne	.L15
 426:.\Generated_Source\PSoC4/CYBLE.c ****         {
 427:.\Generated_Source\PSoC4/CYBLE.c ****             cyBle_pendingFlashWrite &= (uint8)~CYBLE_PENDING_STACK_FLASH_WRITE_BIT;
 410              		.loc 1 427 0
 411 003c 234B     		ldr	r3, .L19
 412 003e 1B78     		ldrb	r3, [r3]
 413 0040 0122     		mov	r2, #1
 414 0042 9343     		bic	r3, r2
 415 0044 DAB2     		uxtb	r2, r3
 416 0046 214B     		ldr	r3, .L19
 417 0048 1A70     		strb	r2, [r3]
 428:.\Generated_Source\PSoC4/CYBLE.c ****             /* Change apiResult if there are more pending data to store */
 429:.\Generated_Source\PSoC4/CYBLE.c ****             if((cyBle_pendingFlashWrite & CYBLE_PENDING_CCCD_FLASH_WRITE_BIT) != 0u)
 418              		.loc 1 429 0
 419 004a 204B     		ldr	r3, .L19
 420 004c 1B78     		ldrb	r3, [r3]
 421 004e 1A1C     		mov	r2, r3
 422 0050 0223     		mov	r3, #2
 423 0052 1340     		and	r3, r2
 424 0054 03D0     		beq	.L15
 430:.\Generated_Source\PSoC4/CYBLE.c ****             {
 431:.\Generated_Source\PSoC4/CYBLE.c ****                 apiResult = CYBLE_ERROR_FLASH_WRITE_NOT_PERMITED;
ARM GAS  C:\Users\jdmoussa\AppData\Local\Temp\ccsp17ZB.s 			page 16


 425              		.loc 1 431 0
 426 0056 3B1C     		mov	r3, r7
 427 0058 0E33     		add	r3, r3, #14
 428 005a 2822     		mov	r2, #40
 429 005c 1A80     		strh	r2, [r3]
 430              	.L15:
 432:.\Generated_Source\PSoC4/CYBLE.c ****             }
 433:.\Generated_Source\PSoC4/CYBLE.c ****         }
 434:.\Generated_Source\PSoC4/CYBLE.c ****     }
 435:.\Generated_Source\PSoC4/CYBLE.c **** #if(CYBLE_GATT_DB_CCCD_COUNT != 0u)
 436:.\Generated_Source\PSoC4/CYBLE.c ****     /* Store CCCD values */
 437:.\Generated_Source\PSoC4/CYBLE.c ****     if( ((apiResult == CYBLE_ERROR_OK) || (isForceWrite != 0u)) && 
 431              		.loc 1 437 0
 432 005e 3B1C     		mov	r3, r7
 433 0060 0E33     		add	r3, r3, #14
 434 0062 1B88     		ldrh	r3, [r3]
 435 0064 002B     		cmp	r3, #0
 436 0066 03D0     		beq	.L16
 437              		.loc 1 437 0 is_stmt 0 discriminator 2
 438 0068 FB1D     		add	r3, r7, #7
 439 006a 1B78     		ldrb	r3, [r3]
 440 006c 002B     		cmp	r3, #0
 441 006e 26D0     		beq	.L17
 442              	.L16:
 438:.\Generated_Source\PSoC4/CYBLE.c ****         ((cyBle_pendingFlashWrite & CYBLE_PENDING_CCCD_FLASH_WRITE_BIT) != 0u) &&
 443              		.loc 1 438 0 is_stmt 1 discriminator 1
 444 0070 164B     		ldr	r3, .L19
 445 0072 1B78     		ldrb	r3, [r3]
 446 0074 1A1C     		mov	r2, r3
 447 0076 0223     		mov	r3, #2
 448 0078 1340     		and	r3, r2
 437:.\Generated_Source\PSoC4/CYBLE.c ****     if( ((apiResult == CYBLE_ERROR_OK) || (isForceWrite != 0u)) && 
 449              		.loc 1 437 0 discriminator 1
 450 007a 20D0     		beq	.L17
 439:.\Generated_Source\PSoC4/CYBLE.c ****         (cyBle_connHandle.bdHandle <= CYBLE_GAP_MAX_BONDED_DEVICE))
 451              		.loc 1 439 0
 452 007c 144B     		ldr	r3, .L19+4
 453 007e 1B78     		ldrb	r3, [r3]
 438:.\Generated_Source\PSoC4/CYBLE.c ****         ((cyBle_pendingFlashWrite & CYBLE_PENDING_CCCD_FLASH_WRITE_BIT) != 0u) &&
 454              		.loc 1 438 0
 455 0080 042B     		cmp	r3, #4
 456 0082 1CD8     		bhi	.L17
 440:.\Generated_Source\PSoC4/CYBLE.c ****     {
 441:.\Generated_Source\PSoC4/CYBLE.c ****         apiResult = CyBle_StoreAppData(cyBle_attValuesCCCD, cyBle_attValuesCCCDFlashMemory[cyBle_co
 457              		.loc 1 441 0
 458 0084 124B     		ldr	r3, .L19+4
 459 0086 1B78     		ldrb	r3, [r3]
 460 0088 DA00     		lsl	r2, r3, #3
 461 008a 124B     		ldr	r3, .L19+8
 462 008c D218     		add	r2, r2, r3
 463 008e 3C1C     		mov	r4, r7
 464 0090 0E34     		add	r4, r4, #14
 465 0092 1149     		ldr	r1, .L19+12
 466 0094 FB1D     		add	r3, r7, #7
 467 0096 1B78     		ldrb	r3, [r3]
 468 0098 081C     		mov	r0, r1
 469 009a 111C     		mov	r1, r2
ARM GAS  C:\Users\jdmoussa\AppData\Local\Temp\ccsp17ZB.s 			page 17


 470 009c 0822     		mov	r2, #8
 471 009e FFF7FEFF 		bl	CyBle_StoreAppData
 472 00a2 031C     		mov	r3, r0
 473 00a4 2380     		strh	r3, [r4]
 442:.\Generated_Source\PSoC4/CYBLE.c ****                                        CYBLE_GATT_DB_CCCD_COUNT, isForceWrite);
 443:.\Generated_Source\PSoC4/CYBLE.c ****         if(apiResult == CYBLE_ERROR_OK)
 474              		.loc 1 443 0
 475 00a6 3B1C     		mov	r3, r7
 476 00a8 0E33     		add	r3, r3, #14
 477 00aa 1B88     		ldrh	r3, [r3]
 478 00ac 002B     		cmp	r3, #0
 479 00ae 06D1     		bne	.L17
 444:.\Generated_Source\PSoC4/CYBLE.c ****         {
 445:.\Generated_Source\PSoC4/CYBLE.c ****             cyBle_pendingFlashWrite &= (uint8)~CYBLE_PENDING_CCCD_FLASH_WRITE_BIT;
 480              		.loc 1 445 0
 481 00b0 064B     		ldr	r3, .L19
 482 00b2 1B78     		ldrb	r3, [r3]
 483 00b4 0222     		mov	r2, #2
 484 00b6 9343     		bic	r3, r2
 485 00b8 DAB2     		uxtb	r2, r3
 486 00ba 044B     		ldr	r3, .L19
 487 00bc 1A70     		strb	r2, [r3]
 488              	.L17:
 446:.\Generated_Source\PSoC4/CYBLE.c ****         }
 447:.\Generated_Source\PSoC4/CYBLE.c ****     }
 448:.\Generated_Source\PSoC4/CYBLE.c **** #endif /* CYBLE_GATT_DB_CCCD_COUNT != 0u */
 449:.\Generated_Source\PSoC4/CYBLE.c ****     return(apiResult);
 489              		.loc 1 449 0
 490 00be 3B1C     		mov	r3, r7
 491 00c0 0E33     		add	r3, r3, #14
 492 00c2 1B88     		ldrh	r3, [r3]
 450:.\Generated_Source\PSoC4/CYBLE.c **** }
 493              		.loc 1 450 0
 494 00c4 181C     		mov	r0, r3
 495 00c6 BD46     		mov	sp, r7
 496 00c8 05B0     		add	sp, sp, #20
 497              		@ sp needed
 498 00ca 90BD     		pop	{r4, r7, pc}
 499              	.L20:
 500              		.align	2
 501              	.L19:
 502 00cc 00000000 		.word	cyBle_pendingFlashWrite
 503 00d0 00000000 		.word	cyBle_connHandle
 504 00d4 00000000 		.word	cyBle_attValuesCCCDFlashMemory
 505 00d8 00000000 		.word	cyBle_attValuesCCCD
 506              		.cfi_endproc
 507              	.LFE6:
 508              		.size	CyBle_StoreBondingData, .-CyBle_StoreBondingData
 509              		.section	.text.CyBle_GappStartAdvertisement,"ax",%progbits
 510              		.align	2
 511              		.global	CyBle_GappStartAdvertisement
 512              		.code	16
 513              		.thumb_func
 514              		.type	CyBle_GappStartAdvertisement, %function
 515              	CyBle_GappStartAdvertisement:
 516              	.LFB7:
 451:.\Generated_Source\PSoC4/CYBLE.c **** 
ARM GAS  C:\Users\jdmoussa\AppData\Local\Temp\ccsp17ZB.s 			page 18


 452:.\Generated_Source\PSoC4/CYBLE.c **** 
 453:.\Generated_Source\PSoC4/CYBLE.c **** #endif /* (CYBLE_GAP_ROLE_PERIPHERAL || CYBLE_GAP_ROLE_CENTRAL) && (CYBLE_BONDING_REQUIREMENT == CY
 454:.\Generated_Source\PSoC4/CYBLE.c **** 
 455:.\Generated_Source\PSoC4/CYBLE.c **** 
 456:.\Generated_Source\PSoC4/CYBLE.c **** #if(CYBLE_GAP_ROLE_PERIPHERAL || CYBLE_GAP_ROLE_BROADCASTER)
 457:.\Generated_Source\PSoC4/CYBLE.c **** 
 458:.\Generated_Source\PSoC4/CYBLE.c ****     /******************************************************************************
 459:.\Generated_Source\PSoC4/CYBLE.c ****     ##Function Name: CyBle_GappStartAdvertisement
 460:.\Generated_Source\PSoC4/CYBLE.c ****     *******************************************************************************
 461:.\Generated_Source\PSoC4/CYBLE.c ****     
 462:.\Generated_Source\PSoC4/CYBLE.c ****     Summary:
 463:.\Generated_Source\PSoC4/CYBLE.c ****      This function is used to start the advertisement using the advertisement data 
 464:.\Generated_Source\PSoC4/CYBLE.c ****      set in the component customizer's GUI. After invoking this API, the device 
 465:.\Generated_Source\PSoC4/CYBLE.c ****      will be available for connection by the devices configured for GAP central 
 466:.\Generated_Source\PSoC4/CYBLE.c ****      role. It is only included if the device is configured for GAP Peripheral or 
 467:.\Generated_Source\PSoC4/CYBLE.c ****      GAP Peripheral + Central role.
 468:.\Generated_Source\PSoC4/CYBLE.c ****      
 469:.\Generated_Source\PSoC4/CYBLE.c ****      On start of advertisement, GAP Peripheral receives the
 470:.\Generated_Source\PSoC4/CYBLE.c ****      CYBLE_EVT_GAPP_ADVERTISEMENT_START_STOP event. The following events are 
 471:.\Generated_Source\PSoC4/CYBLE.c ****      possible on invoking this function:
 472:.\Generated_Source\PSoC4/CYBLE.c ****      
 473:.\Generated_Source\PSoC4/CYBLE.c ****      * CYBLE_EVT_GAP_DEVICE_CONNECTED: If the device connects to remote GAP 
 474:.\Generated_Source\PSoC4/CYBLE.c ****                                          Central device
 475:.\Generated_Source\PSoC4/CYBLE.c ****      * CYBLE_EVT_TIMEOUT: If no device in GAP Central mode connects to this 
 476:.\Generated_Source\PSoC4/CYBLE.c ****                           device within the specified timeout limit. Stack 
 477:.\Generated_Source\PSoC4/CYBLE.c ****                           automatically initiate stop advertising when Slow 
 478:.\Generated_Source\PSoC4/CYBLE.c ****                           advertising was initiated, or starts Slow advertising
 479:.\Generated_Source\PSoC4/CYBLE.c ****                           after Fast advertising timeout occur.
 480:.\Generated_Source\PSoC4/CYBLE.c ****      * CYBLE_EVT_GAPP_ADVERTISEMENT_START_STOP: If device started or stopped
 481:.\Generated_Source\PSoC4/CYBLE.c ****                                                   advertising. Use CyBle_GetState()
 482:.\Generated_Source\PSoC4/CYBLE.c ****                                                   to determine the state. Sequential 
 483:.\Generated_Source\PSoC4/CYBLE.c ****                                                   advertising could be started when
 484:.\Generated_Source\PSoC4/CYBLE.c ****                                                   CYBLE_STATE_DISCONNECTED state is
 485:.\Generated_Source\PSoC4/CYBLE.c ****                                                   returned.
 486:.\Generated_Source\PSoC4/CYBLE.c **** 
 487:.\Generated_Source\PSoC4/CYBLE.c ****     Parameters:
 488:.\Generated_Source\PSoC4/CYBLE.c ****      uint8 advertisingIntervalType: Fast or slow advertising interval with timings
 489:.\Generated_Source\PSoC4/CYBLE.c ****                                     entered in Advertising settings section of the
 490:.\Generated_Source\PSoC4/CYBLE.c ****                                     customizer.
 491:.\Generated_Source\PSoC4/CYBLE.c ****      * CYBLE_ADVERTISING_FAST   0x00u
 492:.\Generated_Source\PSoC4/CYBLE.c ****      * CYBLE_ADVERTISING_SLOW   0x01u
 493:.\Generated_Source\PSoC4/CYBLE.c ****      * CYBLE_ADVERTISING_CUSTOM 0x02u
 494:.\Generated_Source\PSoC4/CYBLE.c ****     
 495:.\Generated_Source\PSoC4/CYBLE.c ****     Return:
 496:.\Generated_Source\PSoC4/CYBLE.c ****      CYBLE_API_RESULT_T : Return value indicates if the function succeeded or
 497:.\Generated_Source\PSoC4/CYBLE.c ****      failed. Following are the possible error codes.
 498:.\Generated_Source\PSoC4/CYBLE.c ****      <table>
 499:.\Generated_Source\PSoC4/CYBLE.c ****       Errors codes                        Description
 500:.\Generated_Source\PSoC4/CYBLE.c ****       ------------                        -----------
 501:.\Generated_Source\PSoC4/CYBLE.c ****       CYBLE_ERROR_OK                      On successful operation.
 502:.\Generated_Source\PSoC4/CYBLE.c ****       CYBLE_ERROR_INVALID_PARAMETER       On passing an invalid parameter.
 503:.\Generated_Source\PSoC4/CYBLE.c ****      </table>
 504:.\Generated_Source\PSoC4/CYBLE.c ****     
 505:.\Generated_Source\PSoC4/CYBLE.c ****     ******************************************************************************/
 506:.\Generated_Source\PSoC4/CYBLE.c ****     CYBLE_API_RESULT_T CyBle_GappStartAdvertisement(uint8 advertisingIntervalType)
 507:.\Generated_Source\PSoC4/CYBLE.c ****     {
 517              		.loc 1 507 0
ARM GAS  C:\Users\jdmoussa\AppData\Local\Temp\ccsp17ZB.s 			page 19


 518              		.cfi_startproc
 519 0000 90B5     		push	{r4, r7, lr}
 520              		.cfi_def_cfa_offset 12
 521              		.cfi_offset 4, -12
 522              		.cfi_offset 7, -8
 523              		.cfi_offset 14, -4
 524 0002 85B0     		sub	sp, sp, #20
 525              		.cfi_def_cfa_offset 32
 526 0004 00AF     		add	r7, sp, #0
 527              		.cfi_def_cfa_register 7
 528 0006 021C     		mov	r2, r0
 529 0008 FB1D     		add	r3, r7, #7
 530 000a 1A70     		strb	r2, [r3]
 508:.\Generated_Source\PSoC4/CYBLE.c ****         CYBLE_API_RESULT_T apiResult;
 509:.\Generated_Source\PSoC4/CYBLE.c ****         
 510:.\Generated_Source\PSoC4/CYBLE.c ****         if((CYBLE_STATE_DISCONNECTED == CyBle_GetState()) && ((cyBle_eventHandlerFlag & CYBLE_START
 531              		.loc 1 510 0
 532 000c 294B     		ldr	r3, .L28
 533 000e 1B78     		ldrb	r3, [r3]
 534 0010 042B     		cmp	r3, #4
 535 0012 42D1     		bne	.L22
 536              		.loc 1 510 0 is_stmt 0 discriminator 1
 537 0014 284B     		ldr	r3, .L28+4
 538 0016 1B78     		ldrb	r3, [r3]
 539 0018 DBB2     		uxtb	r3, r3
 540 001a 1A1C     		mov	r2, r3
 541 001c 0423     		mov	r3, #4
 542 001e 1340     		and	r3, r2
 543 0020 3BD1     		bne	.L22
 511:.\Generated_Source\PSoC4/CYBLE.c ****         {   
 512:.\Generated_Source\PSoC4/CYBLE.c ****             if(advertisingIntervalType == CYBLE_ADVERTISING_FAST)
 544              		.loc 1 512 0 is_stmt 1
 545 0022 FB1D     		add	r3, r7, #7
 546 0024 1B78     		ldrb	r3, [r3]
 547 0026 002B     		cmp	r3, #0
 548 0028 0BD1     		bne	.L23
 513:.\Generated_Source\PSoC4/CYBLE.c ****             {
 514:.\Generated_Source\PSoC4/CYBLE.c ****                 cyBle_discoveryModeInfo.advTo = CYBLE_FAST_ADV_TIMEOUT;
 549              		.loc 1 514 0
 550 002a 244B     		ldr	r3, .L28+8
 551 002c 1E22     		mov	r2, #30
 552 002e 1A82     		strh	r2, [r3, #16]
 515:.\Generated_Source\PSoC4/CYBLE.c ****                 cyBle_discoveryModeInfo.advParam->advIntvMin = CYBLE_FAST_ADV_INT_MIN;
 553              		.loc 1 515 0
 554 0030 224B     		ldr	r3, .L28+8
 555 0032 5B68     		ldr	r3, [r3, #4]
 556 0034 2022     		mov	r2, #32
 557 0036 1A80     		strh	r2, [r3]
 516:.\Generated_Source\PSoC4/CYBLE.c ****                 cyBle_discoveryModeInfo.advParam->advIntvMax = CYBLE_FAST_ADV_INT_MAX;
 558              		.loc 1 516 0
 559 0038 204B     		ldr	r3, .L28+8
 560 003a 5B68     		ldr	r3, [r3, #4]
 561 003c 3022     		mov	r2, #48
 562 003e 5A80     		strh	r2, [r3, #2]
 563 0040 10E0     		b	.L24
 564              	.L23:
 517:.\Generated_Source\PSoC4/CYBLE.c ****             }
ARM GAS  C:\Users\jdmoussa\AppData\Local\Temp\ccsp17ZB.s 			page 20


 518:.\Generated_Source\PSoC4/CYBLE.c ****             else if(advertisingIntervalType == CYBLE_ADVERTISING_SLOW)
 565              		.loc 1 518 0
 566 0042 FB1D     		add	r3, r7, #7
 567 0044 1B78     		ldrb	r3, [r3]
 568 0046 012B     		cmp	r3, #1
 569 0048 0CD1     		bne	.L24
 519:.\Generated_Source\PSoC4/CYBLE.c ****             {
 520:.\Generated_Source\PSoC4/CYBLE.c ****                 cyBle_discoveryModeInfo.advTo = CYBLE_SLOW_ADV_TIMEOUT;
 570              		.loc 1 520 0
 571 004a 1C4B     		ldr	r3, .L28+8
 572 004c 9622     		mov	r2, #150
 573 004e 1A82     		strh	r2, [r3, #16]
 521:.\Generated_Source\PSoC4/CYBLE.c ****                 cyBle_discoveryModeInfo.advParam->advIntvMin = CYBLE_SLOW_ADV_INT_MIN;
 574              		.loc 1 521 0
 575 0050 1A4B     		ldr	r3, .L28+8
 576 0052 5B68     		ldr	r3, [r3, #4]
 577 0054 C822     		mov	r2, #200
 578 0056 D200     		lsl	r2, r2, #3
 579 0058 1A80     		strh	r2, [r3]
 522:.\Generated_Source\PSoC4/CYBLE.c ****                 cyBle_discoveryModeInfo.advParam->advIntvMax = CYBLE_SLOW_ADV_INT_MAX;
 580              		.loc 1 522 0
 581 005a 184B     		ldr	r3, .L28+8
 582 005c 5B68     		ldr	r3, [r3, #4]
 583 005e FA22     		mov	r2, #250
 584 0060 1201     		lsl	r2, r2, #4
 585 0062 5A80     		strh	r2, [r3, #2]
 586              	.L24:
 523:.\Generated_Source\PSoC4/CYBLE.c ****             }       
 524:.\Generated_Source\PSoC4/CYBLE.c ****             else /* Do not update advertising intervals */
 525:.\Generated_Source\PSoC4/CYBLE.c ****             {
 526:.\Generated_Source\PSoC4/CYBLE.c ****             }
 527:.\Generated_Source\PSoC4/CYBLE.c ****             cyBle_advertisingIntervalType = advertisingIntervalType;
 587              		.loc 1 527 0
 588 0064 164B     		ldr	r3, .L28+12
 589 0066 FA1D     		add	r2, r7, #7
 590 0068 1278     		ldrb	r2, [r2]
 591 006a 1A70     		strb	r2, [r3]
 528:.\Generated_Source\PSoC4/CYBLE.c ****             apiResult = CyBle_GappEnterDiscoveryMode(&cyBle_discoveryModeInfo);
 592              		.loc 1 528 0
 593 006c 3C1C     		mov	r4, r7
 594 006e 0E34     		add	r4, r4, #14
 595 0070 124B     		ldr	r3, .L28+8
 596 0072 181C     		mov	r0, r3
 597 0074 FFF7FEFF 		bl	CyBle_GappEnterDiscoveryMode
 598 0078 031C     		mov	r3, r0
 599 007a 2380     		strh	r3, [r4]
 529:.\Generated_Source\PSoC4/CYBLE.c ****         
 530:.\Generated_Source\PSoC4/CYBLE.c ****             if(CYBLE_ERROR_OK == apiResult)
 600              		.loc 1 530 0
 601 007c 3B1C     		mov	r3, r7
 602 007e 0E33     		add	r3, r3, #14
 603 0080 1B88     		ldrh	r3, [r3]
 604 0082 002B     		cmp	r3, #0
 605 0084 08D1     		bne	.L25
 531:.\Generated_Source\PSoC4/CYBLE.c ****             {
 532:.\Generated_Source\PSoC4/CYBLE.c ****                 cyBle_eventHandlerFlag |= CYBLE_START_FLAG;
 606              		.loc 1 532 0
ARM GAS  C:\Users\jdmoussa\AppData\Local\Temp\ccsp17ZB.s 			page 21


 607 0086 0C4B     		ldr	r3, .L28+4
 608 0088 1B78     		ldrb	r3, [r3]
 609 008a DBB2     		uxtb	r3, r3
 610 008c 0422     		mov	r2, #4
 611 008e 1343     		orr	r3, r2
 612 0090 DAB2     		uxtb	r2, r3
 613 0092 094B     		ldr	r3, .L28+4
 614 0094 1A70     		strb	r2, [r3]
 530:.\Generated_Source\PSoC4/CYBLE.c ****             if(CYBLE_ERROR_OK == apiResult)
 615              		.loc 1 530 0
 616 0096 05E0     		b	.L26
 617              	.L25:
 530:.\Generated_Source\PSoC4/CYBLE.c ****             if(CYBLE_ERROR_OK == apiResult)
 618              		.loc 1 530 0 is_stmt 0 discriminator 1
 619 0098 04E0     		b	.L26
 620              	.L22:
 533:.\Generated_Source\PSoC4/CYBLE.c ****             }
 534:.\Generated_Source\PSoC4/CYBLE.c ****         }
 535:.\Generated_Source\PSoC4/CYBLE.c ****         else
 536:.\Generated_Source\PSoC4/CYBLE.c ****         {
 537:.\Generated_Source\PSoC4/CYBLE.c ****             apiResult = CYBLE_ERROR_INVALID_STATE;
 621              		.loc 1 537 0 is_stmt 1
 622 009a 3B1C     		mov	r3, r7
 623 009c 0E33     		add	r3, r3, #14
 624 009e 8322     		mov	r2, #131
 625 00a0 5200     		lsl	r2, r2, #1
 626 00a2 1A80     		strh	r2, [r3]
 627              	.L26:
 538:.\Generated_Source\PSoC4/CYBLE.c ****         }
 539:.\Generated_Source\PSoC4/CYBLE.c **** 
 540:.\Generated_Source\PSoC4/CYBLE.c ****         return (apiResult);
 628              		.loc 1 540 0
 629 00a4 3B1C     		mov	r3, r7
 630 00a6 0E33     		add	r3, r3, #14
 631 00a8 1B88     		ldrh	r3, [r3]
 541:.\Generated_Source\PSoC4/CYBLE.c ****     }
 632              		.loc 1 541 0
 633 00aa 181C     		mov	r0, r3
 634 00ac BD46     		mov	sp, r7
 635 00ae 05B0     		add	sp, sp, #20
 636              		@ sp needed
 637 00b0 90BD     		pop	{r4, r7, pc}
 638              	.L29:
 639 00b2 C046     		.align	2
 640              	.L28:
 641 00b4 00000000 		.word	cyBle_state
 642 00b8 00000000 		.word	cyBle_eventHandlerFlag
 643 00bc 00000000 		.word	cyBle_discoveryModeInfo
 644 00c0 00000000 		.word	cyBle_advertisingIntervalType
 645              		.cfi_endproc
 646              	.LFE7:
 647              		.size	CyBle_GappStartAdvertisement, .-CyBle_GappStartAdvertisement
 648              		.section	.text.CyBle_GappStopAdvertisement,"ax",%progbits
 649              		.align	2
 650              		.global	CyBle_GappStopAdvertisement
 651              		.code	16
 652              		.thumb_func
ARM GAS  C:\Users\jdmoussa\AppData\Local\Temp\ccsp17ZB.s 			page 22


 653              		.type	CyBle_GappStopAdvertisement, %function
 654              	CyBle_GappStopAdvertisement:
 655              	.LFB8:
 542:.\Generated_Source\PSoC4/CYBLE.c **** 
 543:.\Generated_Source\PSoC4/CYBLE.c ****     
 544:.\Generated_Source\PSoC4/CYBLE.c ****     /******************************************************************************
 545:.\Generated_Source\PSoC4/CYBLE.c ****     ##Function Name: CyBle_GappStopAdvertisement
 546:.\Generated_Source\PSoC4/CYBLE.c ****     *******************************************************************************
 547:.\Generated_Source\PSoC4/CYBLE.c ****     
 548:.\Generated_Source\PSoC4/CYBLE.c ****      Summary:
 549:.\Generated_Source\PSoC4/CYBLE.c ****       This function can be used to exit from discovery mode. After the execution 
 550:.\Generated_Source\PSoC4/CYBLE.c ****       of this function, there will no longer be any advertisements. On stopping 
 551:.\Generated_Source\PSoC4/CYBLE.c ****       advertising, GAP Peripheral receives CYBLE_EVT_GAPP_ADVERTISEMENT_START_STOP
 552:.\Generated_Source\PSoC4/CYBLE.c ****       event. It is expected that the application layer tracks the function call 
 553:.\Generated_Source\PSoC4/CYBLE.c ****       performed before occurrence of this event as this event can occur on making 
 554:.\Generated_Source\PSoC4/CYBLE.c ****       a call to Cy_BleGappStartAdvertisement(), CyBle_GappEnterDiscoveryMode(), 
 555:.\Generated_Source\PSoC4/CYBLE.c ****       or CyBle_GappStartAdvertisement() functions as well.
 556:.\Generated_Source\PSoC4/CYBLE.c ****       
 557:.\Generated_Source\PSoC4/CYBLE.c ****       The following event occurs on invoking this function:
 558:.\Generated_Source\PSoC4/CYBLE.c ****       * CYBLE_EVT_GAPP_ADVERTISEMENT_START_STOP
 559:.\Generated_Source\PSoC4/CYBLE.c ****     
 560:.\Generated_Source\PSoC4/CYBLE.c ****      Parameters:
 561:.\Generated_Source\PSoC4/CYBLE.c ****       None
 562:.\Generated_Source\PSoC4/CYBLE.c ****     
 563:.\Generated_Source\PSoC4/CYBLE.c ****      Return:
 564:.\Generated_Source\PSoC4/CYBLE.c ****       None
 565:.\Generated_Source\PSoC4/CYBLE.c ****     
 566:.\Generated_Source\PSoC4/CYBLE.c ****     ******************************************************************************/
 567:.\Generated_Source\PSoC4/CYBLE.c ****     void CyBle_GappStopAdvertisement(void)
 568:.\Generated_Source\PSoC4/CYBLE.c ****     {
 656              		.loc 1 568 0
 657              		.cfi_startproc
 658 0000 80B5     		push	{r7, lr}
 659              		.cfi_def_cfa_offset 8
 660              		.cfi_offset 7, -8
 661              		.cfi_offset 14, -4
 662 0002 00AF     		add	r7, sp, #0
 663              		.cfi_def_cfa_register 7
 569:.\Generated_Source\PSoC4/CYBLE.c ****         CyBle_GappExitDiscoveryMode();
 664              		.loc 1 569 0
 665 0004 FFF7FEFF 		bl	CyBle_GappExitDiscoveryMode
 570:.\Generated_Source\PSoC4/CYBLE.c ****         cyBle_eventHandlerFlag |= CYBLE_STOP_FLAG;
 666              		.loc 1 570 0
 667 0008 044B     		ldr	r3, .L31
 668 000a 1B78     		ldrb	r3, [r3]
 669 000c DBB2     		uxtb	r3, r3
 670 000e 0822     		mov	r2, #8
 671 0010 1343     		orr	r3, r2
 672 0012 DAB2     		uxtb	r2, r3
 673 0014 014B     		ldr	r3, .L31
 674 0016 1A70     		strb	r2, [r3]
 571:.\Generated_Source\PSoC4/CYBLE.c ****     }
 675              		.loc 1 571 0
 676 0018 BD46     		mov	sp, r7
 677              		@ sp needed
 678 001a 80BD     		pop	{r7, pc}
 679              	.L32:
ARM GAS  C:\Users\jdmoussa\AppData\Local\Temp\ccsp17ZB.s 			page 23


 680              		.align	2
 681              	.L31:
 682 001c 00000000 		.word	cyBle_eventHandlerFlag
 683              		.cfi_endproc
 684              	.LFE8:
 685              		.size	CyBle_GappStopAdvertisement, .-CyBle_GappStopAdvertisement
 686              		.section	.text.CyBle_ChangeAdDeviceAddress,"ax",%progbits
 687              		.align	2
 688              		.global	CyBle_ChangeAdDeviceAddress
 689              		.code	16
 690              		.thumb_func
 691              		.type	CyBle_ChangeAdDeviceAddress, %function
 692              	CyBle_ChangeAdDeviceAddress:
 693              	.LFB9:
 572:.\Generated_Source\PSoC4/CYBLE.c ****     
 573:.\Generated_Source\PSoC4/CYBLE.c ****     
 574:.\Generated_Source\PSoC4/CYBLE.c ****     /******************************************************************************
 575:.\Generated_Source\PSoC4/CYBLE.c ****     ##Function Name: CyBle_ChangeAdDeviceAddress
 576:.\Generated_Source\PSoC4/CYBLE.c ****     *******************************************************************************
 577:.\Generated_Source\PSoC4/CYBLE.c **** 
 578:.\Generated_Source\PSoC4/CYBLE.c ****     Summary:
 579:.\Generated_Source\PSoC4/CYBLE.c ****      This API is used to set the Bluetooth device address into the advertisement 
 580:.\Generated_Source\PSoC4/CYBLE.c ****      or scan response data structure.
 581:.\Generated_Source\PSoC4/CYBLE.c **** 
 582:.\Generated_Source\PSoC4/CYBLE.c ****     Parameters:
 583:.\Generated_Source\PSoC4/CYBLE.c ****      bdAddr: Bluetooth Device address. The variable is of type CYBLE_GAP_BD_ADDR_T
 584:.\Generated_Source\PSoC4/CYBLE.c ****      uint8 dest: 0 - avrevtisement structure, not zero value selects scan response
 585:.\Generated_Source\PSoC4/CYBLE.c ****                  structure.
 586:.\Generated_Source\PSoC4/CYBLE.c **** 
 587:.\Generated_Source\PSoC4/CYBLE.c ****     Return:
 588:.\Generated_Source\PSoC4/CYBLE.c ****      None
 589:.\Generated_Source\PSoC4/CYBLE.c ****  
 590:.\Generated_Source\PSoC4/CYBLE.c ****     ******************************************************************************/
 591:.\Generated_Source\PSoC4/CYBLE.c ****     void CyBle_ChangeAdDeviceAddress(const CYBLE_GAP_BD_ADDR_T* bdAddr, uint8 dest)
 592:.\Generated_Source\PSoC4/CYBLE.c ****     {
 694              		.loc 1 592 0
 695              		.cfi_startproc
 696 0000 80B5     		push	{r7, lr}
 697              		.cfi_def_cfa_offset 8
 698              		.cfi_offset 7, -8
 699              		.cfi_offset 14, -4
 700 0002 84B0     		sub	sp, sp, #16
 701              		.cfi_def_cfa_offset 24
 702 0004 00AF     		add	r7, sp, #0
 703              		.cfi_def_cfa_register 7
 704 0006 7860     		str	r0, [r7, #4]
 705 0008 0A1C     		mov	r2, r1
 706 000a FB1C     		add	r3, r7, #3
 707 000c 1A70     		strb	r2, [r3]
 593:.\Generated_Source\PSoC4/CYBLE.c ****         uint8 i;
 594:.\Generated_Source\PSoC4/CYBLE.c ****         uint8 *destBuffer = NULL;
 708              		.loc 1 594 0
 709 000e 0023     		mov	r3, #0
 710 0010 BB60     		str	r3, [r7, #8]
 595:.\Generated_Source\PSoC4/CYBLE.c ****         
 596:.\Generated_Source\PSoC4/CYBLE.c ****         if(dest == 0u)      /* Destination - advertising structure */
 597:.\Generated_Source\PSoC4/CYBLE.c ****         {
ARM GAS  C:\Users\jdmoussa\AppData\Local\Temp\ccsp17ZB.s 			page 24


 598:.\Generated_Source\PSoC4/CYBLE.c ****             #ifdef CYBLE_ADV_PKT_INDEX_BLUETOOTH_DEVICE_ADDRESS
 599:.\Generated_Source\PSoC4/CYBLE.c ****                 destBuffer = &cyBle_discoveryData.advData[CYBLE_ADV_PKT_INDEX_BLUETOOTH_DEVICE_ADDR
 600:.\Generated_Source\PSoC4/CYBLE.c ****             #endif /* CYBLE_ADV_PKT_INDEX_BLUETOOTH_DEVICE_ADDRESS */
 601:.\Generated_Source\PSoC4/CYBLE.c ****         }
 602:.\Generated_Source\PSoC4/CYBLE.c ****         else                /* Destination - scan response structure */
 603:.\Generated_Source\PSoC4/CYBLE.c ****         {
 604:.\Generated_Source\PSoC4/CYBLE.c ****             #ifdef CYBLE_SCN_PKT_INDEX_BLUETOOTH_DEVICE_ADDRESS
 605:.\Generated_Source\PSoC4/CYBLE.c ****                 destBuffer = &cyBle_scanRspData.scanRspData[CYBLE_SCN_PKT_INDEX_BLUETOOTH_DEVICE_AD
 606:.\Generated_Source\PSoC4/CYBLE.c ****             #endif /* CYBLE_SCN_PKT_INDEX_BLUETOOTH_DEVICE_ADDRESS */    
 607:.\Generated_Source\PSoC4/CYBLE.c ****         }
 608:.\Generated_Source\PSoC4/CYBLE.c ****         
 609:.\Generated_Source\PSoC4/CYBLE.c ****         if(destBuffer != NULL)
 711              		.loc 1 609 0
 712 0012 BB68     		ldr	r3, [r7, #8]
 713 0014 002B     		cmp	r3, #0
 714 0016 20D0     		beq	.L33
 610:.\Generated_Source\PSoC4/CYBLE.c ****         {
 611:.\Generated_Source\PSoC4/CYBLE.c ****             /* Update Device Address type */
 612:.\Generated_Source\PSoC4/CYBLE.c ****             destBuffer[0u] = bdAddr->type;
 715              		.loc 1 612 0
 716 0018 7B68     		ldr	r3, [r7, #4]
 717 001a 9A79     		ldrb	r2, [r3, #6]
 718 001c BB68     		ldr	r3, [r7, #8]
 719 001e 1A70     		strb	r2, [r3]
 613:.\Generated_Source\PSoC4/CYBLE.c ****             
 614:.\Generated_Source\PSoC4/CYBLE.c ****             for(i = 0; i < CYBLE_GAP_BD_ADDR_SIZE; i++)
 720              		.loc 1 614 0
 721 0020 3B1C     		mov	r3, r7
 722 0022 0F33     		add	r3, r3, #15
 723 0024 0022     		mov	r2, #0
 724 0026 1A70     		strb	r2, [r3]
 725 0028 12E0     		b	.L35
 726              	.L36:
 615:.\Generated_Source\PSoC4/CYBLE.c ****             {
 616:.\Generated_Source\PSoC4/CYBLE.c ****                 destBuffer[i + 1u] = bdAddr->bdAddr[i];
 727              		.loc 1 616 0 discriminator 2
 728 002a 3B1C     		mov	r3, r7
 729 002c 0F33     		add	r3, r3, #15
 730 002e 1B78     		ldrb	r3, [r3]
 731 0030 0133     		add	r3, r3, #1
 732 0032 BA68     		ldr	r2, [r7, #8]
 733 0034 D318     		add	r3, r2, r3
 734 0036 3A1C     		mov	r2, r7
 735 0038 0F32     		add	r2, r2, #15
 736 003a 1278     		ldrb	r2, [r2]
 737 003c 7968     		ldr	r1, [r7, #4]
 738 003e 8A5C     		ldrb	r2, [r1, r2]
 739 0040 1A70     		strb	r2, [r3]
 614:.\Generated_Source\PSoC4/CYBLE.c ****             for(i = 0; i < CYBLE_GAP_BD_ADDR_SIZE; i++)
 740              		.loc 1 614 0 discriminator 2
 741 0042 3B1C     		mov	r3, r7
 742 0044 0F33     		add	r3, r3, #15
 743 0046 1A78     		ldrb	r2, [r3]
 744 0048 3B1C     		mov	r3, r7
 745 004a 0F33     		add	r3, r3, #15
 746 004c 0132     		add	r2, r2, #1
 747 004e 1A70     		strb	r2, [r3]
ARM GAS  C:\Users\jdmoussa\AppData\Local\Temp\ccsp17ZB.s 			page 25


 748              	.L35:
 614:.\Generated_Source\PSoC4/CYBLE.c ****             for(i = 0; i < CYBLE_GAP_BD_ADDR_SIZE; i++)
 749              		.loc 1 614 0 is_stmt 0 discriminator 1
 750 0050 3B1C     		mov	r3, r7
 751 0052 0F33     		add	r3, r3, #15
 752 0054 1B78     		ldrb	r3, [r3]
 753 0056 052B     		cmp	r3, #5
 754 0058 E7D9     		bls	.L36
 755              	.L33:
 617:.\Generated_Source\PSoC4/CYBLE.c ****             }
 618:.\Generated_Source\PSoC4/CYBLE.c ****         }
 619:.\Generated_Source\PSoC4/CYBLE.c ****     }
 756              		.loc 1 619 0 is_stmt 1
 757 005a BD46     		mov	sp, r7
 758 005c 04B0     		add	sp, sp, #16
 759              		@ sp needed
 760 005e 80BD     		pop	{r7, pc}
 761              		.cfi_endproc
 762              	.LFE9:
 763              		.size	CyBle_ChangeAdDeviceAddress, .-CyBle_ChangeAdDeviceAddress
 764              		.section	.text.CyBle_ChangeAdLocalName,"ax",%progbits
 765              		.align	2
 766              		.code	16
 767              		.thumb_func
 768              		.type	CyBle_ChangeAdLocalName, %function
 769              	CyBle_ChangeAdLocalName:
 770              	.LFB10:
 620:.\Generated_Source\PSoC4/CYBLE.c ****   
 621:.\Generated_Source\PSoC4/CYBLE.c **** #endif /* CYBLE_GAP_ROLE_PERIPHERAL || CYBLE_GAP_ROLE_BROADCASTER */
 622:.\Generated_Source\PSoC4/CYBLE.c **** 
 623:.\Generated_Source\PSoC4/CYBLE.c **** 
 624:.\Generated_Source\PSoC4/CYBLE.c **** #if(CYBLE_GAP_ROLE_CENTRAL || CYBLE_GAP_ROLE_OBSERVER)
 625:.\Generated_Source\PSoC4/CYBLE.c **** 
 626:.\Generated_Source\PSoC4/CYBLE.c ****     /******************************************************************************
 627:.\Generated_Source\PSoC4/CYBLE.c ****     ##Function Name: CyBle_GapcStartScan
 628:.\Generated_Source\PSoC4/CYBLE.c ****     *******************************************************************************
 629:.\Generated_Source\PSoC4/CYBLE.c ****     
 630:.\Generated_Source\PSoC4/CYBLE.c ****      Summary:
 631:.\Generated_Source\PSoC4/CYBLE.c ****       This function is used for discovering GAP peripheral devices that are 
 632:.\Generated_Source\PSoC4/CYBLE.c ****       available for connection. It performs the scanning routine using the 
 633:.\Generated_Source\PSoC4/CYBLE.c ****       parameters entered in the component's customizer.
 634:.\Generated_Source\PSoC4/CYBLE.c ****       
 635:.\Generated_Source\PSoC4/CYBLE.c ****       As soon as the discovery operation starts, CYBLE_EVT_GAPC_SCAN_START_STOP 
 636:.\Generated_Source\PSoC4/CYBLE.c ****       event is generated. The CYBLE_EVT_GAPC_SCAN_PROGRESS_RESULT event is 
 637:.\Generated_Source\PSoC4/CYBLE.c ****       generated when a GAP peripheral device is located. There are three discovery
 638:.\Generated_Source\PSoC4/CYBLE.c ****       procedures can be selected in the customizer's GUI:
 639:.\Generated_Source\PSoC4/CYBLE.c ****       
 640:.\Generated_Source\PSoC4/CYBLE.c ****       * Observation procedure: A device performing the observer role receives only
 641:.\Generated_Source\PSoC4/CYBLE.c ****                                advertisement data from devices irrespective of 
 642:.\Generated_Source\PSoC4/CYBLE.c ****                                their discoverable mode settings. Advertisement 
 643:.\Generated_Source\PSoC4/CYBLE.c ****                                data received is provided by the event,      
 644:.\Generated_Source\PSoC4/CYBLE.c ****                                CYBLE_EVT_GAPC_SCAN_PROGRESS_RESULT. This procedure
 645:.\Generated_Source\PSoC4/CYBLE.c ****                                requires the scanType sub parameter to be passive
 646:.\Generated_Source\PSoC4/CYBLE.c ****                                scanning. 
 647:.\Generated_Source\PSoC4/CYBLE.c ****       
 648:.\Generated_Source\PSoC4/CYBLE.c ****       * Limited Discovery procedure: A device performing the limited discovery
 649:.\Generated_Source\PSoC4/CYBLE.c ****                                      procedure receives advertisement data and 
ARM GAS  C:\Users\jdmoussa\AppData\Local\Temp\ccsp17ZB.s 			page 26


 650:.\Generated_Source\PSoC4/CYBLE.c ****                                      scan# response data from devices in the 
 651:.\Generated_Source\PSoC4/CYBLE.c ****                                      limited discoverable mode only. Received data
 652:.\Generated_Source\PSoC4/CYBLE.c ****                                      is provided by the event, 
 653:.\Generated_Source\PSoC4/CYBLE.c ****                                      CYBLE_EVT_GAPC_SCAN_PROGRESS_RESULT. This 
 654:.\Generated_Source\PSoC4/CYBLE.c ****                                      procedure requires the scanType sub-parameter 
 655:.\Generated_Source\PSoC4/CYBLE.c ****                                      to be active scanning.
 656:.\Generated_Source\PSoC4/CYBLE.c ****       
 657:.\Generated_Source\PSoC4/CYBLE.c ****       * General Discovery procedure: A device performing the general discovery 
 658:.\Generated_Source\PSoC4/CYBLE.c ****                                      procedure receives the advertisement data and
 659:.\Generated_Source\PSoC4/CYBLE.c ****                                      scan response data from devices in both 
 660:.\Generated_Source\PSoC4/CYBLE.c ****                                      limited discoverable mode and the general 
 661:.\Generated_Source\PSoC4/CYBLE.c ****                                      discoverable mode. Received data is provided
 662:.\Generated_Source\PSoC4/CYBLE.c ****                                      by the event,
 663:.\Generated_Source\PSoC4/CYBLE.c ****                                      CYBLE_EVT_GAPC_SCAN_PROGRESS_RESULT. This 
 664:.\Generated_Source\PSoC4/CYBLE.c ****                                      procedure requires the scanType sub-parameter
 665:.\Generated_Source\PSoC4/CYBLE.c ****                                      to be active scanning.
 666:.\Generated_Source\PSoC4/CYBLE.c ****       
 667:.\Generated_Source\PSoC4/CYBLE.c ****       Every Advertisement / Scan response packet received results in a new event, 
 668:.\Generated_Source\PSoC4/CYBLE.c ****       CYBLE_EVT_GAPC_SCAN_PROGRESS_RESULT.
 669:.\Generated_Source\PSoC4/CYBLE.c ****       If 'scanTo' sub-parameter is a non-zero value, then upon commencement of 
 670:.\Generated_Source\PSoC4/CYBLE.c ****       discovery procedure and elapsed time = 'scanTo', CYBLE_EVT_TIMEOUT event
 671:.\Generated_Source\PSoC4/CYBLE.c ****       is generated with the event parameter indicating CYBLE_GAP_SCAN_TO.
 672:.\Generated_Source\PSoC4/CYBLE.c ****       Possible generated events are:
 673:.\Generated_Source\PSoC4/CYBLE.c ****       * CYBLE_EVT_GAPC_SCAN_START_STOP: If a device started or stopped scanning. 
 674:.\Generated_Source\PSoC4/CYBLE.c ****                                         Use CyBle_GetState() to determine the 
 675:.\Generated_Source\PSoC4/CYBLE.c ****                                         state. Sequential scanning could be 
 676:.\Generated_Source\PSoC4/CYBLE.c ****                                         started when CYBLE_STATE_DISCONNECTED 
 677:.\Generated_Source\PSoC4/CYBLE.c ****                                         state is returned. 
 678:.\Generated_Source\PSoC4/CYBLE.c ****       * CYBLE_EVT_GAPC_SCAN_PROGRESS_RESULT 
 679:.\Generated_Source\PSoC4/CYBLE.c ****       * CYBLE_EVT_TIMEOUT (CYBLE_GAP_SCAN_TO)
 680:.\Generated_Source\PSoC4/CYBLE.c ****     
 681:.\Generated_Source\PSoC4/CYBLE.c ****      Parameters:
 682:.\Generated_Source\PSoC4/CYBLE.c ****       uint8 scanningIntervalType:  Fast or slow scanning interval with
 683:.\Generated_Source\PSoC4/CYBLE.c ****           timings entered in Scan settings section of the customiser.
 684:.\Generated_Source\PSoC4/CYBLE.c ****     	  * CYBLE_SCANNING_FAST   0x00u
 685:.\Generated_Source\PSoC4/CYBLE.c ****     	  * CYBLE_SCANNING_SLOW   0x01u
 686:.\Generated_Source\PSoC4/CYBLE.c ****     	  * CYBLE_SCANNING_CUSTOM 0x02u
 687:.\Generated_Source\PSoC4/CYBLE.c ****     
 688:.\Generated_Source\PSoC4/CYBLE.c ****     Return:
 689:.\Generated_Source\PSoC4/CYBLE.c ****      CYBLE_API_RESULT_T : Return value indicates if the function succeeded or
 690:.\Generated_Source\PSoC4/CYBLE.c ****      failed. Following are the possible error codes.
 691:.\Generated_Source\PSoC4/CYBLE.c ****      <table>
 692:.\Generated_Source\PSoC4/CYBLE.c ****       Errors codes                        Values  Description
 693:.\Generated_Source\PSoC4/CYBLE.c ****       ------------                        ------  -----------
 694:.\Generated_Source\PSoC4/CYBLE.c ****       CYBLE_ERROR_OK                      0x0000  On successful operation.
 695:.\Generated_Source\PSoC4/CYBLE.c ****       CYBLE_ERROR_STACK_INTERNAL          0x0003  An error occurred in the 
 696:.\Generated_Source\PSoC4/CYBLE.c ****                                                    BLE stack.
 697:.\Generated_Source\PSoC4/CYBLE.c ****      </table>
 698:.\Generated_Source\PSoC4/CYBLE.c ****      
 699:.\Generated_Source\PSoC4/CYBLE.c ****     ******************************************************************************/
 700:.\Generated_Source\PSoC4/CYBLE.c ****     CYBLE_API_RESULT_T CyBle_GapcStartScan(uint8 scanningIntervalType)
 701:.\Generated_Source\PSoC4/CYBLE.c ****     {
 702:.\Generated_Source\PSoC4/CYBLE.c ****         CYBLE_API_RESULT_T apiResult;
 703:.\Generated_Source\PSoC4/CYBLE.c **** 
 704:.\Generated_Source\PSoC4/CYBLE.c ****         if(scanningIntervalType == CYBLE_SCANNING_FAST)
 705:.\Generated_Source\PSoC4/CYBLE.c ****         {
 706:.\Generated_Source\PSoC4/CYBLE.c ****             cyBle_discoveryInfo.scanTo = CYBLE_FAST_SCAN_TIMEOUT;
ARM GAS  C:\Users\jdmoussa\AppData\Local\Temp\ccsp17ZB.s 			page 27


 707:.\Generated_Source\PSoC4/CYBLE.c ****             cyBle_discoveryInfo.scanIntv = CYBLE_FAST_SCAN_INTERVAL;
 708:.\Generated_Source\PSoC4/CYBLE.c ****             cyBle_discoveryInfo.scanWindow = CYBLE_FAST_SCAN_WINDOW;
 709:.\Generated_Source\PSoC4/CYBLE.c ****         }
 710:.\Generated_Source\PSoC4/CYBLE.c ****         else if(scanningIntervalType == CYBLE_SCANNING_SLOW)
 711:.\Generated_Source\PSoC4/CYBLE.c ****         {
 712:.\Generated_Source\PSoC4/CYBLE.c ****             cyBle_discoveryInfo.scanTo = CYBLE_SLOW_SCAN_TIMEOUT;
 713:.\Generated_Source\PSoC4/CYBLE.c ****             cyBle_discoveryInfo.scanIntv = CYBLE_SLOW_SCAN_INTERVAL;
 714:.\Generated_Source\PSoC4/CYBLE.c ****             cyBle_discoveryInfo.scanWindow = CYBLE_SLOW_SCAN_WINDOW;
 715:.\Generated_Source\PSoC4/CYBLE.c ****         }       
 716:.\Generated_Source\PSoC4/CYBLE.c ****         else /* Do not update scanning intervals */
 717:.\Generated_Source\PSoC4/CYBLE.c ****         {
 718:.\Generated_Source\PSoC4/CYBLE.c ****         }
 719:.\Generated_Source\PSoC4/CYBLE.c ****         
 720:.\Generated_Source\PSoC4/CYBLE.c ****         cyBle_scanningIntervalType = scanningIntervalType;
 721:.\Generated_Source\PSoC4/CYBLE.c ****         apiResult = CyBle_GapcStartDiscovery(&cyBle_discoveryInfo);
 722:.\Generated_Source\PSoC4/CYBLE.c ****     
 723:.\Generated_Source\PSoC4/CYBLE.c ****         if(CYBLE_ERROR_OK == apiResult)
 724:.\Generated_Source\PSoC4/CYBLE.c ****         {
 725:.\Generated_Source\PSoC4/CYBLE.c ****             cyBle_eventHandlerFlag |= CYBLE_START_FLAG;
 726:.\Generated_Source\PSoC4/CYBLE.c ****         }
 727:.\Generated_Source\PSoC4/CYBLE.c ****        
 728:.\Generated_Source\PSoC4/CYBLE.c ****         return (apiResult);
 729:.\Generated_Source\PSoC4/CYBLE.c ****     }
 730:.\Generated_Source\PSoC4/CYBLE.c ****     
 731:.\Generated_Source\PSoC4/CYBLE.c ****     
 732:.\Generated_Source\PSoC4/CYBLE.c ****     /******************************************************************************
 733:.\Generated_Source\PSoC4/CYBLE.c ****     ##Function Name: CyBle_GapcStopScan
 734:.\Generated_Source\PSoC4/CYBLE.c ****     *******************************************************************************
 735:.\Generated_Source\PSoC4/CYBLE.c ****     
 736:.\Generated_Source\PSoC4/CYBLE.c ****      Summary:
 737:.\Generated_Source\PSoC4/CYBLE.c ****       This function used to stop the discovery of devices. On stopping discovery
 738:.\Generated_Source\PSoC4/CYBLE.c ****       operation, CYBLE_EVT_GAPC_SCAN_START_STOP event is generated. Application
 739:.\Generated_Source\PSoC4/CYBLE.c ****       layer needs to keep track of the function call made before receiving this
 740:.\Generated_Source\PSoC4/CYBLE.c ****       event to associate this event with either the start or stop discovery
 741:.\Generated_Source\PSoC4/CYBLE.c ****       function.
 742:.\Generated_Source\PSoC4/CYBLE.c ****     
 743:.\Generated_Source\PSoC4/CYBLE.c ****       Possible events generated are:
 744:.\Generated_Source\PSoC4/CYBLE.c ****        * CYBLE_EVT_GAPC_SCAN_START_STOP
 745:.\Generated_Source\PSoC4/CYBLE.c ****     
 746:.\Generated_Source\PSoC4/CYBLE.c ****      Parameters:
 747:.\Generated_Source\PSoC4/CYBLE.c ****       None
 748:.\Generated_Source\PSoC4/CYBLE.c ****     
 749:.\Generated_Source\PSoC4/CYBLE.c ****      Return:
 750:.\Generated_Source\PSoC4/CYBLE.c ****       None
 751:.\Generated_Source\PSoC4/CYBLE.c ****     
 752:.\Generated_Source\PSoC4/CYBLE.c ****     ******************************************************************************/
 753:.\Generated_Source\PSoC4/CYBLE.c ****     void CyBle_GapcStopScan(void)
 754:.\Generated_Source\PSoC4/CYBLE.c ****     {
 755:.\Generated_Source\PSoC4/CYBLE.c ****         CyBle_GapcStopDiscovery();
 756:.\Generated_Source\PSoC4/CYBLE.c ****         
 757:.\Generated_Source\PSoC4/CYBLE.c ****         cyBle_eventHandlerFlag |= CYBLE_STOP_FLAG;
 758:.\Generated_Source\PSoC4/CYBLE.c ****     }
 759:.\Generated_Source\PSoC4/CYBLE.c **** 
 760:.\Generated_Source\PSoC4/CYBLE.c ****     
 761:.\Generated_Source\PSoC4/CYBLE.c **** #endif /* CYBLE_GAP_ROLE_CENTRAL || CYBLE_GAP_ROLE_OBSERVER */
 762:.\Generated_Source\PSoC4/CYBLE.c **** 
 763:.\Generated_Source\PSoC4/CYBLE.c **** 
ARM GAS  C:\Users\jdmoussa\AppData\Local\Temp\ccsp17ZB.s 			page 28


 764:.\Generated_Source\PSoC4/CYBLE.c **** #if(CYBLE_GAP_ROLE_CENTRAL)
 765:.\Generated_Source\PSoC4/CYBLE.c **** 
 766:.\Generated_Source\PSoC4/CYBLE.c ****     /******************************************************************************
 767:.\Generated_Source\PSoC4/CYBLE.c ****     ##Function Name: CyBle_GapcConnectDevice
 768:.\Generated_Source\PSoC4/CYBLE.c ****     *******************************************************************************
 769:.\Generated_Source\PSoC4/CYBLE.c ****     
 770:.\Generated_Source\PSoC4/CYBLE.c ****     Summary:
 771:.\Generated_Source\PSoC4/CYBLE.c ****      This function is used to send a connection request to the remote device with
 772:.\Generated_Source\PSoC4/CYBLE.c ****      the connection parameters set in the component customizer. This function needs
 773:.\Generated_Source\PSoC4/CYBLE.c ****      to be called only once after the target device is discovered by 
 774:.\Generated_Source\PSoC4/CYBLE.c ****      CyBle_GapcStartScan() and further scanning has stopped. Scanning is 
 775:.\Generated_Source\PSoC4/CYBLE.c ****      successfully stopped on invoking CyBle_GapcStopScan() and then receiving the
 776:.\Generated_Source\PSoC4/CYBLE.c ****      event CYBLE_EVT_GAPC_SCAN_START_STOP with sub-parameter 'success' = 0x01u.
 777:.\Generated_Source\PSoC4/CYBLE.c ****      
 778:.\Generated_Source\PSoC4/CYBLE.c ****      On successful connection, the following events are generated at the GAP 
 779:.\Generated_Source\PSoC4/CYBLE.c ****      Central device (as well as the GAP Peripheral device), in the following order.
 780:.\Generated_Source\PSoC4/CYBLE.c ****      * CYBLE_EVT_GATT_CONNECT_IND
 781:.\Generated_Source\PSoC4/CYBLE.c ****      * CYBLE_EVT_GAP_DEVICE_CONNECTED
 782:.\Generated_Source\PSoC4/CYBLE.c ****  
 783:.\Generated_Source\PSoC4/CYBLE.c ****      A procedure is considered to have timed out if a connection response packet is 
 784:.\Generated_Source\PSoC4/CYBLE.c ****      not received within time set by cyBle_connectingTimeout global variable
 785:.\Generated_Source\PSoC4/CYBLE.c ****      (30 seconds by default). CYBLE_EVT_TIMEOUT event with CYBLE_GENERIC_TO parameter
 786:.\Generated_Source\PSoC4/CYBLE.c ****      will indicate about connection procedure timeout. Connection will automatically
 787:.\Generated_Source\PSoC4/CYBLE.c ****      be cancelled and state will be changed to CYBLE_STATE_DISCONNECTED.
 788:.\Generated_Source\PSoC4/CYBLE.c ****     
 789:.\Generated_Source\PSoC4/CYBLE.c ****     Parameters:
 790:.\Generated_Source\PSoC4/CYBLE.c ****      const CYBLE_GAP_BD_ADDR_T address: The device address of the remote device to 
 791:.\Generated_Source\PSoC4/CYBLE.c ****                                         connect to. 
 792:.\Generated_Source\PSoC4/CYBLE.c ****      timeout: Timeout for which timer to be started in seconds.
 793:.\Generated_Source\PSoC4/CYBLE.c ****  
 794:.\Generated_Source\PSoC4/CYBLE.c ****     Return:
 795:.\Generated_Source\PSoC4/CYBLE.c ****      CYBLE_API_RESULT_T : Return value indicates if the function succeeded or 
 796:.\Generated_Source\PSoC4/CYBLE.c ****      failed. Following are the possible error codes.
 797:.\Generated_Source\PSoC4/CYBLE.c ****      <table>
 798:.\Generated_Source\PSoC4/CYBLE.c ****       Errors codes                        Description
 799:.\Generated_Source\PSoC4/CYBLE.c ****       ------------                        -----------
 800:.\Generated_Source\PSoC4/CYBLE.c ****       CYBLE_ERROR_OK                      On successful operation.
 801:.\Generated_Source\PSoC4/CYBLE.c ****       CYBLE_ERROR_STACK_INTERNAL          On error occurred in the 
 802:.\Generated_Source\PSoC4/CYBLE.c ****                                            BLE stack.
 803:.\Generated_Source\PSoC4/CYBLE.c ****       CYBLE_ERROR_INVALID_PARAMETER       On specifying NULL as input
 804:.\Generated_Source\PSoC4/CYBLE.c ****                                            parameter for 'scanInfo' or if
 805:.\Generated_Source\PSoC4/CYBLE.c ****                                            any element with in 'scanInfo'
 806:.\Generated_Source\PSoC4/CYBLE.c ****                                            has an invalid value.
 807:.\Generated_Source\PSoC4/CYBLE.c ****      </table>
 808:.\Generated_Source\PSoC4/CYBLE.c ****  
 809:.\Generated_Source\PSoC4/CYBLE.c ****     ******************************************************************************/
 810:.\Generated_Source\PSoC4/CYBLE.c ****     CYBLE_API_RESULT_T CyBle_GapcConnectDevice(const CYBLE_GAP_BD_ADDR_T * address)
 811:.\Generated_Source\PSoC4/CYBLE.c ****     {
 812:.\Generated_Source\PSoC4/CYBLE.c ****         CYBLE_API_RESULT_T apiResult;
 813:.\Generated_Source\PSoC4/CYBLE.c ****         uint8 i;
 814:.\Generated_Source\PSoC4/CYBLE.c **** 
 815:.\Generated_Source\PSoC4/CYBLE.c ****         if(CYBLE_STATE_DISCONNECTED != CyBle_GetState())
 816:.\Generated_Source\PSoC4/CYBLE.c ****         {
 817:.\Generated_Source\PSoC4/CYBLE.c ****             apiResult = CYBLE_ERROR_INVALID_STATE;
 818:.\Generated_Source\PSoC4/CYBLE.c ****         }
 819:.\Generated_Source\PSoC4/CYBLE.c ****         else if(address == NULL)
 820:.\Generated_Source\PSoC4/CYBLE.c ****         {
ARM GAS  C:\Users\jdmoussa\AppData\Local\Temp\ccsp17ZB.s 			page 29


 821:.\Generated_Source\PSoC4/CYBLE.c ****             apiResult = CYBLE_ERROR_INVALID_PARAMETER;
 822:.\Generated_Source\PSoC4/CYBLE.c ****         }
 823:.\Generated_Source\PSoC4/CYBLE.c ****         else
 824:.\Generated_Source\PSoC4/CYBLE.c ****         {
 825:.\Generated_Source\PSoC4/CYBLE.c ****             for(i = 0u; i < CYBLE_GAP_BD_ADDR_SIZE; i++)
 826:.\Generated_Source\PSoC4/CYBLE.c ****             {
 827:.\Generated_Source\PSoC4/CYBLE.c ****                 cyBle_connectionParameters.peerBdAddr[i] = address->bdAddr[i];
 828:.\Generated_Source\PSoC4/CYBLE.c ****             }
 829:.\Generated_Source\PSoC4/CYBLE.c ****             cyBle_connectionParameters.peerAddrType = address -> type;
 830:.\Generated_Source\PSoC4/CYBLE.c ****             apiResult = CyBle_GapcInitConnection(&cyBle_connectionParameters);
 831:.\Generated_Source\PSoC4/CYBLE.c ****             
 832:.\Generated_Source\PSoC4/CYBLE.c ****             if(CYBLE_ERROR_OK == apiResult)
 833:.\Generated_Source\PSoC4/CYBLE.c ****             {
 834:.\Generated_Source\PSoC4/CYBLE.c ****                 CyBle_SetState(CYBLE_STATE_CONNECTING);
 835:.\Generated_Source\PSoC4/CYBLE.c ****                 if(cyBle_connectingTimeout != 0u)
 836:.\Generated_Source\PSoC4/CYBLE.c ****                 {
 837:.\Generated_Source\PSoC4/CYBLE.c ****                     (void)CyBle_StartTimer(cyBle_connectingTimeout);
 838:.\Generated_Source\PSoC4/CYBLE.c ****                 }
 839:.\Generated_Source\PSoC4/CYBLE.c ****             }
 840:.\Generated_Source\PSoC4/CYBLE.c ****         }
 841:.\Generated_Source\PSoC4/CYBLE.c ****         return (apiResult);
 842:.\Generated_Source\PSoC4/CYBLE.c ****     }
 843:.\Generated_Source\PSoC4/CYBLE.c ****     
 844:.\Generated_Source\PSoC4/CYBLE.c **** 
 845:.\Generated_Source\PSoC4/CYBLE.c ****     /******************************************************************************
 846:.\Generated_Source\PSoC4/CYBLE.c ****     ##Function Name: CyBle_GapcCancelDeviceConnection
 847:.\Generated_Source\PSoC4/CYBLE.c ****     *******************************************************************************
 848:.\Generated_Source\PSoC4/CYBLE.c ****     
 849:.\Generated_Source\PSoC4/CYBLE.c ****     Summary:
 850:.\Generated_Source\PSoC4/CYBLE.c ****      This function cancels a previously initiated connection with the remote 
 851:.\Generated_Source\PSoC4/CYBLE.c ****      device. It is a blocking function. No event is generated on calling this 
 852:.\Generated_Source\PSoC4/CYBLE.c ****      function. If the devices are already connected then this function should not
 853:.\Generated_Source\PSoC4/CYBLE.c ****      be used. If you intend to disconnect from an existing connection, the function
 854:.\Generated_Source\PSoC4/CYBLE.c ****      CyBle_GapDisconnect() should be used.
 855:.\Generated_Source\PSoC4/CYBLE.c **** 
 856:.\Generated_Source\PSoC4/CYBLE.c ****     Parameters:
 857:.\Generated_Source\PSoC4/CYBLE.c ****      None
 858:.\Generated_Source\PSoC4/CYBLE.c **** 
 859:.\Generated_Source\PSoC4/CYBLE.c ****     Return:
 860:.\Generated_Source\PSoC4/CYBLE.c ****      CYBLE_API_RESULT_T : Return value indicates if the function succeeded or 
 861:.\Generated_Source\PSoC4/CYBLE.c ****      failed. Following are the possible error codes.
 862:.\Generated_Source\PSoC4/CYBLE.c ****      <table>
 863:.\Generated_Source\PSoC4/CYBLE.c ****       Errors codes                        Description
 864:.\Generated_Source\PSoC4/CYBLE.c ****       ------------                        -----------
 865:.\Generated_Source\PSoC4/CYBLE.c ****       CYBLE_ERROR_OK                      On successful operation.
 866:.\Generated_Source\PSoC4/CYBLE.c ****       CYBLE_ERROR_STACK_INTERNAL          An error occurred in the 
 867:.\Generated_Source\PSoC4/CYBLE.c ****                                            BLE stack.
 868:.\Generated_Source\PSoC4/CYBLE.c ****       CYBLE_ERROR_INVALID_OPERATION       Device is already connected.
 869:.\Generated_Source\PSoC4/CYBLE.c ****      </table>
 870:.\Generated_Source\PSoC4/CYBLE.c ****  
 871:.\Generated_Source\PSoC4/CYBLE.c ****     ******************************************************************************/
 872:.\Generated_Source\PSoC4/CYBLE.c ****     CYBLE_API_RESULT_T CyBle_GapcCancelDeviceConnection(void)
 873:.\Generated_Source\PSoC4/CYBLE.c ****     {
 874:.\Generated_Source\PSoC4/CYBLE.c ****         CYBLE_API_RESULT_T apiResult;
 875:.\Generated_Source\PSoC4/CYBLE.c ****         
 876:.\Generated_Source\PSoC4/CYBLE.c ****         apiResult = CyBle_GapcCancelConnection();
 877:.\Generated_Source\PSoC4/CYBLE.c ****             
ARM GAS  C:\Users\jdmoussa\AppData\Local\Temp\ccsp17ZB.s 			page 30


 878:.\Generated_Source\PSoC4/CYBLE.c ****         if(cyBle_connectingTimeout != 0u)
 879:.\Generated_Source\PSoC4/CYBLE.c ****         {
 880:.\Generated_Source\PSoC4/CYBLE.c ****             (void)CyBle_StopTimer();
 881:.\Generated_Source\PSoC4/CYBLE.c ****         }
 882:.\Generated_Source\PSoC4/CYBLE.c **** 
 883:.\Generated_Source\PSoC4/CYBLE.c ****         if(CYBLE_ERROR_OK == apiResult)
 884:.\Generated_Source\PSoC4/CYBLE.c ****         {
 885:.\Generated_Source\PSoC4/CYBLE.c ****             CyBle_SetState(CYBLE_STATE_DISCONNECTED);
 886:.\Generated_Source\PSoC4/CYBLE.c ****         }
 887:.\Generated_Source\PSoC4/CYBLE.c ****         return (apiResult);
 888:.\Generated_Source\PSoC4/CYBLE.c ****     }    
 889:.\Generated_Source\PSoC4/CYBLE.c **** 
 890:.\Generated_Source\PSoC4/CYBLE.c ****     
 891:.\Generated_Source\PSoC4/CYBLE.c **** #endif /* CYBLE_GAP_ROLE_CENTRAL */
 892:.\Generated_Source\PSoC4/CYBLE.c **** 
 893:.\Generated_Source\PSoC4/CYBLE.c **** 
 894:.\Generated_Source\PSoC4/CYBLE.c **** #if(CYBLE_GATT_ROLE_SERVER)
 895:.\Generated_Source\PSoC4/CYBLE.c **** 
 896:.\Generated_Source\PSoC4/CYBLE.c **** #if(CYBLE_GAP_ROLE_PERIPHERAL)
 897:.\Generated_Source\PSoC4/CYBLE.c **** 
 898:.\Generated_Source\PSoC4/CYBLE.c ****         /******************************************************************************
 899:.\Generated_Source\PSoC4/CYBLE.c ****         ##Function Name: CyBle_ChangeAdLocalName
 900:.\Generated_Source\PSoC4/CYBLE.c ****         *******************************************************************************
 901:.\Generated_Source\PSoC4/CYBLE.c ****         Summary:
 902:.\Generated_Source\PSoC4/CYBLE.c ****          This API is used to set the local device name in the advertisement or scan 
 903:.\Generated_Source\PSoC4/CYBLE.c ****          response data structure.
 904:.\Generated_Source\PSoC4/CYBLE.c **** 
 905:.\Generated_Source\PSoC4/CYBLE.c ****         Parameters:
 906:.\Generated_Source\PSoC4/CYBLE.c ****          char8 name: The local device name string to be set in advertisement data 
 907:.\Generated_Source\PSoC4/CYBLE.c ****                    structure.
 908:.\Generated_Source\PSoC4/CYBLE.c ****          uint8 dest: 0 - avrevtisement structure, not zero value selects scan response
 909:.\Generated_Source\PSoC4/CYBLE.c ****                      structure.
 910:.\Generated_Source\PSoC4/CYBLE.c **** 
 911:.\Generated_Source\PSoC4/CYBLE.c ****         Return:
 912:.\Generated_Source\PSoC4/CYBLE.c ****          None
 913:.\Generated_Source\PSoC4/CYBLE.c ****      
 914:.\Generated_Source\PSoC4/CYBLE.c ****         ******************************************************************************/
 915:.\Generated_Source\PSoC4/CYBLE.c ****         static void CyBle_ChangeAdLocalName(const char8 name[], uint8 dest)
 916:.\Generated_Source\PSoC4/CYBLE.c ****         {
 771              		.loc 1 916 0
 772              		.cfi_startproc
 773 0000 80B5     		push	{r7, lr}
 774              		.cfi_def_cfa_offset 8
 775              		.cfi_offset 7, -8
 776              		.cfi_offset 14, -4
 777 0002 86B0     		sub	sp, sp, #24
 778              		.cfi_def_cfa_offset 32
 779 0004 00AF     		add	r7, sp, #0
 780              		.cfi_def_cfa_register 7
 781 0006 7860     		str	r0, [r7, #4]
 782 0008 0A1C     		mov	r2, r1
 783 000a FB1C     		add	r3, r7, #3
 784 000c 1A70     		strb	r2, [r3]
 917:.\Generated_Source\PSoC4/CYBLE.c ****             uint8 i;
 918:.\Generated_Source\PSoC4/CYBLE.c ****             uint8 flag = 0u;
 785              		.loc 1 918 0
 786 000e 3B1C     		mov	r3, r7
ARM GAS  C:\Users\jdmoussa\AppData\Local\Temp\ccsp17ZB.s 			page 31


 787 0010 1633     		add	r3, r3, #22
 788 0012 0022     		mov	r2, #0
 789 0014 1A70     		strb	r2, [r3]
 919:.\Generated_Source\PSoC4/CYBLE.c ****             uint8 adLength = 0u;
 790              		.loc 1 919 0
 791 0016 3B1C     		mov	r3, r7
 792 0018 1533     		add	r3, r3, #21
 793 001a 0022     		mov	r2, #0
 794 001c 1A70     		strb	r2, [r3]
 920:.\Generated_Source\PSoC4/CYBLE.c ****             uint8 byteCounter = 0u;
 795              		.loc 1 920 0
 796 001e 3B1C     		mov	r3, r7
 797 0020 1433     		add	r3, r3, #20
 798 0022 0022     		mov	r2, #0
 799 0024 1A70     		strb	r2, [r3]
 921:.\Generated_Source\PSoC4/CYBLE.c ****             uint8 *destBuffer;
 922:.\Generated_Source\PSoC4/CYBLE.c ****             uint8 maxLength;
 923:.\Generated_Source\PSoC4/CYBLE.c ****             
 924:.\Generated_Source\PSoC4/CYBLE.c ****             if(dest == 0u)      /* Destination - advertising structure */
 800              		.loc 1 924 0
 801 0026 FB1C     		add	r3, r7, #3
 802 0028 1B78     		ldrb	r3, [r3]
 803 002a 002B     		cmp	r3, #0
 804 002c 07D1     		bne	.L38
 925:.\Generated_Source\PSoC4/CYBLE.c ****             {
 926:.\Generated_Source\PSoC4/CYBLE.c ****                 destBuffer = cyBle_discoveryData.advData;
 805              		.loc 1 926 0
 806 002e 5A4B     		ldr	r3, .L53
 807 0030 3B61     		str	r3, [r7, #16]
 927:.\Generated_Source\PSoC4/CYBLE.c ****                 maxLength = cyBle_discoveryData.advDataLen;
 808              		.loc 1 927 0
 809 0032 3B1C     		mov	r3, r7
 810 0034 0F33     		add	r3, r3, #15
 811 0036 584A     		ldr	r2, .L53
 812 0038 D27F     		ldrb	r2, [r2, #31]
 813 003a 1A70     		strb	r2, [r3]
 928:.\Generated_Source\PSoC4/CYBLE.c ****             }
 929:.\Generated_Source\PSoC4/CYBLE.c ****             else                /* Destination - scan response structure */
 930:.\Generated_Source\PSoC4/CYBLE.c ****             {
 931:.\Generated_Source\PSoC4/CYBLE.c ****                 destBuffer = cyBle_scanRspData.scanRspData;
 932:.\Generated_Source\PSoC4/CYBLE.c ****                 maxLength = cyBle_scanRspData.scanRspDataLen;
 933:.\Generated_Source\PSoC4/CYBLE.c ****             }
 934:.\Generated_Source\PSoC4/CYBLE.c ****             
 935:.\Generated_Source\PSoC4/CYBLE.c ****             while((byteCounter < maxLength) && (0u == flag))
 814              		.loc 1 935 0
 815 003c 3DE0     		b	.L40
 816              	.L38:
 931:.\Generated_Source\PSoC4/CYBLE.c ****                 destBuffer = cyBle_scanRspData.scanRspData;
 817              		.loc 1 931 0
 818 003e 574B     		ldr	r3, .L53+4
 819 0040 3B61     		str	r3, [r7, #16]
 932:.\Generated_Source\PSoC4/CYBLE.c ****                 maxLength = cyBle_scanRspData.scanRspDataLen;
 820              		.loc 1 932 0
 821 0042 3B1C     		mov	r3, r7
 822 0044 0F33     		add	r3, r3, #15
 823 0046 554A     		ldr	r2, .L53+4
 824 0048 D27F     		ldrb	r2, [r2, #31]
ARM GAS  C:\Users\jdmoussa\AppData\Local\Temp\ccsp17ZB.s 			page 32


 825 004a 1A70     		strb	r2, [r3]
 826              		.loc 1 935 0
 827 004c 35E0     		b	.L40
 828              	.L46:
 936:.\Generated_Source\PSoC4/CYBLE.c ****             {
 937:.\Generated_Source\PSoC4/CYBLE.c ****                 adLength = destBuffer[byteCounter];
 829              		.loc 1 937 0
 830 004e 3B1C     		mov	r3, r7
 831 0050 1433     		add	r3, r3, #20
 832 0052 1B78     		ldrb	r3, [r3]
 833 0054 3A69     		ldr	r2, [r7, #16]
 834 0056 D218     		add	r2, r2, r3
 835 0058 3B1C     		mov	r3, r7
 836 005a 1533     		add	r3, r3, #21
 837 005c 1278     		ldrb	r2, [r2]
 838 005e 1A70     		strb	r2, [r3]
 938:.\Generated_Source\PSoC4/CYBLE.c ****                 
 939:.\Generated_Source\PSoC4/CYBLE.c ****                 if(0u != adLength)
 839              		.loc 1 939 0
 840 0060 3B1C     		mov	r3, r7
 841 0062 1533     		add	r3, r3, #21
 842 0064 1B78     		ldrb	r3, [r3]
 843 0066 002B     		cmp	r3, #0
 844 0068 26D0     		beq	.L41
 940:.\Generated_Source\PSoC4/CYBLE.c ****                 {
 941:.\Generated_Source\PSoC4/CYBLE.c ****                     /* Increment byte counter so it can point to AD type */
 942:.\Generated_Source\PSoC4/CYBLE.c ****                     byteCounter++;
 845              		.loc 1 942 0
 846 006a 3B1C     		mov	r3, r7
 847 006c 1433     		add	r3, r3, #20
 848 006e 1A78     		ldrb	r2, [r3]
 849 0070 3B1C     		mov	r3, r7
 850 0072 1433     		add	r3, r3, #20
 851 0074 0132     		add	r2, r2, #1
 852 0076 1A70     		strb	r2, [r3]
 943:.\Generated_Source\PSoC4/CYBLE.c ****                     
 944:.\Generated_Source\PSoC4/CYBLE.c ****                     if((CYBLE_SHORT_LOCAL_NAME == destBuffer[byteCounter]) || 
 853              		.loc 1 944 0
 854 0078 3B1C     		mov	r3, r7
 855 007a 1433     		add	r3, r3, #20
 856 007c 1B78     		ldrb	r3, [r3]
 857 007e 3A69     		ldr	r2, [r7, #16]
 858 0080 D318     		add	r3, r2, r3
 859 0082 1B78     		ldrb	r3, [r3]
 860 0084 082B     		cmp	r3, #8
 861 0086 07D0     		beq	.L42
 945:.\Generated_Source\PSoC4/CYBLE.c ****                         (CYBLE_COMPLETE_LOCAL_NAME == destBuffer[byteCounter]))
 862              		.loc 1 945 0 discriminator 1
 863 0088 3B1C     		mov	r3, r7
 864 008a 1433     		add	r3, r3, #20
 865 008c 1B78     		ldrb	r3, [r3]
 866 008e 3A69     		ldr	r2, [r7, #16]
 867 0090 D318     		add	r3, r2, r3
 868 0092 1B78     		ldrb	r3, [r3]
 944:.\Generated_Source\PSoC4/CYBLE.c ****                     if((CYBLE_SHORT_LOCAL_NAME == destBuffer[byteCounter]) || 
 869              		.loc 1 944 0 discriminator 1
 870 0094 092B     		cmp	r3, #9
ARM GAS  C:\Users\jdmoussa\AppData\Local\Temp\ccsp17ZB.s 			page 33


 871 0096 04D1     		bne	.L43
 872              	.L42:
 946:.\Generated_Source\PSoC4/CYBLE.c ****                     {
 947:.\Generated_Source\PSoC4/CYBLE.c ****                         /* Start of the Local Name AD type was fount. Set flag and exit the loop. *
 948:.\Generated_Source\PSoC4/CYBLE.c ****                         flag = 1u;
 873              		.loc 1 948 0
 874 0098 3B1C     		mov	r3, r7
 875 009a 1633     		add	r3, r3, #22
 876 009c 0122     		mov	r2, #1
 877 009e 1A70     		strb	r2, [r3]
 878 00a0 0BE0     		b	.L40
 879              	.L43:
 949:.\Generated_Source\PSoC4/CYBLE.c ****                     }
 950:.\Generated_Source\PSoC4/CYBLE.c ****                     else
 951:.\Generated_Source\PSoC4/CYBLE.c ****                     {
 952:.\Generated_Source\PSoC4/CYBLE.c ****                         byteCounter += adLength;
 880              		.loc 1 952 0
 881 00a2 3B1C     		mov	r3, r7
 882 00a4 1433     		add	r3, r3, #20
 883 00a6 391C     		mov	r1, r7
 884 00a8 1431     		add	r1, r1, #20
 885 00aa 3A1C     		mov	r2, r7
 886 00ac 1532     		add	r2, r2, #21
 887 00ae 0978     		ldrb	r1, [r1]
 888 00b0 1278     		ldrb	r2, [r2]
 889 00b2 8A18     		add	r2, r1, r2
 890 00b4 1A70     		strb	r2, [r3]
 891 00b6 00E0     		b	.L40
 892              	.L41:
 953:.\Generated_Source\PSoC4/CYBLE.c ****                     }
 954:.\Generated_Source\PSoC4/CYBLE.c ****                 }
 955:.\Generated_Source\PSoC4/CYBLE.c ****                 else
 956:.\Generated_Source\PSoC4/CYBLE.c ****                 {
 957:.\Generated_Source\PSoC4/CYBLE.c ****                     /* The end of advertisement data structure was encountered though exit the 
 958:.\Generated_Source\PSoC4/CYBLE.c ****                       loop. */
 959:.\Generated_Source\PSoC4/CYBLE.c ****                     break;
 893              		.loc 1 959 0
 894 00b8 0CE0     		b	.L45
 895              	.L40:
 935:.\Generated_Source\PSoC4/CYBLE.c ****             while((byteCounter < maxLength) && (0u == flag))
 896              		.loc 1 935 0 discriminator 1
 897 00ba 3A1C     		mov	r2, r7
 898 00bc 1432     		add	r2, r2, #20
 899 00be 3B1C     		mov	r3, r7
 900 00c0 0F33     		add	r3, r3, #15
 901 00c2 1278     		ldrb	r2, [r2]
 902 00c4 1B78     		ldrb	r3, [r3]
 903 00c6 9A42     		cmp	r2, r3
 904 00c8 04D2     		bcs	.L45
 935:.\Generated_Source\PSoC4/CYBLE.c ****             while((byteCounter < maxLength) && (0u == flag))
 905              		.loc 1 935 0 is_stmt 0 discriminator 2
 906 00ca 3B1C     		mov	r3, r7
 907 00cc 1633     		add	r3, r3, #22
 908 00ce 1B78     		ldrb	r3, [r3]
 909 00d0 002B     		cmp	r3, #0
 910 00d2 BCD0     		beq	.L46
 911              	.L45:
ARM GAS  C:\Users\jdmoussa\AppData\Local\Temp\ccsp17ZB.s 			page 34


 960:.\Generated_Source\PSoC4/CYBLE.c ****                 }
 961:.\Generated_Source\PSoC4/CYBLE.c ****             }
 962:.\Generated_Source\PSoC4/CYBLE.c ****             
 963:.\Generated_Source\PSoC4/CYBLE.c ****             if(0u != flag)
 912              		.loc 1 963 0 is_stmt 1
 913 00d4 3B1C     		mov	r3, r7
 914 00d6 1633     		add	r3, r3, #22
 915 00d8 1B78     		ldrb	r3, [r3]
 916 00da 002B     		cmp	r3, #0
 917 00dc 59D0     		beq	.L37
 964:.\Generated_Source\PSoC4/CYBLE.c ****             {
 965:.\Generated_Source\PSoC4/CYBLE.c ****                 /* Reuse "adLength" to hold location of the last character of local name in 
 966:.\Generated_Source\PSoC4/CYBLE.c ****                    AD structure. */
 967:.\Generated_Source\PSoC4/CYBLE.c ****                 adLength += byteCounter;
 918              		.loc 1 967 0
 919 00de 3B1C     		mov	r3, r7
 920 00e0 1533     		add	r3, r3, #21
 921 00e2 391C     		mov	r1, r7
 922 00e4 1531     		add	r1, r1, #21
 923 00e6 3A1C     		mov	r2, r7
 924 00e8 1432     		add	r2, r2, #20
 925 00ea 0978     		ldrb	r1, [r1]
 926 00ec 1278     		ldrb	r2, [r2]
 927 00ee 8A18     		add	r2, r1, r2
 928 00f0 1A70     		strb	r2, [r3]
 968:.\Generated_Source\PSoC4/CYBLE.c ****                 
 969:.\Generated_Source\PSoC4/CYBLE.c ****                 /* Increment byte counter to point to start of the local Name string */
 970:.\Generated_Source\PSoC4/CYBLE.c ****                 byteCounter++;
 929              		.loc 1 970 0
 930 00f2 3B1C     		mov	r3, r7
 931 00f4 1433     		add	r3, r3, #20
 932 00f6 1A78     		ldrb	r2, [r3]
 933 00f8 3B1C     		mov	r3, r7
 934 00fa 1433     		add	r3, r3, #20
 935 00fc 0132     		add	r2, r2, #1
 936 00fe 1A70     		strb	r2, [r3]
 971:.\Generated_Source\PSoC4/CYBLE.c ****                 
 972:.\Generated_Source\PSoC4/CYBLE.c ****                 for(i = byteCounter; ((i < (adLength)) && (CYBLE_NULL_CHARCTER != name[i - byteCoun
 937              		.loc 1 972 0
 938 0100 3B1C     		mov	r3, r7
 939 0102 1733     		add	r3, r3, #23
 940 0104 3A1C     		mov	r2, r7
 941 0106 1432     		add	r2, r2, #20
 942 0108 1278     		ldrb	r2, [r2]
 943 010a 1A70     		strb	r2, [r3]
 944 010c 16E0     		b	.L48
 945              	.L50:
 973:.\Generated_Source\PSoC4/CYBLE.c ****                 {
 974:.\Generated_Source\PSoC4/CYBLE.c ****                     destBuffer[i] = (uint8)name[i - byteCounter];
 946              		.loc 1 974 0 discriminator 1
 947 010e 3B1C     		mov	r3, r7
 948 0110 1733     		add	r3, r3, #23
 949 0112 1B78     		ldrb	r3, [r3]
 950 0114 3A69     		ldr	r2, [r7, #16]
 951 0116 D318     		add	r3, r2, r3
 952 0118 3A1C     		mov	r2, r7
 953 011a 1732     		add	r2, r2, #23
ARM GAS  C:\Users\jdmoussa\AppData\Local\Temp\ccsp17ZB.s 			page 35


 954 011c 1178     		ldrb	r1, [r2]
 955 011e 3A1C     		mov	r2, r7
 956 0120 1432     		add	r2, r2, #20
 957 0122 1278     		ldrb	r2, [r2]
 958 0124 8A1A     		sub	r2, r1, r2
 959 0126 7968     		ldr	r1, [r7, #4]
 960 0128 8A18     		add	r2, r1, r2
 961 012a 1278     		ldrb	r2, [r2]
 962 012c 1A70     		strb	r2, [r3]
 972:.\Generated_Source\PSoC4/CYBLE.c ****                 for(i = byteCounter; ((i < (adLength)) && (CYBLE_NULL_CHARCTER != name[i - byteCoun
 963              		.loc 1 972 0 discriminator 1
 964 012e 3B1C     		mov	r3, r7
 965 0130 1733     		add	r3, r3, #23
 966 0132 1A78     		ldrb	r2, [r3]
 967 0134 3B1C     		mov	r3, r7
 968 0136 1733     		add	r3, r3, #23
 969 0138 0132     		add	r2, r2, #1
 970 013a 1A70     		strb	r2, [r3]
 971              	.L48:
 972 013c 3A1C     		mov	r2, r7
 973 013e 1732     		add	r2, r2, #23
 974 0140 3B1C     		mov	r3, r7
 975 0142 1533     		add	r3, r3, #21
 976 0144 1278     		ldrb	r2, [r2]
 977 0146 1B78     		ldrb	r3, [r3]
 978 0148 9A42     		cmp	r2, r3
 979 014a 0BD2     		bcs	.L49
 972:.\Generated_Source\PSoC4/CYBLE.c ****                 for(i = byteCounter; ((i < (adLength)) && (CYBLE_NULL_CHARCTER != name[i - byteCoun
 980              		.loc 1 972 0 is_stmt 0 discriminator 2
 981 014c 3B1C     		mov	r3, r7
 982 014e 1733     		add	r3, r3, #23
 983 0150 1A78     		ldrb	r2, [r3]
 984 0152 3B1C     		mov	r3, r7
 985 0154 1433     		add	r3, r3, #20
 986 0156 1B78     		ldrb	r3, [r3]
 987 0158 D31A     		sub	r3, r2, r3
 988 015a 7A68     		ldr	r2, [r7, #4]
 989 015c D318     		add	r3, r2, r3
 990 015e 1B78     		ldrb	r3, [r3]
 991 0160 002B     		cmp	r3, #0
 992 0162 D4D1     		bne	.L50
 993              	.L49:
 975:.\Generated_Source\PSoC4/CYBLE.c ****                 }
 976:.\Generated_Source\PSoC4/CYBLE.c ****                 
 977:.\Generated_Source\PSoC4/CYBLE.c ****                 /* This loop handles the case when new local name is shorted than old one.
 978:.\Generated_Source\PSoC4/CYBLE.c ****                    In this case all remaining characters should be null characters. */
 979:.\Generated_Source\PSoC4/CYBLE.c ****                 while(adLength > i)
 994              		.loc 1 979 0 is_stmt 1
 995 0164 0DE0     		b	.L51
 996              	.L52:
 980:.\Generated_Source\PSoC4/CYBLE.c ****                 {
 981:.\Generated_Source\PSoC4/CYBLE.c ****                     /* Terminate string */
 982:.\Generated_Source\PSoC4/CYBLE.c ****                     destBuffer[i] = (uint8)CYBLE_NULL_CHARCTER;
 997              		.loc 1 982 0
 998 0166 3B1C     		mov	r3, r7
 999 0168 1733     		add	r3, r3, #23
 1000 016a 1B78     		ldrb	r3, [r3]
ARM GAS  C:\Users\jdmoussa\AppData\Local\Temp\ccsp17ZB.s 			page 36


 1001 016c 3A69     		ldr	r2, [r7, #16]
 1002 016e D318     		add	r3, r2, r3
 1003 0170 0022     		mov	r2, #0
 1004 0172 1A70     		strb	r2, [r3]
 983:.\Generated_Source\PSoC4/CYBLE.c ****                     i++;
 1005              		.loc 1 983 0
 1006 0174 3B1C     		mov	r3, r7
 1007 0176 1733     		add	r3, r3, #23
 1008 0178 1A78     		ldrb	r2, [r3]
 1009 017a 3B1C     		mov	r3, r7
 1010 017c 1733     		add	r3, r3, #23
 1011 017e 0132     		add	r2, r2, #1
 1012 0180 1A70     		strb	r2, [r3]
 1013              	.L51:
 979:.\Generated_Source\PSoC4/CYBLE.c ****                 while(adLength > i)
 1014              		.loc 1 979 0 discriminator 1
 1015 0182 3A1C     		mov	r2, r7
 1016 0184 1532     		add	r2, r2, #21
 1017 0186 3B1C     		mov	r3, r7
 1018 0188 1733     		add	r3, r3, #23
 1019 018a 1278     		ldrb	r2, [r2]
 1020 018c 1B78     		ldrb	r3, [r3]
 1021 018e 9A42     		cmp	r2, r3
 1022 0190 E9D8     		bhi	.L52
 1023              	.L37:
 984:.\Generated_Source\PSoC4/CYBLE.c ****                 }
 985:.\Generated_Source\PSoC4/CYBLE.c ****             }
 986:.\Generated_Source\PSoC4/CYBLE.c ****         }
 1024              		.loc 1 986 0
 1025 0192 BD46     		mov	sp, r7
 1026 0194 06B0     		add	sp, sp, #24
 1027              		@ sp needed
 1028 0196 80BD     		pop	{r7, pc}
 1029              	.L54:
 1030              		.align	2
 1031              	.L53:
 1032 0198 00000000 		.word	cyBle_discoveryData
 1033 019c 00000000 		.word	cyBle_scanRspData
 1034              		.cfi_endproc
 1035              	.LFE10:
 1036              		.size	CyBle_ChangeAdLocalName, .-CyBle_ChangeAdLocalName
 1037              		.section	.text.CyBle_GapSetLocalName,"ax",%progbits
 1038              		.align	2
 1039              		.global	CyBle_GapSetLocalName
 1040              		.code	16
 1041              		.thumb_func
 1042              		.type	CyBle_GapSetLocalName, %function
 1043              	CyBle_GapSetLocalName:
 1044              	.LFB11:
 987:.\Generated_Source\PSoC4/CYBLE.c ****         
 988:.\Generated_Source\PSoC4/CYBLE.c **** #endif /* (CYBLE_GAP_ROLE_PERIPHERAL) */  
 989:.\Generated_Source\PSoC4/CYBLE.c ****     
 990:.\Generated_Source\PSoC4/CYBLE.c ****     
 991:.\Generated_Source\PSoC4/CYBLE.c ****     /******************************************************************************
 992:.\Generated_Source\PSoC4/CYBLE.c ****     ##Function Name: CyBle_GapSetLocalName
 993:.\Generated_Source\PSoC4/CYBLE.c ****     *******************************************************************************
 994:.\Generated_Source\PSoC4/CYBLE.c ****     Summary:
ARM GAS  C:\Users\jdmoussa\AppData\Local\Temp\ccsp17ZB.s 			page 37


 995:.\Generated_Source\PSoC4/CYBLE.c ****      This API is used to set the local device name - a Characteristic of the 
 996:.\Generated_Source\PSoC4/CYBLE.c ****      GAP Service. If the characteristic length entered in the component customizer
 997:.\Generated_Source\PSoC4/CYBLE.c ****      is shorter than the string specified by the "name" parameter, the local device
 998:.\Generated_Source\PSoC4/CYBLE.c ****      name will be cut to the length specified in the customizer.
 999:.\Generated_Source\PSoC4/CYBLE.c **** 
1000:.\Generated_Source\PSoC4/CYBLE.c ****     Parameters:
1001:.\Generated_Source\PSoC4/CYBLE.c ****      char8 name: The local device name string. The name string to be written as
1002:.\Generated_Source\PSoC4/CYBLE.c ****                  the local device name. It represents a UTF-8 encoded User
1003:.\Generated_Source\PSoC4/CYBLE.c ****                  Friendly Descriptive Name for the device. The length of the local
1004:.\Generated_Source\PSoC4/CYBLE.c ****                  device string is entered into the component customizer and it can
1005:.\Generated_Source\PSoC4/CYBLE.c ****                  be set to a value from 0 to 248 bytes. If the name contained in
1006:.\Generated_Source\PSoC4/CYBLE.c ****                  the parameter is shorter than the length from the customizer, the
1007:.\Generated_Source\PSoC4/CYBLE.c ****                  end of the name is indicated by a NULL octet (0x00).
1008:.\Generated_Source\PSoC4/CYBLE.c **** 
1009:.\Generated_Source\PSoC4/CYBLE.c ****     Return:
1010:.\Generated_Source\PSoC4/CYBLE.c ****      CYBLE_API_RESULT_T : Return value indicates if the function succeeded or 
1011:.\Generated_Source\PSoC4/CYBLE.c ****      failed. Following are the possible error codes.
1012:.\Generated_Source\PSoC4/CYBLE.c ****      <table>
1013:.\Generated_Source\PSoC4/CYBLE.c ****       Errors codes                        Description
1014:.\Generated_Source\PSoC4/CYBLE.c ****       ------------                        -----------
1015:.\Generated_Source\PSoC4/CYBLE.c ****       CYBLE_ERROR_OK                      Function completed successfully.
1016:.\Generated_Source\PSoC4/CYBLE.c ****       CYBLE_ERROR_INVALID_PARAMETER       On specifying NULL as input parameter
1017:.\Generated_Source\PSoC4/CYBLE.c ****      </table>
1018:.\Generated_Source\PSoC4/CYBLE.c ****  
1019:.\Generated_Source\PSoC4/CYBLE.c ****     ******************************************************************************/
1020:.\Generated_Source\PSoC4/CYBLE.c ****     CYBLE_API_RESULT_T CyBle_GapSetLocalName(const char8 name[])
1021:.\Generated_Source\PSoC4/CYBLE.c ****     {
 1045              		.loc 1 1021 0
 1046              		.cfi_startproc
 1047 0000 80B5     		push	{r7, lr}
 1048              		.cfi_def_cfa_offset 8
 1049              		.cfi_offset 7, -8
 1050              		.cfi_offset 14, -4
 1051 0002 86B0     		sub	sp, sp, #24
 1052              		.cfi_def_cfa_offset 32
 1053 0004 00AF     		add	r7, sp, #0
 1054              		.cfi_def_cfa_register 7
 1055 0006 7860     		str	r0, [r7, #4]
1022:.\Generated_Source\PSoC4/CYBLE.c ****         CYBLE_API_RESULT_T apiResult = CYBLE_ERROR_OK;
 1056              		.loc 1 1022 0
 1057 0008 3B1C     		mov	r3, r7
 1058 000a 1633     		add	r3, r3, #22
 1059 000c 0022     		mov	r2, #0
 1060 000e 1A80     		strh	r2, [r3]
1023:.\Generated_Source\PSoC4/CYBLE.c ****         uint8 i;
1024:.\Generated_Source\PSoC4/CYBLE.c ****         char8 *ptr;
1025:.\Generated_Source\PSoC4/CYBLE.c ****         uint8 charLen;
1026:.\Generated_Source\PSoC4/CYBLE.c **** 
1027:.\Generated_Source\PSoC4/CYBLE.c ****         if(NULL != name)
 1061              		.loc 1 1027 0
 1062 0010 7B68     		ldr	r3, [r7, #4]
 1063 0012 002B     		cmp	r3, #0
 1064 0014 42D0     		beq	.L56
1028:.\Generated_Source\PSoC4/CYBLE.c ****         {
1029:.\Generated_Source\PSoC4/CYBLE.c ****             /* Get the pointer to the Device Name characteristic  */
1030:.\Generated_Source\PSoC4/CYBLE.c ****             ptr = (char8 *)
 1065              		.loc 1 1030 0
ARM GAS  C:\Users\jdmoussa\AppData\Local\Temp\ccsp17ZB.s 			page 38


 1066 0016 274B     		ldr	r3, .L62
 1067 0018 9B6B     		ldr	r3, [r3, #56]
 1068 001a 3B61     		str	r3, [r7, #16]
1031:.\Generated_Source\PSoC4/CYBLE.c ****                 cyBle_gattDB[CYBLE_GAP_DEVICE_NAME_INDEX].attValue.attFormatValue.attGenericVal;
1032:.\Generated_Source\PSoC4/CYBLE.c **** 
1033:.\Generated_Source\PSoC4/CYBLE.c ****             /* First need to get the length of the characteristic data in the GATT
1034:.\Generated_Source\PSoC4/CYBLE.c ****                 database to make sure there is enough place for the data. The length
1035:.\Generated_Source\PSoC4/CYBLE.c ****                 can't be longer than 248, so only the LSB of 16 bit of length is to
1036:.\Generated_Source\PSoC4/CYBLE.c ****                 be used. */
1037:.\Generated_Source\PSoC4/CYBLE.c ****             charLen = (uint8) cyBle_gattDB[CYBLE_GAP_DEVICE_NAME_INDEX].attValue.attFormatValue.len
 1069              		.loc 1 1037 0
 1070 001c 254B     		ldr	r3, .L62
 1071 001e 9A8E     		ldrh	r2, [r3, #52]
 1072 0020 3B1C     		mov	r3, r7
 1073 0022 0F33     		add	r3, r3, #15
 1074 0024 1A70     		strb	r2, [r3]
1038:.\Generated_Source\PSoC4/CYBLE.c **** 
1039:.\Generated_Source\PSoC4/CYBLE.c ****             /* Copy name into characteristic */
1040:.\Generated_Source\PSoC4/CYBLE.c ****             for(i = 0u; ((i < (charLen - 1u)) && (CYBLE_NULL_CHARCTER != name[i])); i++)
 1075              		.loc 1 1040 0
 1076 0026 3B1C     		mov	r3, r7
 1077 0028 1533     		add	r3, r3, #21
 1078 002a 0022     		mov	r2, #0
 1079 002c 1A70     		strb	r2, [r3]
 1080 002e 12E0     		b	.L57
 1081              	.L59:
1041:.\Generated_Source\PSoC4/CYBLE.c ****             {
1042:.\Generated_Source\PSoC4/CYBLE.c ****                 ptr[i] = name[i];
 1082              		.loc 1 1042 0 discriminator 1
 1083 0030 3B1C     		mov	r3, r7
 1084 0032 1533     		add	r3, r3, #21
 1085 0034 1B78     		ldrb	r3, [r3]
 1086 0036 3A69     		ldr	r2, [r7, #16]
 1087 0038 D318     		add	r3, r2, r3
 1088 003a 3A1C     		mov	r2, r7
 1089 003c 1532     		add	r2, r2, #21
 1090 003e 1278     		ldrb	r2, [r2]
 1091 0040 7968     		ldr	r1, [r7, #4]
 1092 0042 8A18     		add	r2, r1, r2
 1093 0044 1278     		ldrb	r2, [r2]
 1094 0046 1A70     		strb	r2, [r3]
1040:.\Generated_Source\PSoC4/CYBLE.c ****             for(i = 0u; ((i < (charLen - 1u)) && (CYBLE_NULL_CHARCTER != name[i])); i++)
 1095              		.loc 1 1040 0 discriminator 1
 1096 0048 3B1C     		mov	r3, r7
 1097 004a 1533     		add	r3, r3, #21
 1098 004c 1A78     		ldrb	r2, [r3]
 1099 004e 3B1C     		mov	r3, r7
 1100 0050 1533     		add	r3, r3, #21
 1101 0052 0132     		add	r2, r2, #1
 1102 0054 1A70     		strb	r2, [r3]
 1103              	.L57:
 1104 0056 3B1C     		mov	r3, r7
 1105 0058 1533     		add	r3, r3, #21
 1106 005a 1A78     		ldrb	r2, [r3]
 1107 005c 3B1C     		mov	r3, r7
 1108 005e 0F33     		add	r3, r3, #15
 1109 0060 1B78     		ldrb	r3, [r3]
ARM GAS  C:\Users\jdmoussa\AppData\Local\Temp\ccsp17ZB.s 			page 39


 1110 0062 013B     		sub	r3, r3, #1
 1111 0064 9A42     		cmp	r2, r3
 1112 0066 07D2     		bcs	.L58
1040:.\Generated_Source\PSoC4/CYBLE.c ****             for(i = 0u; ((i < (charLen - 1u)) && (CYBLE_NULL_CHARCTER != name[i])); i++)
 1113              		.loc 1 1040 0 is_stmt 0 discriminator 2
 1114 0068 3B1C     		mov	r3, r7
 1115 006a 1533     		add	r3, r3, #21
 1116 006c 1B78     		ldrb	r3, [r3]
 1117 006e 7A68     		ldr	r2, [r7, #4]
 1118 0070 D318     		add	r3, r2, r3
 1119 0072 1B78     		ldrb	r3, [r3]
 1120 0074 002B     		cmp	r3, #0
 1121 0076 DBD1     		bne	.L59
 1122              	.L58:
1043:.\Generated_Source\PSoC4/CYBLE.c ****             }
1044:.\Generated_Source\PSoC4/CYBLE.c **** 
1045:.\Generated_Source\PSoC4/CYBLE.c ****             /* Terminate string */
1046:.\Generated_Source\PSoC4/CYBLE.c ****             ptr[i] = CYBLE_NULL_CHARCTER;
 1123              		.loc 1 1046 0 is_stmt 1
 1124 0078 3B1C     		mov	r3, r7
 1125 007a 1533     		add	r3, r3, #21
 1126 007c 1B78     		ldrb	r3, [r3]
 1127 007e 3A69     		ldr	r2, [r7, #16]
 1128 0080 D318     		add	r3, r2, r3
 1129 0082 0022     		mov	r2, #0
 1130 0084 1A70     		strb	r2, [r3]
1047:.\Generated_Source\PSoC4/CYBLE.c ****             
1048:.\Generated_Source\PSoC4/CYBLE.c ****             /* Update device name in advertising and scan response structure */
1049:.\Generated_Source\PSoC4/CYBLE.c ****             #if(CYBLE_GAP_ROLE_PERIPHERAL)
1050:.\Generated_Source\PSoC4/CYBLE.c ****                 CyBle_ChangeAdLocalName(name, 0u);
 1131              		.loc 1 1050 0
 1132 0086 7B68     		ldr	r3, [r7, #4]
 1133 0088 181C     		mov	r0, r3
 1134 008a 0021     		mov	r1, #0
 1135 008c FFF7FEFF 		bl	CyBle_ChangeAdLocalName
1051:.\Generated_Source\PSoC4/CYBLE.c ****                 CyBle_ChangeAdLocalName(name, 1u);
 1136              		.loc 1 1051 0
 1137 0090 7B68     		ldr	r3, [r7, #4]
 1138 0092 181C     		mov	r0, r3
 1139 0094 0121     		mov	r1, #1
 1140 0096 FFF7FEFF 		bl	CyBle_ChangeAdLocalName
 1141 009a 03E0     		b	.L60
 1142              	.L56:
1052:.\Generated_Source\PSoC4/CYBLE.c ****             #endif /* (CYBLE_GAP_ROLE_PERIPHERAL) */
1053:.\Generated_Source\PSoC4/CYBLE.c ****         }
1054:.\Generated_Source\PSoC4/CYBLE.c ****         else
1055:.\Generated_Source\PSoC4/CYBLE.c ****         {
1056:.\Generated_Source\PSoC4/CYBLE.c ****             apiResult = CYBLE_ERROR_INVALID_PARAMETER;
 1143              		.loc 1 1056 0
 1144 009c 3B1C     		mov	r3, r7
 1145 009e 1633     		add	r3, r3, #22
 1146 00a0 0122     		mov	r2, #1
 1147 00a2 1A80     		strh	r2, [r3]
 1148              	.L60:
1057:.\Generated_Source\PSoC4/CYBLE.c ****         }
1058:.\Generated_Source\PSoC4/CYBLE.c ****         
1059:.\Generated_Source\PSoC4/CYBLE.c ****         return(apiResult);
ARM GAS  C:\Users\jdmoussa\AppData\Local\Temp\ccsp17ZB.s 			page 40


 1149              		.loc 1 1059 0
 1150 00a4 3B1C     		mov	r3, r7
 1151 00a6 1633     		add	r3, r3, #22
 1152 00a8 1B88     		ldrh	r3, [r3]
1060:.\Generated_Source\PSoC4/CYBLE.c ****     }
 1153              		.loc 1 1060 0
 1154 00aa 181C     		mov	r0, r3
 1155 00ac BD46     		mov	sp, r7
 1156 00ae 06B0     		add	sp, sp, #24
 1157              		@ sp needed
 1158 00b0 80BD     		pop	{r7, pc}
 1159              	.L63:
 1160 00b2 C046     		.align	2
 1161              	.L62:
 1162 00b4 00000000 		.word	cyBle_gattDB
 1163              		.cfi_endproc
 1164              	.LFE11:
 1165              		.size	CyBle_GapSetLocalName, .-CyBle_GapSetLocalName
 1166              		.section	.text.CyBle_GapGetLocalName,"ax",%progbits
 1167              		.align	2
 1168              		.global	CyBle_GapGetLocalName
 1169              		.code	16
 1170              		.thumb_func
 1171              		.type	CyBle_GapGetLocalName, %function
 1172              	CyBle_GapGetLocalName:
 1173              	.LFB12:
1061:.\Generated_Source\PSoC4/CYBLE.c **** 
1062:.\Generated_Source\PSoC4/CYBLE.c **** 
1063:.\Generated_Source\PSoC4/CYBLE.c ****     /******************************************************************************
1064:.\Generated_Source\PSoC4/CYBLE.c ****     ##Function Name: CyBle_GapGetLocalName
1065:.\Generated_Source\PSoC4/CYBLE.c ****     *******************************************************************************
1066:.\Generated_Source\PSoC4/CYBLE.c ****  
1067:.\Generated_Source\PSoC4/CYBLE.c ****     Summary:
1068:.\Generated_Source\PSoC4/CYBLE.c ****      This API is used to read the local device name - a Characteristic of the 
1069:.\Generated_Source\PSoC4/CYBLE.c ****      GAP Service.
1070:.\Generated_Source\PSoC4/CYBLE.c **** 
1071:.\Generated_Source\PSoC4/CYBLE.c ****     Parameters:
1072:.\Generated_Source\PSoC4/CYBLE.c ****     char8 name: The local device name string. Used to read the local name to the
1073:.\Generated_Source\PSoC4/CYBLE.c ****                 given string array. It represents a UTF-8 encoded User Friendly 
1074:.\Generated_Source\PSoC4/CYBLE.c ****                 Descriptive Name for the device. The length of the local device
1075:.\Generated_Source\PSoC4/CYBLE.c ****                 string is entered into the component customizer and it can be set
1076:.\Generated_Source\PSoC4/CYBLE.c ****                 to a value from 0 to 248 bytes. If the name contained in the
1077:.\Generated_Source\PSoC4/CYBLE.c ****                 parameter is shorter than the length from the customizer, the end
1078:.\Generated_Source\PSoC4/CYBLE.c ****                 of the name is indicated by a NULL octet (0x00).
1079:.\Generated_Source\PSoC4/CYBLE.c **** 
1080:.\Generated_Source\PSoC4/CYBLE.c ****     Return:
1081:.\Generated_Source\PSoC4/CYBLE.c ****      CYBLE_API_RESULT_T : Return value indicates if the function succeeded or 
1082:.\Generated_Source\PSoC4/CYBLE.c ****      failed. Following are the possible error codes.
1083:.\Generated_Source\PSoC4/CYBLE.c ****      <table>
1084:.\Generated_Source\PSoC4/CYBLE.c ****       Errors codes                        Description
1085:.\Generated_Source\PSoC4/CYBLE.c ****       ------------                        -----------
1086:.\Generated_Source\PSoC4/CYBLE.c ****       CYBLE_ERROR_OK                      Function completed successfully.
1087:.\Generated_Source\PSoC4/CYBLE.c ****       CYBLE_ERROR_INVALID_PARAMETER       On specifying NULL as input parameter
1088:.\Generated_Source\PSoC4/CYBLE.c ****      </table>
1089:.\Generated_Source\PSoC4/CYBLE.c **** 
1090:.\Generated_Source\PSoC4/CYBLE.c ****     ******************************************************************************/
1091:.\Generated_Source\PSoC4/CYBLE.c ****     CYBLE_API_RESULT_T CyBle_GapGetLocalName(char8 name[])
ARM GAS  C:\Users\jdmoussa\AppData\Local\Temp\ccsp17ZB.s 			page 41


1092:.\Generated_Source\PSoC4/CYBLE.c ****     {
 1174              		.loc 1 1092 0
 1175              		.cfi_startproc
 1176 0000 80B5     		push	{r7, lr}
 1177              		.cfi_def_cfa_offset 8
 1178              		.cfi_offset 7, -8
 1179              		.cfi_offset 14, -4
 1180 0002 86B0     		sub	sp, sp, #24
 1181              		.cfi_def_cfa_offset 32
 1182 0004 00AF     		add	r7, sp, #0
 1183              		.cfi_def_cfa_register 7
 1184 0006 7860     		str	r0, [r7, #4]
1093:.\Generated_Source\PSoC4/CYBLE.c ****         CYBLE_API_RESULT_T apiResult = CYBLE_ERROR_OK;
 1185              		.loc 1 1093 0
 1186 0008 3B1C     		mov	r3, r7
 1187 000a 1633     		add	r3, r3, #22
 1188 000c 0022     		mov	r2, #0
 1189 000e 1A80     		strh	r2, [r3]
1094:.\Generated_Source\PSoC4/CYBLE.c ****         uint8 charLen;
1095:.\Generated_Source\PSoC4/CYBLE.c ****         uint8 i;
1096:.\Generated_Source\PSoC4/CYBLE.c ****         char8 *ptr;
1097:.\Generated_Source\PSoC4/CYBLE.c **** 
1098:.\Generated_Source\PSoC4/CYBLE.c ****         if(NULL != name)
 1190              		.loc 1 1098 0
 1191 0010 7B68     		ldr	r3, [r7, #4]
 1192 0012 002B     		cmp	r3, #0
 1193 0014 38D0     		beq	.L65
1099:.\Generated_Source\PSoC4/CYBLE.c ****         {
1100:.\Generated_Source\PSoC4/CYBLE.c ****             /* Get the pointer to the Device Name characteristic  */
1101:.\Generated_Source\PSoC4/CYBLE.c ****             ptr = (char8 *) cyBle_gattDB[CYBLE_GAP_DEVICE_NAME_INDEX].attValue.attFormatValue.attGe
 1194              		.loc 1 1101 0
 1195 0016 224B     		ldr	r3, .L71
 1196 0018 9B6B     		ldr	r3, [r3, #56]
 1197 001a 3B61     		str	r3, [r7, #16]
1102:.\Generated_Source\PSoC4/CYBLE.c **** 
1103:.\Generated_Source\PSoC4/CYBLE.c ****             /* First need to get the length of the characteristic data in the GATT
1104:.\Generated_Source\PSoC4/CYBLE.c ****                 database to make sure there is enough place for the data. The length
1105:.\Generated_Source\PSoC4/CYBLE.c ****                 can't be longer than 248, so only the LSB of 16 bit of length is to
1106:.\Generated_Source\PSoC4/CYBLE.c ****                 be used. */
1107:.\Generated_Source\PSoC4/CYBLE.c ****             charLen = (uint8)cyBle_gattDB[CYBLE_GAP_DEVICE_NAME_INDEX].attValue.attFormatValue.leng
 1198              		.loc 1 1107 0
 1199 001c 204B     		ldr	r3, .L71
 1200 001e 9A8E     		ldrh	r2, [r3, #52]
 1201 0020 3B1C     		mov	r3, r7
 1202 0022 0F33     		add	r3, r3, #15
 1203 0024 1A70     		strb	r2, [r3]
1108:.\Generated_Source\PSoC4/CYBLE.c **** 
1109:.\Generated_Source\PSoC4/CYBLE.c ****             /* Copy name from characteristic */
1110:.\Generated_Source\PSoC4/CYBLE.c ****             for(i = 0u; ((i < (charLen - 1u)) && (CYBLE_NULL_CHARCTER != ptr[i])); i++)
 1204              		.loc 1 1110 0
 1205 0026 3B1C     		mov	r3, r7
 1206 0028 1533     		add	r3, r3, #21
 1207 002a 0022     		mov	r2, #0
 1208 002c 1A70     		strb	r2, [r3]
 1209 002e 12E0     		b	.L66
 1210              	.L68:
1111:.\Generated_Source\PSoC4/CYBLE.c ****             {
ARM GAS  C:\Users\jdmoussa\AppData\Local\Temp\ccsp17ZB.s 			page 42


1112:.\Generated_Source\PSoC4/CYBLE.c ****                 name[i] = ptr[i];
 1211              		.loc 1 1112 0 discriminator 1
 1212 0030 3B1C     		mov	r3, r7
 1213 0032 1533     		add	r3, r3, #21
 1214 0034 1B78     		ldrb	r3, [r3]
 1215 0036 7A68     		ldr	r2, [r7, #4]
 1216 0038 D318     		add	r3, r2, r3
 1217 003a 3A1C     		mov	r2, r7
 1218 003c 1532     		add	r2, r2, #21
 1219 003e 1278     		ldrb	r2, [r2]
 1220 0040 3969     		ldr	r1, [r7, #16]
 1221 0042 8A18     		add	r2, r1, r2
 1222 0044 1278     		ldrb	r2, [r2]
 1223 0046 1A70     		strb	r2, [r3]
1110:.\Generated_Source\PSoC4/CYBLE.c ****             for(i = 0u; ((i < (charLen - 1u)) && (CYBLE_NULL_CHARCTER != ptr[i])); i++)
 1224              		.loc 1 1110 0 discriminator 1
 1225 0048 3B1C     		mov	r3, r7
 1226 004a 1533     		add	r3, r3, #21
 1227 004c 1A78     		ldrb	r2, [r3]
 1228 004e 3B1C     		mov	r3, r7
 1229 0050 1533     		add	r3, r3, #21
 1230 0052 0132     		add	r2, r2, #1
 1231 0054 1A70     		strb	r2, [r3]
 1232              	.L66:
 1233 0056 3B1C     		mov	r3, r7
 1234 0058 1533     		add	r3, r3, #21
 1235 005a 1A78     		ldrb	r2, [r3]
 1236 005c 3B1C     		mov	r3, r7
 1237 005e 0F33     		add	r3, r3, #15
 1238 0060 1B78     		ldrb	r3, [r3]
 1239 0062 013B     		sub	r3, r3, #1
 1240 0064 9A42     		cmp	r2, r3
 1241 0066 07D2     		bcs	.L67
1110:.\Generated_Source\PSoC4/CYBLE.c ****             for(i = 0u; ((i < (charLen - 1u)) && (CYBLE_NULL_CHARCTER != ptr[i])); i++)
 1242              		.loc 1 1110 0 is_stmt 0 discriminator 2
 1243 0068 3B1C     		mov	r3, r7
 1244 006a 1533     		add	r3, r3, #21
 1245 006c 1B78     		ldrb	r3, [r3]
 1246 006e 3A69     		ldr	r2, [r7, #16]
 1247 0070 D318     		add	r3, r2, r3
 1248 0072 1B78     		ldrb	r3, [r3]
 1249 0074 002B     		cmp	r3, #0
 1250 0076 DBD1     		bne	.L68
 1251              	.L67:
1113:.\Generated_Source\PSoC4/CYBLE.c ****             }
1114:.\Generated_Source\PSoC4/CYBLE.c **** 
1115:.\Generated_Source\PSoC4/CYBLE.c ****             /* Terminate string */
1116:.\Generated_Source\PSoC4/CYBLE.c ****             name[i] = CYBLE_NULL_CHARCTER;
 1252              		.loc 1 1116 0 is_stmt 1
 1253 0078 3B1C     		mov	r3, r7
 1254 007a 1533     		add	r3, r3, #21
 1255 007c 1B78     		ldrb	r3, [r3]
 1256 007e 7A68     		ldr	r2, [r7, #4]
 1257 0080 D318     		add	r3, r2, r3
 1258 0082 0022     		mov	r2, #0
 1259 0084 1A70     		strb	r2, [r3]
 1260 0086 03E0     		b	.L69
ARM GAS  C:\Users\jdmoussa\AppData\Local\Temp\ccsp17ZB.s 			page 43


 1261              	.L65:
1117:.\Generated_Source\PSoC4/CYBLE.c ****         }
1118:.\Generated_Source\PSoC4/CYBLE.c ****         else
1119:.\Generated_Source\PSoC4/CYBLE.c ****         {
1120:.\Generated_Source\PSoC4/CYBLE.c ****             apiResult = CYBLE_ERROR_INVALID_PARAMETER;
 1262              		.loc 1 1120 0
 1263 0088 3B1C     		mov	r3, r7
 1264 008a 1633     		add	r3, r3, #22
 1265 008c 0122     		mov	r2, #1
 1266 008e 1A80     		strh	r2, [r3]
 1267              	.L69:
1121:.\Generated_Source\PSoC4/CYBLE.c ****         }
1122:.\Generated_Source\PSoC4/CYBLE.c ****         
1123:.\Generated_Source\PSoC4/CYBLE.c ****         return(apiResult);
 1268              		.loc 1 1123 0
 1269 0090 3B1C     		mov	r3, r7
 1270 0092 1633     		add	r3, r3, #22
 1271 0094 1B88     		ldrh	r3, [r3]
1124:.\Generated_Source\PSoC4/CYBLE.c ****     }
 1272              		.loc 1 1124 0
 1273 0096 181C     		mov	r0, r3
 1274 0098 BD46     		mov	sp, r7
 1275 009a 06B0     		add	sp, sp, #24
 1276              		@ sp needed
 1277 009c 80BD     		pop	{r7, pc}
 1278              	.L72:
 1279 009e C046     		.align	2
 1280              	.L71:
 1281 00a0 00000000 		.word	cyBle_gattDB
 1282              		.cfi_endproc
 1283              	.LFE12:
 1284              		.size	CyBle_GapGetLocalName, .-CyBle_GapGetLocalName
 1285              		.section	.text.CyBle_Get16ByPtr,"ax",%progbits
 1286              		.align	2
 1287              		.global	CyBle_Get16ByPtr
 1288              		.code	16
 1289              		.thumb_func
 1290              		.type	CyBle_Get16ByPtr, %function
 1291              	CyBle_Get16ByPtr:
 1292              	.LFB13:
1125:.\Generated_Source\PSoC4/CYBLE.c **** 
1126:.\Generated_Source\PSoC4/CYBLE.c **** #endif /* (CYBLE_GATT_ROLE_SERVER) */
1127:.\Generated_Source\PSoC4/CYBLE.c **** 
1128:.\Generated_Source\PSoC4/CYBLE.c **** 
1129:.\Generated_Source\PSoC4/CYBLE.c **** /******************************************************************************
1130:.\Generated_Source\PSoC4/CYBLE.c **** ##Function Name: CyBle_Get16ByPtr
1131:.\Generated_Source\PSoC4/CYBLE.c **** *******************************************************************************
1132:.\Generated_Source\PSoC4/CYBLE.c **** 
1133:.\Generated_Source\PSoC4/CYBLE.c **** Summary:
1134:.\Generated_Source\PSoC4/CYBLE.c ****  Returns the two-bytes value by using a pointer to the LSB.
1135:.\Generated_Source\PSoC4/CYBLE.c **** 
1136:.\Generated_Source\PSoC4/CYBLE.c **** Parameters:
1137:.\Generated_Source\PSoC4/CYBLE.c ****  uint8 * ptr: Pointer to the LSB of two-bytes data (little endian).
1138:.\Generated_Source\PSoC4/CYBLE.c **** 
1139:.\Generated_Source\PSoC4/CYBLE.c **** Return:
1140:.\Generated_Source\PSoC4/CYBLE.c ****  uint16 value: Two-bytes data.
1141:.\Generated_Source\PSoC4/CYBLE.c **** 
ARM GAS  C:\Users\jdmoussa\AppData\Local\Temp\ccsp17ZB.s 			page 44


1142:.\Generated_Source\PSoC4/CYBLE.c **** ******************************************************************************/
1143:.\Generated_Source\PSoC4/CYBLE.c **** uint16 CyBle_Get16ByPtr(const uint8 ptr[])
1144:.\Generated_Source\PSoC4/CYBLE.c **** {
 1293              		.loc 1 1144 0
 1294              		.cfi_startproc
 1295 0000 80B5     		push	{r7, lr}
 1296              		.cfi_def_cfa_offset 8
 1297              		.cfi_offset 7, -8
 1298              		.cfi_offset 14, -4
 1299 0002 82B0     		sub	sp, sp, #8
 1300              		.cfi_def_cfa_offset 16
 1301 0004 00AF     		add	r7, sp, #0
 1302              		.cfi_def_cfa_register 7
 1303 0006 7860     		str	r0, [r7, #4]
1145:.\Generated_Source\PSoC4/CYBLE.c ****     return ((uint16) ptr[0u] | ((uint16) (((uint16) ptr[1u]) << 8u)));
 1304              		.loc 1 1145 0
 1305 0008 7B68     		ldr	r3, [r7, #4]
 1306 000a 1B78     		ldrb	r3, [r3]
 1307 000c 1A1C     		mov	r2, r3
 1308 000e 7B68     		ldr	r3, [r7, #4]
 1309 0010 0133     		add	r3, r3, #1
 1310 0012 1B78     		ldrb	r3, [r3]
 1311 0014 1B02     		lsl	r3, r3, #8
 1312 0016 9BB2     		uxth	r3, r3
 1313 0018 1343     		orr	r3, r2
 1314 001a 9BB2     		uxth	r3, r3
1146:.\Generated_Source\PSoC4/CYBLE.c **** }
 1315              		.loc 1 1146 0
 1316 001c 181C     		mov	r0, r3
 1317 001e BD46     		mov	sp, r7
 1318 0020 02B0     		add	sp, sp, #8
 1319              		@ sp needed
 1320 0022 80BD     		pop	{r7, pc}
 1321              		.cfi_endproc
 1322              	.LFE13:
 1323              		.size	CyBle_Get16ByPtr, .-CyBle_Get16ByPtr
 1324              		.section	.text.CyBle_Set16ByPtr,"ax",%progbits
 1325              		.align	2
 1326              		.global	CyBle_Set16ByPtr
 1327              		.code	16
 1328              		.thumb_func
 1329              		.type	CyBle_Set16ByPtr, %function
 1330              	CyBle_Set16ByPtr:
 1331              	.LFB14:
1147:.\Generated_Source\PSoC4/CYBLE.c **** 
1148:.\Generated_Source\PSoC4/CYBLE.c **** 
1149:.\Generated_Source\PSoC4/CYBLE.c **** /******************************************************************************
1150:.\Generated_Source\PSoC4/CYBLE.c **** ##Function Name: CyBle_Set16ByPtr
1151:.\Generated_Source\PSoC4/CYBLE.c **** *******************************************************************************
1152:.\Generated_Source\PSoC4/CYBLE.c **** 
1153:.\Generated_Source\PSoC4/CYBLE.c **** Summary:
1154:.\Generated_Source\PSoC4/CYBLE.c ****  Sets the two-bytes value by using a pointer to the LSB.
1155:.\Generated_Source\PSoC4/CYBLE.c **** 
1156:.\Generated_Source\PSoC4/CYBLE.c **** Parameters:
1157:.\Generated_Source\PSoC4/CYBLE.c ****  uint8 * ptr:   Pointer to the LSB of two-bytes data (little endian).
1158:.\Generated_Source\PSoC4/CYBLE.c ****  uint16 value:  Two-bytes data to be written.
1159:.\Generated_Source\PSoC4/CYBLE.c **** 
ARM GAS  C:\Users\jdmoussa\AppData\Local\Temp\ccsp17ZB.s 			page 45


1160:.\Generated_Source\PSoC4/CYBLE.c **** Return:
1161:.\Generated_Source\PSoC4/CYBLE.c ****  None
1162:.\Generated_Source\PSoC4/CYBLE.c **** 
1163:.\Generated_Source\PSoC4/CYBLE.c **** ******************************************************************************/
1164:.\Generated_Source\PSoC4/CYBLE.c **** void CyBle_Set16ByPtr(uint8 ptr[], uint16 value)
1165:.\Generated_Source\PSoC4/CYBLE.c **** {
 1332              		.loc 1 1165 0
 1333              		.cfi_startproc
 1334 0000 80B5     		push	{r7, lr}
 1335              		.cfi_def_cfa_offset 8
 1336              		.cfi_offset 7, -8
 1337              		.cfi_offset 14, -4
 1338 0002 82B0     		sub	sp, sp, #8
 1339              		.cfi_def_cfa_offset 16
 1340 0004 00AF     		add	r7, sp, #0
 1341              		.cfi_def_cfa_register 7
 1342 0006 7860     		str	r0, [r7, #4]
 1343 0008 0A1C     		mov	r2, r1
 1344 000a BB1C     		add	r3, r7, #2
 1345 000c 1A80     		strh	r2, [r3]
1166:.\Generated_Source\PSoC4/CYBLE.c ****     ptr[0u] = (uint8) value;
 1346              		.loc 1 1166 0
 1347 000e BB1C     		add	r3, r7, #2
 1348 0010 1B88     		ldrh	r3, [r3]
 1349 0012 DAB2     		uxtb	r2, r3
 1350 0014 7B68     		ldr	r3, [r7, #4]
 1351 0016 1A70     		strb	r2, [r3]
1167:.\Generated_Source\PSoC4/CYBLE.c ****     ptr[1u] = (uint8) (value >> 8u);
 1352              		.loc 1 1167 0
 1353 0018 7B68     		ldr	r3, [r7, #4]
 1354 001a 0133     		add	r3, r3, #1
 1355 001c BA1C     		add	r2, r7, #2
 1356 001e 1288     		ldrh	r2, [r2]
 1357 0020 120A     		lsr	r2, r2, #8
 1358 0022 92B2     		uxth	r2, r2
 1359 0024 D2B2     		uxtb	r2, r2
 1360 0026 1A70     		strb	r2, [r3]
1168:.\Generated_Source\PSoC4/CYBLE.c **** }
 1361              		.loc 1 1168 0
 1362 0028 BD46     		mov	sp, r7
 1363 002a 02B0     		add	sp, sp, #8
 1364              		@ sp needed
 1365 002c 80BD     		pop	{r7, pc}
 1366              		.cfi_endproc
 1367              	.LFE14:
 1368              		.size	CyBle_Set16ByPtr, .-CyBle_Set16ByPtr
 1369 002e C046     		.bss
 1370 0001 00000000 		.align	3
 1370      000000
 1371              	cyBle_stackMemoryRam.6149:
 1372 0008 00000000 		.space	3220
 1372      00000000 
 1372      00000000 
 1372      00000000 
 1372      00000000 
 1373 0c9c 00000000 		.text
 1374              	.Letext0:
ARM GAS  C:\Users\jdmoussa\AppData\Local\Temp\ccsp17ZB.s 			page 46


 1375              		.file 2 ".\\Generated_Source\\PSoC4\\cytypes.h"
 1376              		.file 3 ".\\Generated_Source\\PSoC4\\CYBLE_Stack.h"
 1377              		.file 4 ".\\Generated_Source\\PSoC4\\CYBLE_StackGap.h"
 1378              		.file 5 ".\\Generated_Source\\PSoC4\\CYBLE_StackGatt.h"
 1379              		.file 6 ".\\Generated_Source\\PSoC4\\CYBLE_StackGattDb.h"
 1380              		.file 7 ".\\Generated_Source\\PSoC4\\CYBLE.h"
 1381              		.file 8 ".\\Generated_Source\\PSoC4\\CYBLE_bls.h"
 1382              		.file 9 ".\\Generated_Source\\PSoC4\\CYBLE_dis.h"
 1383              		.file 10 ".\\Generated_Source\\PSoC4\\CYBLE_eventHandler.h"
 1384              		.file 11 ".\\Generated_Source\\PSoC4\\CYBLE_gatt.h"