ARM GAS  C:\Users\jdmoussa\AppData\Local\Temp\ccsp17ZB.s 			page 1


   1              		.cpu cortex-m0
   2              		.fpu softvfp
   3              		.eabi_attribute 20, 1
   4              		.eabi_attribute 21, 1
   5              		.eabi_attribute 23, 3
   6              		.eabi_attribute 24, 1
   7              		.eabi_attribute 25, 1
   8              		.eabi_attribute 26, 1
   9              		.eabi_attribute 30, 6
  10              		.eabi_attribute 34, 0
  11              		.eabi_attribute 18, 4
  12              		.code	16
  13              		.file	"CYBLE.c"
  14              		.text
  15              	.Ltext0:
  16              		.cfi_sections	.debug_frame
  17              		.global	cyBle_initVar
  18              		.bss
  19              		.type	cyBle_initVar, %object
  20              		.size	cyBle_initVar, 1
  21              	cyBle_initVar:
  22 0000 00       		.space	1
  23              		.global	cyBle_discoveryParam
  24              		.data
  25              		.align	2
  26              		.type	cyBle_discoveryParam, %object
  27              		.size	cyBle_discoveryParam, 16
  28              	cyBle_discoveryParam:
  29 0000 2000     		.short	32
  30 0002 3000     		.short	48
  31 0004 00       		.byte	0
  32 0005 00       		.byte	0
  33 0006 00       		.byte	0
  34 0007 0C       		.byte	12
  35 0008 00       		.byte	0
  36 0009 00       		.byte	0
  37 000a 50       		.byte	80
  38 000b A0       		.byte	-96
  39 000c 00       		.byte	0
  40 000d 07       		.byte	7
  41 000e 00       		.byte	0
  42 000f 00       		.space	1
  43              		.global	cyBle_discoveryData
  44              		.align	2
  45              		.type	cyBle_discoveryData, %object
  46              		.size	cyBle_discoveryData, 32
  47              	cyBle_discoveryData:
  48 0010 02       		.byte	2
  49 0011 01       		.byte	1
  50 0012 06       		.byte	6
  51 0013 16       		.byte	22
  52 0014 09       		.byte	9
  53 0015 42       		.byte	66
  54 0016 6C       		.byte	108
  55 0017 6F       		.byte	111
  56 0018 6F       		.byte	111
  57 0019 64       		.byte	100
ARM GAS  C:\Users\jdmoussa\AppData\Local\Temp\ccsp17ZB.s 			page 2


  58 001a 20       		.byte	32
  59 001b 50       		.byte	80
  60 001c 72       		.byte	114
  61 001d 65       		.byte	101
  62 001e 73       		.byte	115
  63 001f 73       		.byte	115
  64 0020 75       		.byte	117
  65 0021 72       		.byte	114
  66 0022 65       		.byte	101
  67 0023 20       		.byte	32
  68 0024 53       		.byte	83
  69 0025 65       		.byte	101
  70 0026 6E       		.byte	110
  71 0027 73       		.byte	115
  72 0028 6F       		.byte	111
  73 0029 72       		.byte	114
  74 002a 00       		.byte	0
  75 002b 00       		.byte	0
  76 002c 00       		.byte	0
  77 002d 00       		.byte	0
  78 002e 00       		.byte	0
  79 002f 1A       		.byte	26
  80              		.global	cyBle_scanRspData
  81              		.align	2
  82              		.type	cyBle_scanRspData, %object
  83              		.size	cyBle_scanRspData, 32
  84              	cyBle_scanRspData:
  85 0030 16       		.byte	22
  86 0031 09       		.byte	9
  87 0032 42       		.byte	66
  88 0033 6C       		.byte	108
  89 0034 6F       		.byte	111
  90 0035 6F       		.byte	111
  91 0036 64       		.byte	100
  92 0037 20       		.byte	32
  93 0038 50       		.byte	80
  94 0039 72       		.byte	114
  95 003a 65       		.byte	101
  96 003b 73       		.byte	115
  97 003c 73       		.byte	115
  98 003d 75       		.byte	117
  99 003e 72       		.byte	114
 100 003f 65       		.byte	101
 101 0040 20       		.byte	32
 102 0041 53       		.byte	83
 103 0042 65       		.byte	101
 104 0043 6E       		.byte	110
 105 0044 73       		.byte	115
 106 0045 6F       		.byte	111
 107 0046 72       		.byte	114
 108 0047 00       		.byte	0
 109 0048 00       		.byte	0
 110 0049 00       		.byte	0
 111 004a 00       		.byte	0
 112 004b 00       		.byte	0
 113 004c 00       		.byte	0
 114 004d 00       		.byte	0
ARM GAS  C:\Users\jdmoussa\AppData\Local\Temp\ccsp17ZB.s 			page 3


 115 004e 00       		.byte	0
 116 004f 17       		.byte	23
 117              		.global	cyBle_discoveryModeInfo
 118              		.align	2
 119              		.type	cyBle_discoveryModeInfo, %object
 120              		.size	cyBle_discoveryModeInfo, 20
 121              	cyBle_discoveryModeInfo:
 122 0050 02       		.byte	2
 123 0051 000000   		.space	3
 124 0054 00000000 		.word	cyBle_discoveryParam
 125 0058 00000000 		.word	cyBle_discoveryData
 126 005c 00000000 		.word	cyBle_scanRspData
 127 0060 1E00     		.short	30
 128 0062 0000     		.space	2
 129              		.comm	cyBle_pendingFlashWrite,1,1
 130              		.comm	CyBle_ApplCallback,4,4
 131              		.global	cyBle_deviceAddress
 132              		.align	2
 133              		.type	cyBle_deviceAddress, %object
 134              		.size	cyBle_deviceAddress, 7
 135              	cyBle_deviceAddress:
 136 0064 0C       		.byte	12
 137 0065 00       		.byte	0
 138 0066 00       		.byte	0
 139 0067 50       		.byte	80
 140 0068 A0       		.byte	-96
 141 0069 00       		.byte	0
 142 006a 00       		.byte	0
 143              		.global	cyBle_sflashDeviceAddress
 144 006b 00       		.align	2
 145              		.type	cyBle_sflashDeviceAddress, %object
 146              		.size	cyBle_sflashDeviceAddress, 4
 147              	cyBle_sflashDeviceAddress:
 148 006c 00F2FF0F 		.word	268431872
 149              		.section	.text.CyBle_Init,"ax",%progbits
 150              		.align	2
 151              		.global	CyBle_Init
 152              		.code	16
 153              		.thumb_func
 154              		.type	CyBle_Init, %function
 155              	CyBle_Init:
 156              	.LFB2:
 157              		.file 1 ".\\Generated_Source\\PSoC4\\CYBLE.c"
   1:.\Generated_Source\PSoC4/CYBLE.c **** /*******************************************************************************
   2:.\Generated_Source\PSoC4/CYBLE.c **** File Name: CYBLE.c
   3:.\Generated_Source\PSoC4/CYBLE.c **** Version 1.20
   4:.\Generated_Source\PSoC4/CYBLE.c **** 
   5:.\Generated_Source\PSoC4/CYBLE.c **** Description:
   6:.\Generated_Source\PSoC4/CYBLE.c ****  This file contains the source code for the Common APIs of the BLE Component.
   7:.\Generated_Source\PSoC4/CYBLE.c **** 
   8:.\Generated_Source\PSoC4/CYBLE.c **** ********************************************************************************
   9:.\Generated_Source\PSoC4/CYBLE.c **** Copyright 2014-2015, Cypress Semiconductor Corporation.  All rights reserved.
  10:.\Generated_Source\PSoC4/CYBLE.c **** You may use this file only in accordance with the license, terms, conditions,
  11:.\Generated_Source\PSoC4/CYBLE.c **** disclaimers, and limitations in the end user license agreement accompanying
  12:.\Generated_Source\PSoC4/CYBLE.c **** the software package with which this file was provided.
  13:.\Generated_Source\PSoC4/CYBLE.c **** *******************************************************************************/
  14:.\Generated_Source\PSoC4/CYBLE.c **** 
ARM GAS  C:\Users\jdmoussa\AppData\Local\Temp\ccsp17ZB.s 			page 4


  15:.\Generated_Source\PSoC4/CYBLE.c **** #include "CYBLE_eventHandler.h"
  16:.\Generated_Source\PSoC4/CYBLE.c **** #include "CYBLE_HAL_PVT.h"
  17:.\Generated_Source\PSoC4/CYBLE.c **** 
  18:.\Generated_Source\PSoC4/CYBLE.c **** 
  19:.\Generated_Source\PSoC4/CYBLE.c **** /***************************************
  20:.\Generated_Source\PSoC4/CYBLE.c **** ##Function Prototypes
  21:.\Generated_Source\PSoC4/CYBLE.c **** ***************************************/
  22:.\Generated_Source\PSoC4/CYBLE.c **** 
  23:.\Generated_Source\PSoC4/CYBLE.c **** #if(CYBLE_GATT_ROLE_SERVER)
  24:.\Generated_Source\PSoC4/CYBLE.c ****     #if(CYBLE_GAP_ROLE_PERIPHERAL)
  25:.\Generated_Source\PSoC4/CYBLE.c ****         static void CyBle_ChangeAdLocalName(const char8 name[], uint8 dest);
  26:.\Generated_Source\PSoC4/CYBLE.c ****     #endif /* (CYBLE_GAP_ROLE_PERIPHERAL) */
  27:.\Generated_Source\PSoC4/CYBLE.c **** #endif /* (CYBLE_GATT_ROLE_SERVER) */
  28:.\Generated_Source\PSoC4/CYBLE.c ****     
  29:.\Generated_Source\PSoC4/CYBLE.c **** 
  30:.\Generated_Source\PSoC4/CYBLE.c **** /***************************************
  31:.\Generated_Source\PSoC4/CYBLE.c **** ##Global Variables
  32:.\Generated_Source\PSoC4/CYBLE.c **** ***************************************/
  33:.\Generated_Source\PSoC4/CYBLE.c **** 
  34:.\Generated_Source\PSoC4/CYBLE.c **** /* Indicates whether the BLE has been initialized. The variable is initialized to
  35:.\Generated_Source\PSoC4/CYBLE.c ****    0 and set to 1 the first time CyBle_Start() is called. This allows the component
  36:.\Generated_Source\PSoC4/CYBLE.c ****    to restart without reinitialization after the first call to the CyBle_Start() 
  37:.\Generated_Source\PSoC4/CYBLE.c ****    routine. If reinitialization of the component is required, the variable should 
  38:.\Generated_Source\PSoC4/CYBLE.c ****    be set to 0 before the CyBle_Start() routine is called. Alternatively, the BLE
  39:.\Generated_Source\PSoC4/CYBLE.c ****    can be reinitialized by calling the CyBle_Init() function.
  40:.\Generated_Source\PSoC4/CYBLE.c **** */
  41:.\Generated_Source\PSoC4/CYBLE.c **** uint8  cyBle_initVar = 0u;
  42:.\Generated_Source\PSoC4/CYBLE.c **** 
  43:.\Generated_Source\PSoC4/CYBLE.c **** #if(CYBLE_GAP_ROLE_PERIPHERAL || CYBLE_GAP_ROLE_BROADCASTER)
  44:.\Generated_Source\PSoC4/CYBLE.c **** 
  45:.\Generated_Source\PSoC4/CYBLE.c **** CYBLE_GAPP_DISC_PARAM_T cyBle_discoveryParam =
  46:.\Generated_Source\PSoC4/CYBLE.c **** {
  47:.\Generated_Source\PSoC4/CYBLE.c ****     0x0020u,    /* uint16 advertising_interval_min */
  48:.\Generated_Source\PSoC4/CYBLE.c ****     0x0030u,    /* uint16 advertising_interval_max */
  49:.\Generated_Source\PSoC4/CYBLE.c ****     CYBLE_GAPP_CONNECTABLE_UNDIRECTED_ADV, /* uint8 advertising_type */
  50:.\Generated_Source\PSoC4/CYBLE.c ****     0x00u,      /* uint8 own_addr_type */
  51:.\Generated_Source\PSoC4/CYBLE.c ****     0x00u,      /* uint8 direct_addr_type */
  52:.\Generated_Source\PSoC4/CYBLE.c ****     {0x0Cu, 0x00u, 0x00u, 0x50u, 0xA0u, 0x00u}, /* uint8* direct_addr */
  53:.\Generated_Source\PSoC4/CYBLE.c ****     0x07u,      /* uint8 advertising_channel_map */
  54:.\Generated_Source\PSoC4/CYBLE.c ****     0x00u,      /* uint8 advertising_filter_policy */
  55:.\Generated_Source\PSoC4/CYBLE.c **** };
  56:.\Generated_Source\PSoC4/CYBLE.c **** 
  57:.\Generated_Source\PSoC4/CYBLE.c **** CYBLE_GAPP_DISC_DATA_T cyBle_discoveryData =
  58:.\Generated_Source\PSoC4/CYBLE.c **** {
  59:.\Generated_Source\PSoC4/CYBLE.c ****     { 0x02u, 0x01u, 0x06u, 0x16u, 0x09u, 0x42u, 0x6Cu,
  60:.\Generated_Source\PSoC4/CYBLE.c ****     0x6Fu, 0x6Fu, 0x64u, 0x20u, 0x50u, 0x72u, 0x65u, 0x73u,
  61:.\Generated_Source\PSoC4/CYBLE.c ****     0x73u, 0x75u, 0x72u, 0x65u, 0x20u, 0x53u, 0x65u, 0x6Eu,
  62:.\Generated_Source\PSoC4/CYBLE.c ****     0x73u, 0x6Fu, 0x72u, 0x00u, 0x00u, 0x00u, 0x00u, 0x00u }, /* uint8 advertising_data[CYBLE_MAX_A
  63:.\Generated_Source\PSoC4/CYBLE.c ****     0x1Au,      /* uint8 adv_data_length */
  64:.\Generated_Source\PSoC4/CYBLE.c **** };
  65:.\Generated_Source\PSoC4/CYBLE.c **** 
  66:.\Generated_Source\PSoC4/CYBLE.c **** CYBLE_GAPP_SCAN_RSP_DATA_T cyBle_scanRspData =
  67:.\Generated_Source\PSoC4/CYBLE.c **** {
  68:.\Generated_Source\PSoC4/CYBLE.c ****     { 0x16u, 0x09u, 0x42u, 0x6Cu, 0x6Fu, 0x6Fu, 0x64u,
  69:.\Generated_Source\PSoC4/CYBLE.c ****     0x20u, 0x50u, 0x72u, 0x65u, 0x73u, 0x73u, 0x75u, 0x72u,
  70:.\Generated_Source\PSoC4/CYBLE.c ****     0x65u, 0x20u, 0x53u, 0x65u, 0x6Eu, 0x73u, 0x6Fu, 0x72u,
  71:.\Generated_Source\PSoC4/CYBLE.c ****     0x00u, 0x00u, 0x00u, 0x00u, 0x00u, 0x00u, 0x00u, 0x00u }, /* uint8 scan_rsp_data[CYBLE_MAX_SCAN
ARM GAS  C:\Users\jdmoussa\AppData\Local\Temp\ccsp17ZB.s 			page 5


  72:.\Generated_Source\PSoC4/CYBLE.c ****     0x17u,      /* uint8 scan_rsp_data_length */
  73:.\Generated_Source\PSoC4/CYBLE.c **** };
  74:.\Generated_Source\PSoC4/CYBLE.c **** 
  75:.\Generated_Source\PSoC4/CYBLE.c **** /* This variable of type CYBLE_GAPP_DISC_MODE_INFO_T is present only when 
  76:.\Generated_Source\PSoC4/CYBLE.c ****    the BLE component is configured for Peripheral GAP role or Central and 
  77:.\Generated_Source\PSoC4/CYBLE.c ****    Peripheral GAP role. It contains the Advertisement settings and also the 
  78:.\Generated_Source\PSoC4/CYBLE.c ****    Advertisement and Scan response data parameters entered in the customizer.
  79:.\Generated_Source\PSoC4/CYBLE.c ****    This variable can be used by advanced users to change Advertisement settings,
  80:.\Generated_Source\PSoC4/CYBLE.c ****    Advertisement or Scan response data in runtime. 
  81:.\Generated_Source\PSoC4/CYBLE.c **** */
  82:.\Generated_Source\PSoC4/CYBLE.c **** CYBLE_GAPP_DISC_MODE_INFO_T cyBle_discoveryModeInfo =
  83:.\Generated_Source\PSoC4/CYBLE.c **** {
  84:.\Generated_Source\PSoC4/CYBLE.c ****     0x02u,      /* uint8 discMode */
  85:.\Generated_Source\PSoC4/CYBLE.c ****     &cyBle_discoveryParam,
  86:.\Generated_Source\PSoC4/CYBLE.c ****     &cyBle_discoveryData,
  87:.\Generated_Source\PSoC4/CYBLE.c ****     &cyBle_scanRspData,
  88:.\Generated_Source\PSoC4/CYBLE.c ****     0x001Eu,    /* uint16 advTo */
  89:.\Generated_Source\PSoC4/CYBLE.c **** };
  90:.\Generated_Source\PSoC4/CYBLE.c **** 
  91:.\Generated_Source\PSoC4/CYBLE.c **** 
  92:.\Generated_Source\PSoC4/CYBLE.c **** #endif /* CYBLE_GAP_ROLE_PERIPHERAL || CYBLE_GAP_ROLE_BROADCASTER */
  93:.\Generated_Source\PSoC4/CYBLE.c **** 
  94:.\Generated_Source\PSoC4/CYBLE.c **** #if(CYBLE_GAP_ROLE_CENTRAL)
  95:.\Generated_Source\PSoC4/CYBLE.c ****     
  96:.\Generated_Source\PSoC4/CYBLE.c **** CYBLE_GAPC_CONN_PARAM_T cyBle_connectionParameters;
  97:.\Generated_Source\PSoC4/CYBLE.c **** 
  98:.\Generated_Source\PSoC4/CYBLE.c **** /* Connecting timeout is set to 30 seconds in CyBle_Init function. 
  99:.\Generated_Source\PSoC4/CYBLE.c ****    Not zero value starts timer in CyBle_GapcConnectDevice API.
 100:.\Generated_Source\PSoC4/CYBLE.c **** */
 101:.\Generated_Source\PSoC4/CYBLE.c **** uint16 cyBle_connectingTimeout;
 102:.\Generated_Source\PSoC4/CYBLE.c ****     
 103:.\Generated_Source\PSoC4/CYBLE.c **** #endif /* CYBLE_GAP_ROLE_CENTRAL */
 104:.\Generated_Source\PSoC4/CYBLE.c **** 
 105:.\Generated_Source\PSoC4/CYBLE.c **** #if(CYBLE_GAP_ROLE_CENTRAL || CYBLE_GAP_ROLE_OBSERVER)
 106:.\Generated_Source\PSoC4/CYBLE.c ****     
 107:.\Generated_Source\PSoC4/CYBLE.c **** 
 108:.\Generated_Source\PSoC4/CYBLE.c ****     
 109:.\Generated_Source\PSoC4/CYBLE.c **** #endif /* CYBLE_GAP_ROLE_CENTRAL || CYBLE_GAP_ROLE_OBSERVER */
 110:.\Generated_Source\PSoC4/CYBLE.c **** 
 111:.\Generated_Source\PSoC4/CYBLE.c **** #if((CYBLE_GAP_ROLE_PERIPHERAL || CYBLE_GAP_ROLE_CENTRAL) && (CYBLE_BONDING_REQUIREMENT == CYBLE_BO
 112:.\Generated_Source\PSoC4/CYBLE.c **** 
 113:.\Generated_Source\PSoC4/CYBLE.c **** uint8 cyBle_pendingFlashWrite;
 114:.\Generated_Source\PSoC4/CYBLE.c ****     
 115:.\Generated_Source\PSoC4/CYBLE.c **** #endif  /* (CYBLE_BONDING_REQUIREMENT == CYBLE_BONDING_YES) */
 116:.\Generated_Source\PSoC4/CYBLE.c **** 
 117:.\Generated_Source\PSoC4/CYBLE.c **** CYBLE_CALLBACK_T CyBle_ApplCallback;
 118:.\Generated_Source\PSoC4/CYBLE.c **** CYBLE_GAP_BD_ADDR_T cyBle_deviceAddress = {{0x0Cu, 0x00u, 0x00u, 0x50u, 0xA0u, 0x00u}, 0x00u };
 119:.\Generated_Source\PSoC4/CYBLE.c **** CYBLE_GAP_BD_ADDR_T * cyBle_sflashDeviceAddress = CYBLE_SFLASH_DEVICE_ADDRESS_PTR;
 120:.\Generated_Source\PSoC4/CYBLE.c **** 
 121:.\Generated_Source\PSoC4/CYBLE.c **** 
 122:.\Generated_Source\PSoC4/CYBLE.c **** /******************************************************************************
 123:.\Generated_Source\PSoC4/CYBLE.c **** ##Function Name: CyBle_Init
 124:.\Generated_Source\PSoC4/CYBLE.c **** *******************************************************************************
 125:.\Generated_Source\PSoC4/CYBLE.c ****  Summary:
 126:.\Generated_Source\PSoC4/CYBLE.c ****   Initializes the component with the parameters set in the customizer.
 127:.\Generated_Source\PSoC4/CYBLE.c **** 
 128:.\Generated_Source\PSoC4/CYBLE.c ****  Parameters:
ARM GAS  C:\Users\jdmoussa\AppData\Local\Temp\ccsp17ZB.s 			page 6


 129:.\Generated_Source\PSoC4/CYBLE.c ****   None
 130:.\Generated_Source\PSoC4/CYBLE.c **** 
 131:.\Generated_Source\PSoC4/CYBLE.c ****  Return:
 132:.\Generated_Source\PSoC4/CYBLE.c ****   None
 133:.\Generated_Source\PSoC4/CYBLE.c **** 
 134:.\Generated_Source\PSoC4/CYBLE.c **** ******************************************************************************/
 135:.\Generated_Source\PSoC4/CYBLE.c **** void CyBle_Init(void)
 136:.\Generated_Source\PSoC4/CYBLE.c **** {
 158              		.loc 1 136 0
 159              		.cfi_startproc
 160 0000 80B5     		push	{r7, lr}
 161              		.cfi_def_cfa_offset 8
 162              		.cfi_offset 7, -8
 163              		.cfi_offset 14, -4
 164 0002 00AF     		add	r7, sp, #0
 165              		.cfi_def_cfa_register 7
 137:.\Generated_Source\PSoC4/CYBLE.c ****     cyBle_eventHandlerFlag = 0u;
 166              		.loc 1 137 0
 167 0004 074B     		ldr	r3, .L2
 168 0006 0022     		mov	r2, #0
 169 0008 1A70     		strb	r2, [r3]
 138:.\Generated_Source\PSoC4/CYBLE.c ****     cyBle_busyStatus = CYBLE_STACK_STATE_FREE;
 170              		.loc 1 138 0
 171 000a 074B     		ldr	r3, .L2+4
 172 000c 0022     		mov	r2, #0
 173 000e 1A70     		strb	r2, [r3]
 139:.\Generated_Source\PSoC4/CYBLE.c ****     
 140:.\Generated_Source\PSoC4/CYBLE.c ****     #if(CYBLE_GAP_ROLE_PERIPHERAL || CYBLE_GAP_ROLE_BROADCASTER) 
 141:.\Generated_Source\PSoC4/CYBLE.c ****         cyBle_advertisingIntervalType = CYBLE_ADVERTISING_FAST; 
 174              		.loc 1 141 0
 175 0010 064B     		ldr	r3, .L2+8
 176 0012 0022     		mov	r2, #0
 177 0014 1A70     		strb	r2, [r3]
 142:.\Generated_Source\PSoC4/CYBLE.c ****     #endif /* (CYBLE_GAP_ROLE_PERIPHERAL || CYBLE_GAP_ROLE_BROADCASTER)  */
 143:.\Generated_Source\PSoC4/CYBLE.c ****     #if(CYBLE_GAP_ROLE_CENTRAL || CYBLE_GAP_ROLE_OBSERVER)
 144:.\Generated_Source\PSoC4/CYBLE.c ****         cyBle_scanningIntervalType = CYBLE_SCANNING_FAST; 
 145:.\Generated_Source\PSoC4/CYBLE.c ****     #endif /* (CYBLE_GAP_ROLE_CENTRAL || CYBLE_GAP_ROLE_OBSERVER) */
 146:.\Generated_Source\PSoC4/CYBLE.c ****         
 147:.\Generated_Source\PSoC4/CYBLE.c ****     /* Init default connection parameters. 
 148:.\Generated_Source\PSoC4/CYBLE.c ****        Application may change it before initiating a connection */
 149:.\Generated_Source\PSoC4/CYBLE.c ****     #if(CYBLE_GAP_ROLE_CENTRAL)
 150:.\Generated_Source\PSoC4/CYBLE.c ****         cyBle_connectionParameters.scanIntv = cyBle_discoveryInfo.scanIntv;
 151:.\Generated_Source\PSoC4/CYBLE.c ****         cyBle_connectionParameters.scanWindow = cyBle_discoveryInfo.scanWindow;
 152:.\Generated_Source\PSoC4/CYBLE.c ****         cyBle_connectionParameters.ownAddrType = cyBle_discoveryInfo.ownAddrType;
 153:.\Generated_Source\PSoC4/CYBLE.c ****         cyBle_connectionParameters.initiatorFilterPolicy = cyBle_discoveryInfo.scanFilterPolicy;
 154:.\Generated_Source\PSoC4/CYBLE.c ****         cyBle_connectionParameters.connIntvMin = CYBLE_GAPC_CONNECTION_INTERVAL_MIN;
 155:.\Generated_Source\PSoC4/CYBLE.c ****         cyBle_connectionParameters.connIntvMax = CYBLE_GAPC_CONNECTION_INTERVAL_MAX;
 156:.\Generated_Source\PSoC4/CYBLE.c ****         cyBle_connectionParameters.connLatency = CYBLE_GAPC_CONNECTION_SLAVE_LATENCY;
 157:.\Generated_Source\PSoC4/CYBLE.c ****         cyBle_connectionParameters.supervisionTO = CYBLE_GAPC_CONNECTION_TIME_OUT;
 158:.\Generated_Source\PSoC4/CYBLE.c ****         cyBle_connectionParameters.minCeLength = 0x0000u;
 159:.\Generated_Source\PSoC4/CYBLE.c ****         cyBle_connectionParameters.maxCeLength = 0xFFFFu;
 160:.\Generated_Source\PSoC4/CYBLE.c ****         
 161:.\Generated_Source\PSoC4/CYBLE.c ****         cyBle_connectingTimeout = CYBLE_GAPC_CONNECTING_TIMEOUT;
 162:.\Generated_Source\PSoC4/CYBLE.c ****     #endif /* CYBLE_GAP_ROLE_CENTRAL */
 163:.\Generated_Source\PSoC4/CYBLE.c **** 
 164:.\Generated_Source\PSoC4/CYBLE.c ****     CyBle_ServiceInit();
 178              		.loc 1 164 0
ARM GAS  C:\Users\jdmoussa\AppData\Local\Temp\ccsp17ZB.s 			page 7


 179 0016 FFF7FEFF 		bl	CyBle_ServiceInit
 165:.\Generated_Source\PSoC4/CYBLE.c **** 
 166:.\Generated_Source\PSoC4/CYBLE.c **** #if((CYBLE_GAP_ROLE_PERIPHERAL || CYBLE_GAP_ROLE_CENTRAL) && (CYBLE_BONDING_REQUIREMENT == CYBLE_BO
 167:.\Generated_Source\PSoC4/CYBLE.c ****     cyBle_pendingFlashWrite = 0u;
 180              		.loc 1 167 0
 181 001a 054B     		ldr	r3, .L2+12
 182 001c 0022     		mov	r2, #0
 183 001e 1A70     		strb	r2, [r3]
 168:.\Generated_Source\PSoC4/CYBLE.c **** #endif  /* (CYBLE_BONDING_REQUIREMENT == CYBLE_BONDING_YES) */
 169:.\Generated_Source\PSoC4/CYBLE.c **** 
 170:.\Generated_Source\PSoC4/CYBLE.c **** }
 184              		.loc 1 170 0
 185 0020 BD46     		mov	sp, r7
 186              		@ sp needed
 187 0022 80BD     		pop	{r7, pc}
 188              	.L3:
 189              		.align	2
 190              	.L2:
 191 0024 00000000 		.word	cyBle_eventHandlerFlag
 192 0028 00000000 		.word	cyBle_busyStatus
 193 002c 00000000 		.word	cyBle_advertisingIntervalType
 194 0030 00000000 		.word	cyBle_pendingFlashWrite
 195              		.cfi_endproc
 196              	.LFE2:
 197              		.size	CyBle_Init, .-CyBle_Init
 198              		.section	.text.CyBle_ServiceInit,"ax",%progbits
 199              		.align	2
 200              		.global	CyBle_ServiceInit
 201              		.code	16
 202              		.thumb_func
 203              		.type	CyBle_ServiceInit, %function
 204              	CyBle_ServiceInit:
 205              	.LFB3:
 171:.\Generated_Source\PSoC4/CYBLE.c **** 
 172:.\Generated_Source\PSoC4/CYBLE.c **** 
 173:.\Generated_Source\PSoC4/CYBLE.c **** /******************************************************************************
 174:.\Generated_Source\PSoC4/CYBLE.c **** ##Function Name: CyBle_ServiceInit
 175:.\Generated_Source\PSoC4/CYBLE.c **** *******************************************************************************
 176:.\Generated_Source\PSoC4/CYBLE.c **** 
 177:.\Generated_Source\PSoC4/CYBLE.c **** Summary:
 178:.\Generated_Source\PSoC4/CYBLE.c ****  Initializes all included services.
 179:.\Generated_Source\PSoC4/CYBLE.c **** 
 180:.\Generated_Source\PSoC4/CYBLE.c **** Parameters:
 181:.\Generated_Source\PSoC4/CYBLE.c ****  None
 182:.\Generated_Source\PSoC4/CYBLE.c **** 
 183:.\Generated_Source\PSoC4/CYBLE.c **** Return:
 184:.\Generated_Source\PSoC4/CYBLE.c ****  None
 185:.\Generated_Source\PSoC4/CYBLE.c **** 
 186:.\Generated_Source\PSoC4/CYBLE.c **** ******************************************************************************/
 187:.\Generated_Source\PSoC4/CYBLE.c **** void CyBle_ServiceInit(void)
 188:.\Generated_Source\PSoC4/CYBLE.c **** {
 206              		.loc 1 188 0
 207              		.cfi_startproc
 208 0000 80B5     		push	{r7, lr}
 209              		.cfi_def_cfa_offset 8
 210              		.cfi_offset 7, -8
 211              		.cfi_offset 14, -4
ARM GAS  C:\Users\jdmoussa\AppData\Local\Temp\ccsp17ZB.s 			page 8


 212 0002 00AF     		add	r7, sp, #0
 213              		.cfi_def_cfa_register 7
 189:.\Generated_Source\PSoC4/CYBLE.c ****     #if(CYBLE_GATT_ROLE_CLIENT)
 190:.\Generated_Source\PSoC4/CYBLE.c ****         (void)memset(&cyBle_gapc, 0, sizeof(cyBle_gapc));
 191:.\Generated_Source\PSoC4/CYBLE.c ****         (void)memset(&cyBle_gattc, 0, sizeof(cyBle_gattc));
 192:.\Generated_Source\PSoC4/CYBLE.c ****     #endif /* CYBLE_GATT_ROLE_CLIENT */
 193:.\Generated_Source\PSoC4/CYBLE.c ****     
 194:.\Generated_Source\PSoC4/CYBLE.c ****     #ifdef CYBLE_ANS
 195:.\Generated_Source\PSoC4/CYBLE.c ****         CyBle_AnsInit();
 196:.\Generated_Source\PSoC4/CYBLE.c ****     #endif /* CYBLE_ANS */
 197:.\Generated_Source\PSoC4/CYBLE.c ****     
 198:.\Generated_Source\PSoC4/CYBLE.c ****     #ifdef CYBLE_BAS
 199:.\Generated_Source\PSoC4/CYBLE.c ****         CyBle_BasInit();
 214              		.loc 1 199 0
 215 0004 FFF7FEFF 		bl	CyBle_BasInit
 200:.\Generated_Source\PSoC4/CYBLE.c ****     #endif /* CYBLE_BAS */
 201:.\Generated_Source\PSoC4/CYBLE.c ****     
 202:.\Generated_Source\PSoC4/CYBLE.c ****     #ifdef CYBLE_BLS
 203:.\Generated_Source\PSoC4/CYBLE.c ****         CyBle_BlsInit();
 216              		.loc 1 203 0
 217 0008 FFF7FEFF 		bl	CyBle_BlsInit
 204:.\Generated_Source\PSoC4/CYBLE.c ****     #endif /* CYBLE_BLS */
 205:.\Generated_Source\PSoC4/CYBLE.c ****     
 206:.\Generated_Source\PSoC4/CYBLE.c ****     #ifdef CYBLE_CGMS
 207:.\Generated_Source\PSoC4/CYBLE.c ****         CyBle_CgmsInit();
 208:.\Generated_Source\PSoC4/CYBLE.c ****     #endif /* CYBLE_CGMS */
 209:.\Generated_Source\PSoC4/CYBLE.c **** 
 210:.\Generated_Source\PSoC4/CYBLE.c ****     #ifdef CYBLE_CPS
 211:.\Generated_Source\PSoC4/CYBLE.c ****         CyBle_CpsInit();
 212:.\Generated_Source\PSoC4/CYBLE.c ****     #endif /* CYBLE_CPS */
 213:.\Generated_Source\PSoC4/CYBLE.c **** 
 214:.\Generated_Source\PSoC4/CYBLE.c ****     #ifdef CYBLE_CSCS
 215:.\Generated_Source\PSoC4/CYBLE.c ****         CyBle_CscsInit();
 216:.\Generated_Source\PSoC4/CYBLE.c ****     #endif /* CYBLE_CSCS */
 217:.\Generated_Source\PSoC4/CYBLE.c ****     
 218:.\Generated_Source\PSoC4/CYBLE.c ****     #ifdef CYBLE_CTS
 219:.\Generated_Source\PSoC4/CYBLE.c ****         CyBle_CtsInit();
 220:.\Generated_Source\PSoC4/CYBLE.c ****     #endif /* CYBLE_CTS */
 221:.\Generated_Source\PSoC4/CYBLE.c **** 
 222:.\Generated_Source\PSoC4/CYBLE.c ****     #ifdef CYBLE_DIS
 223:.\Generated_Source\PSoC4/CYBLE.c ****         CyBle_DisInit();
 218              		.loc 1 223 0
 219 000c FFF7FEFF 		bl	CyBle_DisInit
 224:.\Generated_Source\PSoC4/CYBLE.c ****     #endif /* CYBLE_DIS */
 225:.\Generated_Source\PSoC4/CYBLE.c **** 
 226:.\Generated_Source\PSoC4/CYBLE.c ****     #ifdef CYBLE_GLS
 227:.\Generated_Source\PSoC4/CYBLE.c ****         CyBle_GlsInit();
 228:.\Generated_Source\PSoC4/CYBLE.c ****     #endif /* CYBLE_GLS */
 229:.\Generated_Source\PSoC4/CYBLE.c ****     
 230:.\Generated_Source\PSoC4/CYBLE.c ****     #ifdef CYBLE_HIDS
 231:.\Generated_Source\PSoC4/CYBLE.c ****         CyBle_HidsInit();
 232:.\Generated_Source\PSoC4/CYBLE.c ****     #endif /* CYBLE_HIDS */
 233:.\Generated_Source\PSoC4/CYBLE.c **** 
 234:.\Generated_Source\PSoC4/CYBLE.c ****     #ifdef CYBLE_HRS
 235:.\Generated_Source\PSoC4/CYBLE.c ****         CyBle_HrsInit();
 236:.\Generated_Source\PSoC4/CYBLE.c ****     #endif /* CYBLE_HRS */
 237:.\Generated_Source\PSoC4/CYBLE.c ****     
ARM GAS  C:\Users\jdmoussa\AppData\Local\Temp\ccsp17ZB.s 			page 9


 238:.\Generated_Source\PSoC4/CYBLE.c ****     #ifdef CYBLE_HTS
 239:.\Generated_Source\PSoC4/CYBLE.c ****         CyBle_HtsInit();
 240:.\Generated_Source\PSoC4/CYBLE.c ****     #endif /* CYBLE_RSCS */
 241:.\Generated_Source\PSoC4/CYBLE.c **** 
 242:.\Generated_Source\PSoC4/CYBLE.c ****     #ifdef CYBLE_IAS
 243:.\Generated_Source\PSoC4/CYBLE.c ****         CyBle_IasInit();
 244:.\Generated_Source\PSoC4/CYBLE.c ****     #endif /* CYBLE_IAS */
 245:.\Generated_Source\PSoC4/CYBLE.c **** 
 246:.\Generated_Source\PSoC4/CYBLE.c ****     #ifdef CYBLE_LLS
 247:.\Generated_Source\PSoC4/CYBLE.c ****         CyBle_LlsInit();
 248:.\Generated_Source\PSoC4/CYBLE.c ****     #endif /* CYBLE_LLS */
 249:.\Generated_Source\PSoC4/CYBLE.c **** 
 250:.\Generated_Source\PSoC4/CYBLE.c ****     #ifdef CYBLE_RTUS
 251:.\Generated_Source\PSoC4/CYBLE.c ****         CyBle_RtusInit();
 252:.\Generated_Source\PSoC4/CYBLE.c ****     #endif /* CYBLE_RTUS */
 253:.\Generated_Source\PSoC4/CYBLE.c **** 
 254:.\Generated_Source\PSoC4/CYBLE.c ****     #ifdef CYBLE_LNS
 255:.\Generated_Source\PSoC4/CYBLE.c ****         CyBle_LnsInit();
 256:.\Generated_Source\PSoC4/CYBLE.c ****     #endif /* CYBLE_LNS */
 257:.\Generated_Source\PSoC4/CYBLE.c ****     
 258:.\Generated_Source\PSoC4/CYBLE.c ****     #ifdef CYBLE_PASS
 259:.\Generated_Source\PSoC4/CYBLE.c ****         CyBle_PassInit();
 260:.\Generated_Source\PSoC4/CYBLE.c ****     #endif /* CYBLE_PASS */
 261:.\Generated_Source\PSoC4/CYBLE.c ****     
 262:.\Generated_Source\PSoC4/CYBLE.c ****     #ifdef CYBLE_RSCS
 263:.\Generated_Source\PSoC4/CYBLE.c ****         CyBle_RscsInit();
 264:.\Generated_Source\PSoC4/CYBLE.c ****     #endif /* CYBLE_RSCS */
 265:.\Generated_Source\PSoC4/CYBLE.c **** 
 266:.\Generated_Source\PSoC4/CYBLE.c ****     #ifdef CYBLE_SCPS
 267:.\Generated_Source\PSoC4/CYBLE.c ****         CyBle_ScpsInit();
 268:.\Generated_Source\PSoC4/CYBLE.c ****     #endif /* CYBLE_SCPS */
 269:.\Generated_Source\PSoC4/CYBLE.c ****     
 270:.\Generated_Source\PSoC4/CYBLE.c ****     #ifdef CYBLE_TPS
 271:.\Generated_Source\PSoC4/CYBLE.c ****         CyBle_TpsInit();
 272:.\Generated_Source\PSoC4/CYBLE.c ****     #endif /* CYBLE_TPS */
 273:.\Generated_Source\PSoC4/CYBLE.c ****     
 274:.\Generated_Source\PSoC4/CYBLE.c ****     #ifdef CYBLE_UDS
 275:.\Generated_Source\PSoC4/CYBLE.c ****         CyBle_UdsInit();
 276:.\Generated_Source\PSoC4/CYBLE.c ****     #endif /* CYBLE_UDS */
 277:.\Generated_Source\PSoC4/CYBLE.c **** }
 220              		.loc 1 277 0
 221 0010 BD46     		mov	sp, r7
 222              		@ sp needed
 223 0012 80BD     		pop	{r7, pc}
 224              		.cfi_endproc
 225              	.LFE3:
 226              		.size	CyBle_ServiceInit, .-CyBle_ServiceInit
 227              		.section	.text.CyBle_Start,"ax",%progbits
 228              		.align	2
 229              		.global	CyBle_Start
 230              		.code	16
 231              		.thumb_func
 232              		.type	CyBle_Start, %function
 233              	CyBle_Start:
 234              	.LFB4:
 278:.\Generated_Source\PSoC4/CYBLE.c **** 
 279:.\Generated_Source\PSoC4/CYBLE.c **** 
ARM GAS  C:\Users\jdmoussa\AppData\Local\Temp\ccsp17ZB.s 			page 10


 280:.\Generated_Source\PSoC4/CYBLE.c **** /******************************************************************************
 281:.\Generated_Source\PSoC4/CYBLE.c **** ##Function Name: CyBle_Start
 282:.\Generated_Source\PSoC4/CYBLE.c **** *******************************************************************************
 283:.\Generated_Source\PSoC4/CYBLE.c **** 
 284:.\Generated_Source\PSoC4/CYBLE.c **** Summary:
 285:.\Generated_Source\PSoC4/CYBLE.c ****  This function initializes the BLE Stack, which consists of the BLE Stack 
 286:.\Generated_Source\PSoC4/CYBLE.c ****  Manager, BLE Controller, and BLE Host modules. It takes care of initializing
 287:.\Generated_Source\PSoC4/CYBLE.c ****  the Profile layer, schedulers, Timer and other platform related
 288:.\Generated_Source\PSoC4/CYBLE.c ****  resources required for the BLE component. It also registers the callback 
 289:.\Generated_Source\PSoC4/CYBLE.c ****  function for BLE events that will be registered in the BLE stack.
 290:.\Generated_Source\PSoC4/CYBLE.c **** 
 291:.\Generated_Source\PSoC4/CYBLE.c ****  Note that this function does not reset the BLE Stack.
 292:.\Generated_Source\PSoC4/CYBLE.c **** 
 293:.\Generated_Source\PSoC4/CYBLE.c ****  For HCI-Mode of operation, this function will not initialize the BLE Host 
 294:.\Generated_Source\PSoC4/CYBLE.c ****  module.
 295:.\Generated_Source\PSoC4/CYBLE.c **** 
 296:.\Generated_Source\PSoC4/CYBLE.c ****  Calling this function results in the generation of CYBLE_EVT_STACK_ON event
 297:.\Generated_Source\PSoC4/CYBLE.c ****  on successful initialization of the BLE Stack.
 298:.\Generated_Source\PSoC4/CYBLE.c **** 
 299:.\Generated_Source\PSoC4/CYBLE.c **** Parameters:
 300:.\Generated_Source\PSoC4/CYBLE.c ****  callbackFunc: Event callback function to receive events from BLE stack.
 301:.\Generated_Source\PSoC4/CYBLE.c ****   CYBLE_CALLBACK_T is a function pointer type.
 302:.\Generated_Source\PSoC4/CYBLE.c **** 
 303:.\Generated_Source\PSoC4/CYBLE.c **** Return:
 304:.\Generated_Source\PSoC4/CYBLE.c ****  CYBLE_API_RESULT_T : Return value indicates if the function succeeded or 
 305:.\Generated_Source\PSoC4/CYBLE.c ****  failed. Following are the possible error codes.
 306:.\Generated_Source\PSoC4/CYBLE.c ****  <table>
 307:.\Generated_Source\PSoC4/CYBLE.c ****   Errors codes                        Description
 308:.\Generated_Source\PSoC4/CYBLE.c ****   ------------                        -----------------
 309:.\Generated_Source\PSoC4/CYBLE.c ****   CYBLE_ERROR_OK                      On successful operation.
 310:.\Generated_Source\PSoC4/CYBLE.c ****   CYBLE_ERROR_INVALID_PARAMETER       On passing a NULL pointer to the 
 311:.\Generated_Source\PSoC4/CYBLE.c ****                                        function when the BLE stack is not 
 312:.\Generated_Source\PSoC4/CYBLE.c ****                                        built in HCI mode.
 313:.\Generated_Source\PSoC4/CYBLE.c ****                                        CYBLE_ERROR_INVALID_PARAMETER
 314:.\Generated_Source\PSoC4/CYBLE.c ****                                        is never returned in HCI mode.
 315:.\Generated_Source\PSoC4/CYBLE.c ****   CYBLE_ERROR_REPEATED_ATTEMPTS       On invoking this function more
 316:.\Generated_Source\PSoC4/CYBLE.c ****                                        than once without calling
 317:.\Generated_Source\PSoC4/CYBLE.c ****                                        CyBle_Shutdown() function 
 318:.\Generated_Source\PSoC4/CYBLE.c ****                                        between calls to this function.
 319:.\Generated_Source\PSoC4/CYBLE.c ****  </table>
 320:.\Generated_Source\PSoC4/CYBLE.c **** 
 321:.\Generated_Source\PSoC4/CYBLE.c **** ******************************************************************************/
 322:.\Generated_Source\PSoC4/CYBLE.c **** CYBLE_API_RESULT_T CyBle_Start(CYBLE_CALLBACK_T callbackFunc)
 323:.\Generated_Source\PSoC4/CYBLE.c **** {
 235              		.loc 1 323 0
 236              		.cfi_startproc
 237 0000 90B5     		push	{r4, r7, lr}
 238              		.cfi_def_cfa_offset 12
 239              		.cfi_offset 4, -12
 240              		.cfi_offset 7, -8
 241              		.cfi_offset 14, -4
 242 0002 85B0     		sub	sp, sp, #20
 243              		.cfi_def_cfa_offset 32
 244 0004 00AF     		add	r7, sp, #0
 245              		.cfi_def_cfa_register 7
 246 0006 7860     		str	r0, [r7, #4]
 324:.\Generated_Source\PSoC4/CYBLE.c ****     CYBLE_API_RESULT_T apiResult = CYBLE_ERROR_INVALID_PARAMETER;
ARM GAS  C:\Users\jdmoussa\AppData\Local\Temp\ccsp17ZB.s 			page 11


 247              		.loc 1 324 0
 248 0008 3B1C     		mov	r3, r7
 249 000a 0E33     		add	r3, r3, #14
 250 000c 0122     		mov	r2, #1
 251 000e 1A80     		strh	r2, [r3]
 325:.\Generated_Source\PSoC4/CYBLE.c ****     
 326:.\Generated_Source\PSoC4/CYBLE.c ****     /* Allocate RAM memory for stack */
 327:.\Generated_Source\PSoC4/CYBLE.c ****     CYBLE_CYALIGNED static uint8 cyBle_stackMemoryRam[CYBLE_STACK_RAM_SIZE];
 328:.\Generated_Source\PSoC4/CYBLE.c ****     
 329:.\Generated_Source\PSoC4/CYBLE.c ****     /* If not initialized then initialize all the required hardware and software */
 330:.\Generated_Source\PSoC4/CYBLE.c ****     if(cyBle_initVar == 0u)
 252              		.loc 1 330 0
 253 0010 194B     		ldr	r3, .L9
 254 0012 1B78     		ldrb	r3, [r3]
 255 0014 002B     		cmp	r3, #0
 256 0016 04D1     		bne	.L6
 331:.\Generated_Source\PSoC4/CYBLE.c ****     {
 332:.\Generated_Source\PSoC4/CYBLE.c ****         CyBle_Init();
 257              		.loc 1 332 0
 258 0018 FFF7FEFF 		bl	CyBle_Init
 333:.\Generated_Source\PSoC4/CYBLE.c ****         cyBle_initVar = 1u;
 259              		.loc 1 333 0
 260 001c 164B     		ldr	r3, .L9
 261 001e 0122     		mov	r2, #1
 262 0020 1A70     		strb	r2, [r3]
 263              	.L6:
 334:.\Generated_Source\PSoC4/CYBLE.c ****     }
 335:.\Generated_Source\PSoC4/CYBLE.c ****     
 336:.\Generated_Source\PSoC4/CYBLE.c ****     if(NULL != callbackFunc)
 264              		.loc 1 336 0
 265 0022 7B68     		ldr	r3, [r7, #4]
 266 0024 002B     		cmp	r3, #0
 267 0026 1FD0     		beq	.L7
 337:.\Generated_Source\PSoC4/CYBLE.c ****     {
 338:.\Generated_Source\PSoC4/CYBLE.c ****         CyBle_ApplCallback = callbackFunc;
 268              		.loc 1 338 0
 269 0028 144B     		ldr	r3, .L9+4
 270 002a 7A68     		ldr	r2, [r7, #4]
 271 002c 1A60     		str	r2, [r3]
 339:.\Generated_Source\PSoC4/CYBLE.c **** 
 340:.\Generated_Source\PSoC4/CYBLE.c ****         apiResult = CyBle_StackInit(&CyBle_EventHandler, cyBle_stackMemoryRam, CYBLE_GATT_MTU);
 272              		.loc 1 340 0
 273 002e 3C1C     		mov	r4, r7
 274 0030 0E34     		add	r4, r4, #14
 275 0032 134A     		ldr	r2, .L9+8
 276 0034 134B     		ldr	r3, .L9+12
 277 0036 101C     		mov	r0, r2
 278 0038 191C     		mov	r1, r3
 279 003a 1722     		mov	r2, #23
 280 003c FFF7FEFF 		bl	CyBle_StackInit
 281 0040 031C     		mov	r3, r0
 282 0042 2380     		strh	r3, [r4]
 341:.\Generated_Source\PSoC4/CYBLE.c **** 
 342:.\Generated_Source\PSoC4/CYBLE.c ****         if(apiResult == CYBLE_ERROR_OK)
 283              		.loc 1 342 0
 284 0044 3B1C     		mov	r3, r7
 285 0046 0E33     		add	r3, r3, #14
ARM GAS  C:\Users\jdmoussa\AppData\Local\Temp\ccsp17ZB.s 			page 12


 286 0048 1B88     		ldrh	r3, [r3]
 287 004a 002B     		cmp	r3, #0
 288 004c 0CD1     		bne	.L7
 343:.\Generated_Source\PSoC4/CYBLE.c ****         {
 344:.\Generated_Source\PSoC4/CYBLE.c ****             CyBle_SetState(CYBLE_STATE_INITIALIZING);
 289              		.loc 1 344 0
 290 004e 0E4B     		ldr	r3, .L9+16
 291 0050 0122     		mov	r2, #1
 292 0052 1A70     		strb	r2, [r3]
 345:.\Generated_Source\PSoC4/CYBLE.c ****             
 346:.\Generated_Source\PSoC4/CYBLE.c ****         #if (CYBLE_GATT_ROLE_CLIENT)
 347:.\Generated_Source\PSoC4/CYBLE.c ****             CyBle_SetClientState(CYBLE_CLIENT_STATE_DISCONNECTED);
 348:.\Generated_Source\PSoC4/CYBLE.c ****         #endif /* CYBLE_GATT_ROLE_CLIENT */
 349:.\Generated_Source\PSoC4/CYBLE.c ****             
 350:.\Generated_Source\PSoC4/CYBLE.c ****         #if(CYBLE_GATT_ROLE_SERVER)
 351:.\Generated_Source\PSoC4/CYBLE.c ****             apiResult = CyBle_GattsDbRegister(cyBle_gattDB, CYBLE_GATT_DB_INDEX_COUNT, CYBLE_GATT_D
 293              		.loc 1 351 0
 294 0054 3C1C     		mov	r4, r7
 295 0056 0E34     		add	r4, r4, #14
 296 0058 0C4B     		ldr	r3, .L9+20
 297 005a 181C     		mov	r0, r3
 298 005c 2C21     		mov	r1, #44
 299 005e 1522     		mov	r2, #21
 300 0060 FFF7FEFF 		bl	CyBle_GattsDbRegister
 301 0064 031C     		mov	r3, r0
 302 0066 2380     		strh	r3, [r4]
 303              	.L7:
 352:.\Generated_Source\PSoC4/CYBLE.c ****         #endif /* CYBLE_GATT_ROLE_SERVER */
 353:.\Generated_Source\PSoC4/CYBLE.c ****         }
 354:.\Generated_Source\PSoC4/CYBLE.c ****     }
 355:.\Generated_Source\PSoC4/CYBLE.c **** 
 356:.\Generated_Source\PSoC4/CYBLE.c ****     return (apiResult);
 304              		.loc 1 356 0
 305 0068 3B1C     		mov	r3, r7
 306 006a 0E33     		add	r3, r3, #14
 307 006c 1B88     		ldrh	r3, [r3]
 357:.\Generated_Source\PSoC4/CYBLE.c **** }
 308              		.loc 1 357 0
 309 006e 181C     		mov	r0, r3
 310 0070 BD46     		mov	sp, r7
 311 0072 05B0     		add	sp, sp, #20
 312              		@ sp needed
 313 0074 90BD     		pop	{r4, r7, pc}
 314              	.L10:
 315 0076 C046     		.align	2
 316              	.L9:
 317 0078 00000000 		.word	cyBle_initVar
 318 007c 00000000 		.word	CyBle_ApplCallback
 319 0080 00000000 		.word	CyBle_EventHandler
 320 0084 08000000 		.word	cyBle_stackMemoryRam.6149
 321 0088 00000000 		.word	cyBle_state
 322 008c 00000000 		.word	cyBle_gattDB
 323              		.cfi_endproc
 324              	.LFE4:
 325              		.size	CyBle_Start, .-CyBle_Start
 326              		.section	.text.CyBle_Stop,"ax",%progbits
 327              		.align	2
ARM GAS  C:\Users\jdmoussa\AppData\Local\Temp\ccsp17ZB.s 			page 13


 328              		.global	CyBle_Stop
 329              		.code	16
 330              		.thumb_func
 331              		.type	CyBle_Stop, %function
 332              	CyBle_Stop:
 333              	.LFB5:
 358:.\Generated_Source\PSoC4/CYBLE.c **** 
 359:.\Generated_Source\PSoC4/CYBLE.c **** 
 360:.\Generated_Source\PSoC4/CYBLE.c **** /******************************************************************************
 361:.\Generated_Source\PSoC4/CYBLE.c **** ##Function Name: CyBle_Stop
 362:.\Generated_Source\PSoC4/CYBLE.c **** *******************************************************************************
 363:.\Generated_Source\PSoC4/CYBLE.c **** 
 364:.\Generated_Source\PSoC4/CYBLE.c **** Summary:
 365:.\Generated_Source\PSoC4/CYBLE.c ****  This function stops any ongoing operation in the BLE Stack and forces the 
 366:.\Generated_Source\PSoC4/CYBLE.c ****  BLE Stack to shut down. The only function that can be called after calling
 367:.\Generated_Source\PSoC4/CYBLE.c ****  this function is CyBle_Start(). 
 368:.\Generated_Source\PSoC4/CYBLE.c **** 
 369:.\Generated_Source\PSoC4/CYBLE.c **** Parameters:
 370:.\Generated_Source\PSoC4/CYBLE.c ****  None
 371:.\Generated_Source\PSoC4/CYBLE.c **** 
 372:.\Generated_Source\PSoC4/CYBLE.c **** Return:
 373:.\Generated_Source\PSoC4/CYBLE.c ****  None
 374:.\Generated_Source\PSoC4/CYBLE.c **** 
 375:.\Generated_Source\PSoC4/CYBLE.c **** ******************************************************************************/
 376:.\Generated_Source\PSoC4/CYBLE.c **** void CyBle_Stop(void)
 377:.\Generated_Source\PSoC4/CYBLE.c **** {
 334              		.loc 1 377 0
 335              		.cfi_startproc
 336 0000 80B5     		push	{r7, lr}
 337              		.cfi_def_cfa_offset 8
 338              		.cfi_offset 7, -8
 339              		.cfi_offset 14, -4
 340 0002 00AF     		add	r7, sp, #0
 341              		.cfi_def_cfa_register 7
 378:.\Generated_Source\PSoC4/CYBLE.c ****     CyBle_Shutdown(); /* stop all ongoing activities */
 342              		.loc 1 378 0
 343 0004 FFF7FEFF 		bl	CyBle_Shutdown
 379:.\Generated_Source\PSoC4/CYBLE.c ****     CyBle_ProcessEvents(); /* process all pending events */
 344              		.loc 1 379 0
 345 0008 FFF7FEFF 		bl	CyBle_ProcessEvents
 380:.\Generated_Source\PSoC4/CYBLE.c ****     CyBle_SetState(CYBLE_STATE_STOPPED);
 346              		.loc 1 380 0
 347 000c 024B     		ldr	r3, .L12
 348 000e 0022     		mov	r2, #0
 349 0010 1A70     		strb	r2, [r3]
 381:.\Generated_Source\PSoC4/CYBLE.c **** }
 350              		.loc 1 381 0
 351 0012 BD46     		mov	sp, r7
 352              		@ sp needed
 353 0014 80BD     		pop	{r7, pc}
 354              	.L13:
 355 0016 C046     		.align	2
 356              	.L12:
 357 0018 00000000 		.word	cyBle_state
 358              		.cfi_endproc
 359              	.LFE5:
 360              		.size	CyBle_Stop, .-CyBle_Stop
ARM GAS  C:\Users\jdmoussa\AppData\Local\Temp\ccsp17ZB.s 			page 14


 361              		.section	.text.CyBle_StoreBondingData,"ax",%progbits
 362              		.align	2
 363              		.global	CyBle_StoreBondingData
 364              		.code	16
 365              		.thumb_func
 366              		.type	CyBle_StoreBondingData, %function
 367              	CyBle_StoreBondingData:
 368              	.LFB6:
 382:.\Generated_Source\PSoC4/CYBLE.c **** 
 383:.\Generated_Source\PSoC4/CYBLE.c **** 
 384:.\Generated_Source\PSoC4/CYBLE.c **** #if((CYBLE_GAP_ROLE_PERIPHERAL || CYBLE_GAP_ROLE_CENTRAL) && (CYBLE_BONDING_REQUIREMENT == CYBLE_BO
 385:.\Generated_Source\PSoC4/CYBLE.c **** 
 386:.\Generated_Source\PSoC4/CYBLE.c ****     
 387:.\Generated_Source\PSoC4/CYBLE.c **** /******************************************************************************
 388:.\Generated_Source\PSoC4/CYBLE.c **** ##Function Name: CyBle_StoreBondingData
 389:.\Generated_Source\PSoC4/CYBLE.c **** *******************************************************************************
 390:.\Generated_Source\PSoC4/CYBLE.c **** 
 391:.\Generated_Source\PSoC4/CYBLE.c **** Summary:
 392:.\Generated_Source\PSoC4/CYBLE.c ****  This function writes the new bonding data from RAM to the dedicated Flash 
 393:.\Generated_Source\PSoC4/CYBLE.c ****  location as defined by the component. It performs data comparing between RAM
 394:.\Generated_Source\PSoC4/CYBLE.c ****  and Flash before writing to Flash. If there is no change between RAM and Flash
 395:.\Generated_Source\PSoC4/CYBLE.c ****  data, then no write is performed. It writes only one flash row in one call.
 396:.\Generated_Source\PSoC4/CYBLE.c ****  Application should keep calling this function till API return CYBLE_ERROR_OK. 
 397:.\Generated_Source\PSoC4/CYBLE.c ****  This function is available only when Bonding requirement is selected in
 398:.\Generated_Source\PSoC4/CYBLE.c ****  Security settings.    
 399:.\Generated_Source\PSoC4/CYBLE.c ****     
 400:.\Generated_Source\PSoC4/CYBLE.c **** Parameters:
 401:.\Generated_Source\PSoC4/CYBLE.c ****  isForceWrite:  If value is set to 0, then stack will check if flash write 
 402:.\Generated_Source\PSoC4/CYBLE.c ****                 is permissible. 
 403:.\Generated_Source\PSoC4/CYBLE.c ****  
 404:.\Generated_Source\PSoC4/CYBLE.c **** Return:
 405:.\Generated_Source\PSoC4/CYBLE.c ****  Return value is of type CYBLE_API_RESULT_T.
 406:.\Generated_Source\PSoC4/CYBLE.c ****  * CYBLE_ERROR_OK - On successful operation
 407:.\Generated_Source\PSoC4/CYBLE.c ****  * CYBLE_ERROR_FLASH_WRITE_NOT_PERMITED - Flash Write is not complete
 408:.\Generated_Source\PSoC4/CYBLE.c ****    
 409:.\Generated_Source\PSoC4/CYBLE.c ****  Side Effects:
 410:.\Generated_Source\PSoC4/CYBLE.c ****   This API will automatically modify the clock settings for the device.
 411:.\Generated_Source\PSoC4/CYBLE.c ****   Writing to flash requires changes to be done to the IMO (set to 48 MHz)
 412:.\Generated_Source\PSoC4/CYBLE.c ****   and HFCLK (source set to IMO) settings. The configuration is restored before
 413:.\Generated_Source\PSoC4/CYBLE.c ****   returning. This will impact the operation of most of the hardware in the
 414:.\Generated_Source\PSoC4/CYBLE.c ****   device.
 415:.\Generated_Source\PSoC4/CYBLE.c **** 
 416:.\Generated_Source\PSoC4/CYBLE.c **** ******************************************************************************/
 417:.\Generated_Source\PSoC4/CYBLE.c **** CYBLE_API_RESULT_T CyBle_StoreBondingData(uint8 isForceWrite)
 418:.\Generated_Source\PSoC4/CYBLE.c **** {
 369              		.loc 1 418 0
 370              		.cfi_startproc
 371 0000 90B5     		push	{r4, r7, lr}
 372              		.cfi_def_cfa_offset 12
 373              		.cfi_offset 4, -12
 374              		.cfi_offset 7, -8
 375              		.cfi_offset 14, -4
 376 0002 85B0     		sub	sp, sp, #20
 377              		.cfi_def_cfa_offset 32
 378 0004 00AF     		add	r7, sp, #0
 379              		.cfi_def_cfa_register 7
 380 0006 021C     		mov	r2, r0
ARM GAS  C:\Users\jdmoussa\AppData\Local\Temp\ccsp17ZB.s 			page 15


 381 0008 FB1D     		add	r3, r7, #7
 382 000a 1A70     		strb	r2, [r3]
 419:.\Generated_Source\PSoC4/CYBLE.c ****     CYBLE_API_RESULT_T apiResult = CYBLE_ERROR_OK;
 383              		.loc 1 419 0
 384 000c 3B1C     		mov	r3, r7
 385 000e 0E33     		add	r3, r3, #14
 386 0010 0022     		mov	r2, #0
 387 0012 1A80     		strh	r2, [r3]
 420:.\Generated_Source\PSoC4/CYBLE.c ****     
 421:.\Generated_Source\PSoC4/CYBLE.c ****     /* Store Stack data */
 422:.\Generated_Source\PSoC4/CYBLE.c ****     if((cyBle_pendingFlashWrite & CYBLE_PENDING_STACK_FLASH_WRITE_BIT) != 0u)
 388              		.loc 1 422 0
 389 0014 2D4B     		ldr	r3, .L19
 390 0016 1B78     		ldrb	r3, [r3]
 391 0018 1A1C     		mov	r2, r3
 392 001a 0123     		mov	r3, #1
 393 001c 1340     		and	r3, r2
 394 001e 1ED0     		beq	.L15
 423:.\Generated_Source\PSoC4/CYBLE.c ****     {
 424:.\Generated_Source\PSoC4/CYBLE.c ****         apiResult = CyBle_StoreStackData(isForceWrite);
 395              		.loc 1 424 0
 396 0020 3C1C     		mov	r4, r7
 397 0022 0E34     		add	r4, r4, #14
 398 0024 FB1D     		add	r3, r7, #7
 399 0026 1B78     		ldrb	r3, [r3]
 400 0028 181C     		mov	r0, r3
 401 002a FFF7FEFF 		bl	CyBle_StoreStackData
 402 002e 031C     		mov	r3, r0
 403 0030 2380     		strh	r3, [r4]
 425:.\Generated_Source\PSoC4/CYBLE.c ****         if(apiResult == CYBLE_ERROR_OK)
 404              		.loc 1 425 0
 405 0032 3B1C     		mov	r3, r7
 406 0034 0E33     		add	r3, r3, #14
 407 0036 1B88     		ldrh	r3, [r3]
 408 0038 002B     		cmp	r3, #0
 409 003a 10D1     		bne	.L15
 426:.\Generated_Source\PSoC4/CYBLE.c ****         {
 427:.\Generated_Source\PSoC4/CYBLE.c ****             cyBle_pendingFlashWrite &= (uint8)~CYBLE_PENDING_STACK_FLASH_WRITE_BIT;
 410              		.loc 1 427 0
 411 003c 234B     		ldr	r3, .L19
 412 003e 1B78     		ldrb	r3, [r3]
 413 0040 0122     		mov	r2, #1
 414 0042 9343     		bic	r3, r2
 415 0044 DAB2     		uxtb	r2, r3
 416 0046 214B     		ldr	r3, .L19
 417 0048 1A70     		strb	r2, [r3]
 428:.\Generated_Source\PSoC4/CYBLE.c ****             /* Change apiResult if there are more pending data to store */
 429:.\Generated_Source\PSoC4/CYBLE.c ****             if((cyBle_pendingFlashWrite & CYBLE_PENDING_CCCD_FLASH_WRITE_BIT) != 0u)
 418              		.loc 1 429 0
 419 004a 204B     		ldr	r3, .L19
 420 004c 1B78     		ldrb	r3, [r3]
 421 004e 1A1C     		mov	r2, r3
 422 0050 0223     		mov	r3, #2
 423 0052 1340     		and	r3, r2
 424 0054 03D0     		beq	.L15
 430:.\Generated_Source\PSoC4/CYBLE.c ****             {
 431:.\Generated_Source\PSoC4/CYBLE.c ****                 apiResult = CYBLE_ERROR_FLASH_WRITE_NOT_PERMITED;
ARM GAS  C:\Users\jdmoussa\AppData\Local\Temp\ccsp17ZB.s 			page 16


 425              		.loc 1 431 0
 426 0056 3B1C     		mov	r3, r7
 427 0058 0E33     		add	r3, r3, #14
 428 005a 2822     		mov	r2, #40
 429 005c 1A80     		strh	r2, [r3]
 430              	.L15:
 432:.\Generated_Source\PSoC4/CYBLE.c ****             }
 433:.\Generated_Source\PSoC4/CYBLE.c ****         }
 434:.\Generated_Source\PSoC4/CYBLE.c ****     }
 435:.\Generated_Source\PSoC4/CYBLE.c **** #if(CYBLE_GATT_DB_CCCD_COUNT != 0u)
 436:.\Generated_Source\PSoC4/CYBLE.c ****     /* Store CCCD values */
 437:.\Generated_Source\PSoC4/CYBLE.c ****     if( ((apiResult == CYBLE_ERROR_OK) || (isForceWrite != 0u)) && 
 431              		.loc 1 437 0
 432 005e 3B1C     		mov	r3, r7
 433 0060 0E33     		add	r3, r3, #14
 434 0062 1B88     		ldrh	r3, [r3]
 435 0064 002B     		cmp	r3, #0
 436 0066 03D0     		beq	.L16
 437              		.loc 1 437 0 is_stmt 0 discriminator 2
 438 0068 FB1D     		add	r3, r7, #7
 439 006a 1B78     		ldrb	r3, [r3]
 440 006c 002B     		cmp	r3, #0
 441 006e 26D0     		beq	.L17
 442              	.L16:
 438:.\Generated_Source\PSoC4/CYBLE.c ****         ((cyBle_pendingFlashWrite & CYBLE_PENDING_CCCD_FLASH_WRITE_BIT) != 0u) &&
 443              		.loc 1 438 0 is_stmt 1 discriminator 1
 444 0070 164B     		ldr	r3, .L19
 445 0072 1B78     		ldrb	r3, [r3]
 446 0074 1A1C     		mov	r2, r3
 447 0076 0223     		mov	r3, #2
 448 0078 1340     		and	r3, r2
 437:.\Generated_Source\PSoC4/CYBLE.c ****     if( ((apiResult == CYBLE_ERROR_OK) || (isForceWrite != 0u)) && 
 449              		.loc 1 437 0 discriminator 1
 450 007a 20D0     		beq	.L17
 439:.\Generated_Source\PSoC4/CYBLE.c ****         (cyBle_connHandle.bdHandle <= CYBLE_GAP_MAX_BONDED_DEVICE))
 451              		.loc 1 439 0
 452 007c 144B     		ldr	r3, .L19+4
 453 007e 1B78     		ldrb	r3, [r3]
 438:.\Generated_Source\PSoC4/CYBLE.c ****         ((cyBle_pendingFlashWrite & CYBLE_PENDING_CCCD_FLASH_WRITE_BIT) != 0u) &&
 454              		.loc 1 438 0
 455 0080 042B     		cmp	r3, #4
 456 0082 1CD8     		bhi	.L17
 440:.\Generated_Source\PSoC4/CYBLE.c ****     {
 441:.\Generated_Source\PSoC4/CYBLE.c ****         apiResult = CyBle_StoreAppData(cyBle_attValuesCCCD, cyBle_attValuesCCCDFlashMemory[cyBle_co
 457              		.loc 1 441 0
 458 0084 124B     		ldr	r3, .L19+4
 459 0086 1B78     		ldrb	r3, [r3]
 460 0088 DA00     		lsl	r2, r3, #3
 461 008a 124B     		ldr	r3, .L19+8
 462 008c D218     		add	r2, r2, r3
 463 008e 3C1C     		mov	r4, r7
 464 0090 0E34     		add	r4, r4, #14
 465 0092 1149     		ldr	r1, .L19+12
 466 0094 FB1D     		add	r3, r7, #7
 467 0096 1B78     		ldrb	r3, [r3]
 468 0098 081C     		mov	r0, r1
 469 009a 111C     		mov	r1, r2
ARM GAS  C:\Users\jdmoussa\AppData\Local\Temp\ccsp17ZB.s 			page 17


 470 009c 0822     		mov	r2, #8
 471 009e FFF7FEFF 		bl	CyBle_StoreAppData
 472 00a2 031C     		mov	r3, r0
 473 00a4 2380     		strh	r3, [r4]
 442:.\Generated_Source\PSoC4/CYBLE.c ****                                        CYBLE_GATT_DB_CCCD_COUNT, isForceWrite);
 443:.\Generated_Source\PSoC4/CYBLE.c ****         if(apiResult == CYBLE_ERROR_OK)
 474              		.loc 1 443 0
 475 00a6 3B1C     		mov	r3, r7
 476 00a8 0E33     		add	r3, r3, #14
 477 00aa 1B88     		ldrh	r3, [r3]
 478 00ac 002B     		cmp	r3, #0
 479 00ae 06D1     		bne	.L17
 444:.\Generated_Source\PSoC4/CYBLE.c ****         {
 445:.\Generated_Source\PSoC4/CYBLE.c ****             cyBle_pendingFlashWrite &= (uint8)~CYBLE_PENDING_CCCD_FLASH_WRITE_BIT;
 480              		.loc 1 445 0
 481 00b0 064B     		ldr	r3, .L19
 482 00b2 1B78     		ldrb	r3, [r3]
 483 00b4 0222     		mov	r2, #2
 484 00b6 9343     		bic	r3, r2
 485 00b8 DAB2     		uxtb	r2, r3
 486 00ba 044B     		ldr	r3, .L19
 487 00bc 1A70     		strb	r2, [r3]
 488              	.L17:
 446:.\Generated_Source\PSoC4/CYBLE.c ****         }
 447:.\Generated_Source\PSoC4/CYBLE.c ****     }
 448:.\Generated_Source\PSoC4/CYBLE.c **** #endif /* CYBLE_GATT_DB_CCCD_COUNT != 0u */
 449:.\Generated_Source\PSoC4/CYBLE.c ****     return(apiResult);
 489              		.loc 1 449 0
 490 00be 3B1C     		mov	r3, r7
 491 00c0 0E33     		add	r3, r3, #14
 492 00c2 1B88     		ldrh	r3, [r3]
 450:.\Generated_Source\PSoC4/CYBLE.c **** }
 493              		.loc 1 450 0
 494 00c4 181C     		mov	r0, r3
 495 00c6 BD46     		mov	sp, r7
 496 00c8 05B0     		add	sp, sp, #20
 497              		@ sp needed
 498 00ca 90BD     		pop	{r4, r7, pc}
 499              	.L20:
 500              		.align	2
 501              	.L19:
 502 00cc 00000000 		.word	cyBle_pendingFlashWrite
 503 00d0 00000000 		.word	cyBle_connHandle
 504 00d4 00000000 		.word	cyBle_attValuesCCCDFlashMemory
 505 00d8 00000000 		.word	cyBle_attValuesCCCD
 506              		.cfi_endproc
 507              	.LFE6:
 508              		.size	CyBle_StoreBondingData, .-CyBle_StoreBondingData
 509              		.section	.text.CyBle_GappStartAdvertisement,"ax",%progbits
 510              		.align	2
 511              		.global	CyBle_GappStartAdvertisement
 512              		.code	16
 513              		.thumb_func
 514              		.type	CyBle_GappStartAdvertisement, %function
 515              	CyBle_GappStartAdvertisement:
 516              	.LFB7:
 451:.\Generated_Source\PSoC4/CYBLE.c **** 
ARM GAS  C:\Users\jdmoussa\AppData\Local\Temp\ccsp17ZB.s 			page 18


 452:.\Generated_Source\PSoC4/CYBLE.c **** 
 453:.\Generated_Source\PSoC4/CYBLE.c **** #endif /* (CYBLE_GAP_ROLE_PERIPHERAL || CYBLE_GAP_ROLE_CENTRAL) && (CYBLE_BONDING_REQUIREMENT == CY
 454:.\Generated_Source\PSoC4/CYBLE.c **** 
 455:.\Generated_Source\PSoC4/CYBLE.c **** 
 456:.\Generated_Source\PSoC4/CYBLE.c **** #if(CYBLE_GAP_ROLE_PERIPHERAL || CYBLE_GAP_ROLE_BROADCASTER)
 457:.\Generated_Source\PSoC4/CYBLE.c **** 
 458:.\Generated_Source\PSoC4/CYBLE.c ****     /******************************************************************************
 459:.\Generated_Source\PSoC4/CYBLE.c ****     ##Function Name: CyBle_GappStartAdvertisement
 460:.\Generated_Source\PSoC4/CYBLE.c ****     *******************************************************************************
 461:.\Generated_Source\PSoC4/CYBLE.c ****     
 462:.\Generated_Source\PSoC4/CYBLE.c ****     Summary:
 463:.\Generated_Source\PSoC4/CYBLE.c ****      This function is used to start the advertisement using the advertisement data 
 464:.\Generated_Source\PSoC4/CYBLE.c ****      set in the component customizer's GUI. After invoking this API, the device 
 465:.\Generated_Source\PSoC4/CYBLE.c ****      will be available for connection by the devices configured for GAP central 
 466:.\Generated_Source\PSoC4/CYBLE.c ****      role. It is only included if the device is configured for GAP Peripheral or 
 467:.\Generated_Source\PSoC4/CYBLE.c ****      GAP Peripheral + Central role.
 468:.\Generated_Source\PSoC4/CYBLE.c ****      
 469:.\Generated_Source\PSoC4/CYBLE.c ****      On start of advertisement, GAP Peripheral receives the
 470:.\Generated_Source\PSoC4/CYBLE.c ****      CYBLE_EVT_GAPP_ADVERTISEMENT_START_STOP event. The following events are 
 471:.\Generated_Source\PSoC4/CYBLE.c ****      possible on invoking this function:
 472:.\Generated_Source\PSoC4/CYBLE.c ****      
 473:.\Generated_Source\PSoC4/CYBLE.c ****      * CYBLE_EVT_GAP_DEVICE_CONNECTED: If the device connects to remote GAP 
 474:.\Generated_Source\PSoC4/CYBLE.c ****                                          Central device
 475:.\Generated_Source\PSoC4/CYBLE.c ****      * CYBLE_EVT_TIMEOUT: If no device in GAP Central mode connects to this 
 476:.\Generated_Source\PSoC4/CYBLE.c ****                           device within the specified timeout limit. Stack 
 477:.\Generated_Source\PSoC4/CYBLE.c ****                           automatically initiate stop advertising when Slow 
 478:.\Generated_Source\PSoC4/CYBLE.c ****                           advertising was initiated, or starts Slow advertising
 479:.\Generated_Source\PSoC4/CYBLE.c ****                           after Fast advertising timeout occur.
 480:.\Generated_Source\PSoC4/CYBLE.c ****      * CYBLE_EVT_GAPP_ADVERTISEMENT_START_STOP: If device started or stopped
 481:.\Generated_Source\PSoC4/CYBLE.c ****                                                   advertising. Use CyBle_GetState()
 482:.\Generated_Source\PSoC4/CYBLE.c ****                                                   to determine the state. Sequential 
 483:.\Generated_Source\PSoC4/CYBLE.c ****                                                   advertising could be started when
 484:.\Generated_Source\PSoC4/CYBLE.c ****                                                   CYBLE_STATE_DISCONNECTED state is
 485:.\Generated_Source\PSoC4/CYBLE.c ****                                                   returned.
 486:.\Generated_Source\PSoC4/CYBLE.c **** 
 487:.\Generated_Source\PSoC4/CYBLE.c ****     Parameters:
 488:.\Generated_Source\PSoC4/CYBLE.c ****      uint8 advertisingIntervalType: Fast or slow advertising interval with timings
 489:.\Generated_Source\PSoC4/CYBLE.c ****                                     entered in Advertising settings section of the
 490:.\Generated_Source\PSoC4/CYBLE.c ****                                     customizer.
 491:.\Generated_Source\PSoC4/CYBLE.c ****      * CYBLE_ADVERTISING_FAST   0x00u
 492:.\Generated_Source\PSoC4/CYBLE.c ****      * CYBLE_ADVERTISING_SLOW   0x01u
 493:.\Generated_Source\PSoC4/CYBLE.c ****      * CYBLE_ADVERTISING_CUSTOM 0x02u
 494:.\Generated_Source\PSoC4/CYBLE.c ****     
 495:.\Generated_Source\PSoC4/CYBLE.c ****     Return:
 496:.\Generated_Source\PSoC4/CYBLE.c ****      CYBLE_API_RESULT_T : Return value indicates if the function succeeded or
 497:.\Generated_Source\PSoC4/CYBLE.c ****      failed. Following are the possible error codes.
 498:.\Generated_Source\PSoC4/CYBLE.c ****      <table>
 499:.\Generated_Source\PSoC4/CYBLE.c ****       Errors codes                        Description
 500:.\Generated_Source\PSoC4/CYBLE.c ****       ------------                        -----------
 501:.\Generated_Source\PSoC4/CYBLE.c ****       CYBLE_ERROR_OK                      On successful operation.
 502:.\Generated_Source\PSoC4/CYBLE.c ****       CYBLE_ERROR_INVALID_PARAMETER       On passing an invalid parameter.
 503:.\Generated_Source\PSoC4/CYBLE.c ****      </table>
 504:.\Generated_Source\PSoC4/CYBLE.c ****     
 505:.\Generated_Source\PSoC4/CYBLE.c ****     ******************************************************************************/
 506:.\Generated_Source\PSoC4/CYBLE.c ****     CYBLE_API_RESULT_T CyBle_GappStartAdvertisement(uint8 advertisingIntervalType)
 507:.\Generated_Source\PSoC4/CYBLE.c ****     {
 517              		.loc 1 507 0
ARM GAS  C:\Users\jdmoussa\AppData\Local\Temp\ccsp17ZB.s 			page 19


 518              		.cfi_startproc
 519 0000 90B5     		push	{r4, r7, lr}
 520              		.cfi_def_cfa_offset 12
 521              		.cfi_offset 4, -12
 522              		.cfi_offset 7, -8
 523              		.cfi_offset 14, -4
 524 0002 85B0     		sub	sp, sp, #20
 525              		.cfi_def_cfa_offset 32
 526 0004 00AF     		add	r7, sp, #0
 527              		.cfi_def_cfa_register 7
 528 0006 021C     		mov	r2, r0
 529 0008 FB1D     		add	r3, r7, #7
 530 000a 1A70     		strb	r2, [r3]
 508:.\Generated_Source\PSoC4/CYBLE.c ****         CYBLE_API_RESULT_T apiResult;
 509:.\Generated_Source\PSoC4/CYBLE.c ****         
 510:.\Generated_Source\PSoC4/CYBLE.c ****         if((CYBLE_STATE_DISCONNECTED == CyBle_GetState()) && ((cyBle_eventHandlerFlag & CYBLE_START
 531              		.loc 1 510 0
 532 000c 294B     		ldr	r3, .L28
 533 000e 1B78     		ldrb	r3, [r3]
 534 0010 042B     		cmp	r3, #4
 535 0012 42D1     		bne	.L22
 536              		.loc 1 510 0 is_stmt 0 discriminator 1
 537 0014 284B     		ldr	r3, .L28+4
 538 0016 1B78     		ldrb	r3, [r3]
 539 0018 DBB2     		uxtb	r3, r3
 540 001a 1A1C     		mov	r2, r3
 541 001c 0423     		mov	r3, #4
 542 001e 1340     		and	r3, r2
 543 0020 3BD1     		bne	.L22
 511:.\Generated_Source\PSoC4/CYBLE.c ****         {   
 512:.\Generated_Source\PSoC4/CYBLE.c ****             if(advertisingIntervalType == CYBLE_ADVERTISING_FAST)
 544              		.loc 1 512 0 is_stmt 1
 545 0022 FB1D     		add	r3, r7, #7
 546 0024 1B78     		ldrb	r3, [r3]
 547 0026 002B     		cmp	r3, #0
 548 0028 0BD1     		bne	.L23
 513:.\Generated_Source\PSoC4/CYBLE.c ****             {
 514:.\Generated_Source\PSoC4/CYBLE.c ****                 cyBle_discoveryModeInfo.advTo = CYBLE_FAST_ADV_TIMEOUT;
 549              		.loc 1 514 0
 550 002a 244B     		ldr	r3, .L28+8
 551 002c 1E22     		mov	r2, #30
 552 002e 1A82     		strh	r2, [r3, #16]
 515:.\Generated_Source\PSoC4/CYBLE.c ****                 cyBle_discoveryModeInfo.advParam->advIntvMin = CYBLE_FAST_ADV_INT_MIN;
 553              		.loc 1 515 0
 554 0030 224B     		ldr	r3, .L28+8
 555 0032 5B68     		ldr	r3, [r3, #4]
 556 0034 2022     		mov	r2, #32
 557 0036 1A80     		strh	r2, [r3]
 516:.\Generated_Source\PSoC4/CYBLE.c ****                 cyBle_discoveryModeInfo.advParam->advIntvMax = CYBLE_FAST_ADV_INT_MAX;
 558              		.loc 1 516 0
 559 0038 204B     		ldr	r3, .L28+8
 560 003a 5B68     		ldr	r3, [r3, #4]
 561 003c 3022     		mov	r2, #48
 562 003e 5A80     		strh	r2, [r3, #2]
 563 0040 10E0     		b	.L24
 564              	.L23:
 517:.\Generated_Source\PSoC4/CYBLE.c ****             }
ARM GAS  C:\Users\jdmoussa\AppData\Local\Temp\ccsp17ZB.s 			page 20


 518:.\Generated_Source\PSoC4/CYBLE.c ****             else if(advertisingIntervalType == CYBLE_ADVERTISING_SLOW)
 565              		.loc 1 518 0
 566 0042 FB1D     		add	r3, r7, #7
 567 0044 1B78     		ldrb	r3, [r3]
 568 0046 012B     		cmp	r3, #1
 569 0048 0CD1     		bne	.L24
 519:.\Generated_Source\PSoC4/CYBLE.c ****             {
 520:.\Generated_Source\PSoC4/CYBLE.c ****                 cyBle_discoveryModeInfo.advTo = CYBLE_SLOW_ADV_TIMEOUT;
 570              		.loc 1 520 0
 571 004a 1C4B     		ldr	r3, .L28+8
 572 004c 9622     		mov	r2, #150
 573 004e 1A82     		strh	r2, [r3, #16]
 521:.\Generated_Source\PSoC4/CYBLE.c ****                 cyBle_discoveryModeInfo.advParam->advIntvMin = CYBLE_SLOW_ADV_INT_MIN;
 574              		.loc 1 521 0
 575 0050 1A4B     		ldr	r3, .L28+8
 576 0052 5B68     		ldr	r3, [r3, #4]
 577 0054 C822     		mov	r2, #200
 578 0056 D200     		lsl	r2, r2, #3
 579 0058 1A80     		strh	r2, [r3]
 522:.\Generated_Source\PSoC4/CYBLE.c ****                 cyBle_discoveryModeInfo.advParam->advIntvMax = CYBLE_SLOW_ADV_INT_MAX;
 580              		.loc 1 522 0
 581 005a 184B     		ldr	r3, .L28+8
 582 005c 5B68     		ldr	r3, [r3, #4]
 583 005e FA22     		mov	r2, #250
 584 0060 1201     		lsl	r2, r2, #4
 585 0062 5A80     		strh	r2, [r3, #2]
 586              	.L24:
 523:.\Generated_Source\PSoC4/CYBLE.c ****             }       
 524:.\Generated_Source\PSoC4/CYBLE.c ****             else /* Do not update advertising intervals */
 525:.\Generated_Source\PSoC4/CYBLE.c ****             {
 526:.\Generated_Source\PSoC4/CYBLE.c ****             }
 527:.\Generated_Source\PSoC4/CYBLE.c ****             cyBle_advertisingIntervalType = advertisingIntervalType;
 587              		.loc 1 527 0
 588 0064 164B     		ldr	r3, .L28+12
 589 0066 FA1D     		add	r2, r7, #7
 590 0068 1278     		ldrb	r2, [r2]
 591 006a 1A70     		strb	r2, [r3]
 528:.\Generated_Source\PSoC4/CYBLE.c ****             apiResult = CyBle_GappEnterDiscoveryMode(&cyBle_discoveryModeInfo);
 592              		.loc 1 528 0
 593 006c 3C1C     		mov	r4, r7
 594 006e 0E34     		add	r4, r4, #14
 595 0070 124B     		ldr	r3, .L28+8
 596 0072 181C     		mov	r0, r3
 597 0074 FFF7FEFF 		bl	CyBle_GappEnterDiscoveryMode
 598 0078 031C     		mov	r3, r0
 599 007a 2380     		strh	r3, [r4]
 529:.\Generated_Source\PSoC4/CYBLE.c ****         
 530:.\Generated_Source\PSoC4/CYBLE.c ****             if(CYBLE_ERROR_OK == apiResult)
 600              		.loc 1 530 0
 601 007c 3B1C     		mov	r3, r7
 602 007e 0E33     		add	r3, r3, #14
 603 0080 1B88     		ldrh	r3, [r3]
 604 0082 002B     		cmp	r3, #0
 605 0084 08D1     		bne	.L25
 531:.\Generated_Source\PSoC4/CYBLE.c ****             {
 532:.\Generated_Source\PSoC4/CYBLE.c ****                 cyBle_eventHandlerFlag |= CYBLE_START_FLAG;
 606              		.loc 1 532 0
ARM GAS  C:\Users\jdmoussa\AppData\Local\Temp\ccsp17ZB.s 			page 21


 607 0086 0C4B     		ldr	r3, .L28+4
 608 0088 1B78     		ldrb	r3, [r3]
 609 008a DBB2     		uxtb	r3, r3
 610 008c 0422     		mov	r2, #4
 611 008e 1343     		orr	r3, r2
 612 0090 DAB2     		uxtb	r2, r3
 613 0092 094B     		ldr	r3, .L28+4
 614 0094 1A70     		strb	r2, [r3]
 530:.\Generated_Source\PSoC4/CYBLE.c ****             if(CYBLE_ERROR_OK == apiResult)
 615              		.loc 1 530 0
 616 0096 05E0     		b	.L26
 617              	.L25:
 530:.\Generated_Source\PSoC4/CYBLE.c ****             if(CYBLE_ERROR_OK == apiResult)
 618              		.loc 1 530 0 is_stmt 0 discriminator 1
 619 0098 04E0     		b	.L26
 620              	.L22:
 533:.\Generated_Source\PSoC4/CYBLE.c ****             }
 534:.\Generated_Source\PSoC4/CYBLE.c ****         }
 535:.\Generated_Source\PSoC4/CYBLE.c ****         else
 536:.\Generated_Source\PSoC4/CYBLE.c ****         {
 537:.\Generated_Source\PSoC4/CYBLE.c ****             apiResult = CYBLE_ERROR_INVALID_STATE;
 621              		.loc 1 537 0 is_stmt 1
 622 009a 3B1C     		mov	r3, r7
 623 009c 0E33     		add	r3, r3, #14
 624 009e 8322     		mov	r2, #131
 625 00a0 5200     		lsl	r2, r2, #1
 626 00a2 1A80     		strh	r2, [r3]
 627              	.L26:
 538:.\Generated_Source\PSoC4/CYBLE.c ****         }
 539:.\Generated_Source\PSoC4/CYBLE.c **** 
 540:.\Generated_Source\PSoC4/CYBLE.c ****         return (apiResult);
 628              		.loc 1 540 0
 629 00a4 3B1C     		mov	r3, r7
 630 00a6 0E33     		add	r3, r3, #14
 631 00a8 1B88     		ldrh	r3, [r3]
 541:.\Generated_Source\PSoC4/CYBLE.c ****     }
 632              		.loc 1 541 0
 633 00aa 181C     		mov	r0, r3
 634 00ac BD46     		mov	sp, r7
 635 00ae 05B0     		add	sp, sp, #20
 636              		@ sp needed
 637 00b0 90BD     		pop	{r4, r7, pc}
 638              	.L29:
 639 00b2 C046     		.align	2
 640              	.L28:
 641 00b4 00000000 		.word	cyBle_state
 642 00b8 00000000 		.word	cyBle_eventHandlerFlag
 643 00bc 00000000 		.word	cyBle_discoveryModeInfo
 644 00c0 00000000 		.word	cyBle_advertisingIntervalType
 645              		.cfi_endproc
 646              	.LFE7:
 647              		.size	CyBle_GappStartAdvertisement, .-CyBle_GappStartAdvertisement
 648              		.section	.text.CyBle_GappStopAdvertisement,"ax",%progbits
 649              		.align	2
 650              		.global	CyBle_GappStopAdvertisement
 651              		.code	16
 652              		.thumb_func
ARM GAS  C:\Users\jdmoussa\AppData\Local\Temp\ccsp17ZB.s 			page 22


 653              		.type	CyBle_GappStopAdvertisement, %function
 654              	CyBle_GappStopAdvertisement:
 655              	.LFB8:
 542:.\Generated_Source\PSoC4/CYBLE.c **** 
 543:.\Generated_Source\PSoC4/CYBLE.c ****     
 544:.\Generated_Source\PSoC4/CYBLE.c ****     /******************************************************************************
 545:.\Generated_Source\PSoC4/CYBLE.c ****     ##Function Name: CyBle_GappStopAdvertisement
 546:.\Generated_Source\PSoC4/CYBLE.c ****     *******************************************************************************
 547:.\Generated_Source\PSoC4/CYBLE.c ****     
 548:.\Generated_Source\PSoC4/CYBLE.c ****      Summary:
 549:.\Generated_Source\PSoC4/CYBLE.c ****       This function can be used to exit from discovery mode. After the execution 
 550:.\Generated_Source\PSoC4/CYBLE.c ****       of this function, there will no longer be any advertisements. On stopping 
 551:.\Generated_Source\PSoC4/CYBLE.c ****       advertising, GAP Peripheral receives CYBLE_EVT_GAPP_ADVERTISEMENT_START_STOP
 552:.\Generated_Source\PSoC4/CYBLE.c ****       event. It is expected that the application layer tracks the function call 
 553:.\Generated_Source\PSoC4/CYBLE.c ****       performed before occurrence of this event as this event can occur on making 
 554:.\Generated_Source\PSoC4/CYBLE.c ****       a call to Cy_BleGappStartAdvertisement(), CyBle_GappEnterDiscoveryMode(), 
 555:.\Generated_Source\PSoC4/CYBLE.c ****       or CyBle_GappStartAdvertisement() functions as well.
 556:.\Generated_Source\PSoC4/CYBLE.c ****       
 557:.\Generated_Source\PSoC4/CYBLE.c ****       The following event occurs on invoking this function:
 558:.\Generated_Source\PSoC4/CYBLE.c ****       * CYBLE_EVT_GAPP_ADVERTISEMENT_START_STOP
 559:.\Generated_Source\PSoC4/CYBLE.c ****     
 560:.\Generated_Source\PSoC4/CYBLE.c ****      Parameters:
 561:.\Generated_Source\PSoC4/CYBLE.c ****       None
 562:.\Generated_Source\PSoC4/CYBLE.c ****     
 563:.\Generated_Source\PSoC4/CYBLE.c ****      Return:
 564:.\Generated_Source\PSoC4/CYBLE.c ****       None
 565:.\Generated_Source\PSoC4/CYBLE.c ****     
 566:.\Generated_Source\PSoC4/CYBLE.c ****     ******************************************************************************/
 567:.\Generated_Source\PSoC4/CYBLE.c ****     void CyBle_GappStopAdvertisement(void)
 568:.\Generated_Source\PSoC4/CYBLE.c ****     {
 656              		.loc 1 568 0
 657              		.cfi_startproc
 658 0000 80B5     		push	{r7, lr}
 659              		.cfi_def_cfa_offset 8
 660              		.cfi_offset 7, -8
 661              		.cfi_offset 14, -4
 662 0002 00AF     		add	r7, sp, #0
 663              		.cfi_def_cfa_register 7
 569:.\Generated_Source\PSoC4/CYBLE.c ****         CyBle_GappExitDiscoveryMode();
 664              		.loc 1 569 0
 665 0004 FFF7FEFF 		bl	CyBle_GappExitDiscoveryMode
 570:.\Generated_Source\PSoC4/CYBLE.c ****         cyBle_eventHandlerFlag |= CYBLE_STOP_FLAG;
 666              		.loc 1 570 0
 667 0008 044B     		ldr	r3, .L31
 668 000a 1B78     		ldrb	r3, [r3]
 669 000c DBB2     		uxtb	r3, r3
 670 000e 0822     		mov	r2, #8
 671 0010 1343     		orr	r3, r2
 672 0012 DAB2     		uxtb	r2, r3
 673 0014 014B     		ldr	r3, .L31
 674 0016 1A70     		strb	r2, [r3]
 571:.\Generated_Source\PSoC4/CYBLE.c ****     }
 675              		.loc 1 571 0
 676 0018 BD46     		mov	sp, r7
 677              		@ sp needed
 678 001a 80BD     		pop	{r7, pc}
 679              	.L32:
ARM GAS  C:\Users\jdmoussa\AppData\Local\Temp\ccsp17ZB.s 			page 23


 680              		.align	2
 681              	.L31:
 682 001c 00000000 		.word	cyBle_eventHandlerFlag
 683              		.cfi_endproc
 684              	.LFE8:
 685              		.size	CyBle_GappStopAdvertisement, .-CyBle_GappStopAdvertisement
 686              		.section	.text.CyBle_ChangeAdDeviceAddress,"ax",%progbits
 687              		.align	2
 688              		.global	CyBle_ChangeAdDeviceAddress
 689              		.code	16
 690              		.thumb_func
 691              		.type	CyBle_ChangeAdDeviceAddress, %function
 692              	CyBle_ChangeAdDeviceAddress:
 693              	.LFB9:
 572:.\Generated_Source\PSoC4/CYBLE.c ****     
 573:.\Generated_Source\PSoC4/CYBLE.c ****     
 574:.\Generated_Source\PSoC4/CYBLE.c ****     /******************************************************************************
 575:.\Generated_Source\PSoC4/CYBLE.c ****     ##Function Name: CyBle_ChangeAdDeviceAddress
 576:.\Generated_Source\PSoC4/CYBLE.c ****     *******************************************************************************
 577:.\Generated_Source\PSoC4/CYBLE.c **** 
 578:.\Generated_Source\PSoC4/CYBLE.c ****     Summary:
 579:.\Generated_Source\PSoC4/CYBLE.c ****      This API is used to set the Bluetooth device address into the advertisement 
 580:.\Generated_Source\PSoC4/CYBLE.c ****      or scan response data structure.
 581:.\Generated_Source\PSoC4/CYBLE.c **** 
 582:.\Generated_Source\PSoC4/CYBLE.c ****     Parameters:
 583:.\Generated_Source\PSoC4/CYBLE.c ****      bdAddr: Bluetooth Device address. The variable is of type CYBLE_GAP_BD_ADDR_T
 584:.\Generated_Source\PSoC4/CYBLE.c ****      uint8 dest: 0 - avrevtisement structure, not zero value selects scan response
 585:.\Generated_Source\PSoC4/CYBLE.c ****                  structure.
 586:.\Generated_Source\PSoC4/CYBLE.c **** 
 587:.\Generated_Source\PSoC4/CYBLE.c ****     Return:
 588:.\Generated_Source\PSoC4/CYBLE.c ****      None
 589:.\Generated_Source\PSoC4/CYBLE.c ****  
 590:.\Generated_Source\PSoC4/CYBLE.c ****     ******************************************************************************/
 591:.\Generated_Source\PSoC4/CYBLE.c ****     void CyBle_ChangeAdDeviceAddress(const CYBLE_GAP_BD_ADDR_T* bdAddr, uint8 dest)
 592:.\Generated_Source\PSoC4/CYBLE.c ****     {
 694              		.loc 1 592 0
 695              		.cfi_startproc
 696 0000 80B5     		push	{r7, lr}
 697              		.cfi_def_cfa_offset 8
 698              		.cfi_offset 7, -8
 699              		.cfi_offset 14, -4
 700 0002 84B0     		sub	sp, sp, #16
 701              		.cfi_def_cfa_offset 24
 702 0004 00AF     		add	r7, sp, #0
 703              		.cfi_def_cfa_register 7
 704 0006 7860     		str	r0, [r7, #4]
 705 0008 0A1C     		mov	r2, r1
 706 000a FB1C     		add	r3, r7, #3
 707 000c 1A70     		strb	r2, [r3]
 593:.\Generated_Source\PSoC4/CYBLE.c ****         uint8 i;
 594:.\Generated_Source\PSoC4/CYBLE.c ****         uint8 *destBuffer = NULL;
 708              		.loc 1 594 0
 709 000e 0023     		mov	r3, #0
 710 0010 BB60     		str	r3, [r7, #8]
 595:.\Generated_Source\PSoC4/CYBLE.c ****         
 596:.\Generated_Source\PSoC4/CYBLE.c ****         if(dest == 0u)      /* Destination - advertising structure */
 597:.\Generated_Source\PSoC4/CYBLE.c ****         {
ARM GAS  C:\Users\jdmoussa\AppData\Local\Temp\ccsp17ZB.s 			page 24


 598:.\Generated_Source\PSoC4/CYBLE.c ****             #ifdef CYBLE_ADV_PKT_INDEX_BLUETOOTH_DEVICE_ADDRESS
 599:.\Generated_Source\PSoC4/CYBLE.c ****                 destBuffer = &cyBle_discoveryData.advData[CYBLE_ADV_PKT_INDEX_BLUETOOTH_DEVICE_ADDR
 600:.\Generated_Source\PSoC4/CYBLE.c ****             #endif /* CYBLE_ADV_PKT_INDEX_BLUETOOTH_DEVICE_ADDRESS */
 601:.\Generated_Source\PSoC4/CYBLE.c ****         }
 602:.\Generated_Source\PSoC4/CYBLE.c ****         else                /* Destination - scan response structure */
 603:.\Generated_Source\PSoC4/CYBLE.c ****         {
 604:.\Generated_Source\PSoC4/CYBLE.c ****             #ifdef CYBLE_SCN_PKT_INDEX_BLUETOOTH_DEVICE_ADDRESS
 605:.\Generated_Source\PSoC4/CYBLE.c ****                 destBuffer = &cyBle_scanRspData.scanRspData[CYBLE_SCN_PKT_INDEX_BLUETOOTH_DEVICE_AD
 606:.\Generated_Source\PSoC4/CYBLE.c ****             #endif /* CYBLE_SCN_PKT_INDEX_BLUETOOTH_DEVICE_ADDRESS */    
 607:.\Generated_Source\PSoC4/CYBLE.c ****         }
 608:.\Generated_Source\PSoC4/CYBLE.c ****         
 609:.\Generated_Source\PSoC4/CYBLE.c ****         if(destBuffer != NULL)
 711              		.loc 1 609 0
 712 0012 BB68     		ldr	r3, [r7, #8]
 713 0014 002B     		cmp	r3, #0
 714 0016 20D0     		beq	.L33
 610:.\Generated_Source\PSoC4/CYBLE.c ****         {
 611:.\Generated_Source\PSoC4/CYBLE.c ****             /* Update Device Address type */
 612:.\Generated_Source\PSoC4/CYBLE.c ****             destBuffer[0u] = bdAddr->type;
 715              		.loc 1 612 0
 716 0018 7B68     		ldr	r3, [r7, #4]
 717 001a 9A79     		ldrb	r2, [r3, #6]
 718 001c BB68     		ldr	r3, [r7, #8]
 719 001e 1A70     		strb	r2, [r3]
 613:.\Generated_Source\PSoC4/CYBLE.c ****             
 614:.\Generated_Source\PSoC4/CYBLE.c ****             for(i = 0; i < CYBLE_GAP_BD_ADDR_SIZE; i++)
 720              		.loc 1 614 0
 721 0020 3B1C     		mov	r3, r7
 722 0022 0F33     		add	r3, r3, #15
 723 0024 0022     		mov	r2, #0
 724 0026 1A70     		strb	r2, [r3]
 725 0028 12E0     		b	.L35
 726              	.L36:
 615:.\Generated_Source\PSoC4/CYBLE.c ****             {
 616:.\Generated_Source\PSoC4/CYBLE.c ****                 destBuffer[i + 1u] = bdAddr->bdAddr[i];
 727              		.loc 1 616 0 discriminator 2
 728 002a 3B1C     		mov	r3, r7
 729 002c 0F33     		add	r3, r3, #15
 730 002e 1B78     		ldrb	r3, [r3]
 731 0030 0133     		add	r3, r3, #1
 732 0032 BA68     		ldr	r2, [r7, #8]
 733 0034 D318     		add	r3, r2, r3
 734 0036 3A1C     		mov	r2, r7
 735 0038 0F32     		add	r2, r2, #15
 736 003a 1278     		ldrb	r2, [r2]
 737 003c 7968     		ldr	r1, [r7, #4]
 738 003e 8A5C     		ldrb	r2, [r1, r2]
 739 0040 1A70     		strb	r2, [r3]
 614:.\Generated_Source\PSoC4/CYBLE.c ****             for(i = 0; i < CYBLE_GAP_BD_ADDR_SIZE; i++)
 740              		.loc 1 614 0 discriminator 2
 741 0042 3B1C     		mov	r3, r7
 742 0044 0F33     		add	r3, r3, #15
 743 0046 1A78     		ldrb	r2, [r3]
 744 0048 3B1C     		mov	r3, r7
 745 004a 0F33     		add	r3, r3, #15
 746 004c 0132     		add	r2, r2, #1
 747 004e 1A70     		strb	r2, [r3]
ARM GAS  C:\Users\jdmoussa\AppData\Local\Temp\ccsp17ZB.s 			page 25


 748              	.L35:
 614:.\Generated_Source\PSoC4/CYBLE.c ****             for(i = 0; i < CYBLE_GAP_BD_ADDR_SIZE; i++)
 749              		.loc 1 614 0 is_stmt 0 discriminator 1
 750 0050 3B1C     		mov	r3, r7
 751 0052 0F33     		add	r3, r3, #15
 752 0054 1B78     		ldrb	r3, [r3]
 753 0056 052B     		cmp	r3, #5
 754 0058 E7D9     		bls	.L36
 755              	.L33:
 617:.\Generated_Source\PSoC4/CYBLE.c ****             }
 618:.\Generated_Source\PSoC4/CYBLE.c ****         }
 619:.\Generated_Source\PSoC4/CYBLE.c ****     }
 756              		.loc 1 619 0 is_stmt 1
 757 005a BD46     		mov	sp, r7
 758 005c 04B0     		add	sp, sp, #16
 759              		@ sp needed
 760 005e 80BD     		pop	{r7, pc}
 761              		.cfi_endproc
 762              	.LFE9:
 763              		.size	CyBle_ChangeAdDeviceAddress, .-CyBle_ChangeAdDeviceAddress
 764              		.section	.text.CyBle_ChangeAdLocalName,"ax",%progbits
 765              		.align	2
 766              		.code	16
 767              		.thumb_func
 768              		.type	CyBle_ChangeAdLocalName, %function
 769              	CyBle_ChangeAdLocalName:
 770              	.LFB10:
 620:.\Generated_Source\PSoC4/CYBLE.c ****   
 621:.\Generated_Source\PSoC4/CYBLE.c **** #endif /* CYBLE_GAP_ROLE_PERIPHERAL || CYBLE_GAP_ROLE_BROADCASTER */
 622:.\Generated_Source\PSoC4/CYBLE.c **** 
 623:.\Generated_Source\PSoC4/CYBLE.c **** 
 624:.\Generated_Source\PSoC4/CYBLE.c **** #if(CYBLE_GAP_ROLE_CENTRAL || CYBLE_GAP_ROLE_OBSERVER)
 625:.\Generated_Source\PSoC4/CYBLE.c **** 
 626:.\Generated_Source\PSoC4/CYBLE.c ****     /******************************************************************************
 627:.\Generated_Source\PSoC4/CYBLE.c ****     ##Function Name: CyBle_GapcStartScan
 628:.\Generated_Source\PSoC4/CYBLE.c ****     *******************************************************************************
 629:.\Generated_Source\PSoC4/CYBLE.c ****     
 630:.\Generated_Source\PSoC4/CYBLE.c ****      Summary:
 631:.\Generated_Source\PSoC4/CYBLE.c ****       This function is used for discovering GAP peripheral devices that are 
 632:.\Generated_Source\PSoC4/CYBLE.c ****       available for connection. It performs the scanning routine using the 
 633:.\Generated_Source\PSoC4/CYBLE.c ****       parameters entered in the component's customizer.
 634:.\Generated_Source\PSoC4/CYBLE.c ****       
 635:.\Generated_Source\PSoC4/CYBLE.c ****       As soon as the discovery operation starts, CYBLE_EVT_GAPC_SCAN_START_STOP 
 636:.\Generated_Source\PSoC4/CYBLE.c ****       event is generated. The CYBLE_EVT_GAPC_SCAN_PROGRESS_RESULT event is 
 637:.\Generated_Source\PSoC4/CYBLE.c ****       generated when a GAP peripheral device is located. There are three discovery
 638:.\Generated_Source\PSoC4/CYBLE.c ****       procedures can be selected in the customizer's GUI:
 639:.\Generated_Source\PSoC4/CYBLE.c ****       
 640:.\Generated_Source\PSoC4/CYBLE.c ****       * Observation procedure: A device performing the observer role receives only
 641:.\Generated_Source\PSoC4/CYBLE.c ****                                advertisement data from devices irrespective of 
 642:.\Generated_Source\PSoC4/CYBLE.c ****                                their discoverable mode settings. Advertisement 
 643:.\Generated_Source\PSoC4/CYBLE.c ****                                data received is provided by the event,      
 644:.\Generated_Source\PSoC4/CYBLE.c ****                                CYBLE_EVT_GAPC_SCAN_PROGRESS_RESULT. This procedure
 645:.\Generated_Source\PSoC4/CYBLE.c ****                                requires the scanType sub parameter to be passive
 646:.\Generated_Source\PSoC4/CYBLE.c ****                                scanning. 
 647:.\Generated_Source\PSoC4/CYBLE.c ****       
 648:.\Generated_Source\PSoC4/CYBLE.c ****       * Limited Discovery procedure: A device performing the limited discovery
 649:.\Generated_Source\PSoC4/CYBLE.c ****                                      procedure receives advertisement data and 
ARM GAS  C:\Users\jdmoussa\AppData\Local\Temp\ccsp17ZB.s 			page 26


 650:.\Generated_Source\PSoC4/CYBLE.c ****                                      scan# response data from devices in the 
 651:.\Generated_Source\PSoC4/CYBLE.c ****                                      limited discoverable mode only. Received data
 652:.\Generated_Source\PSoC4/CYBLE.c ****                                      is provided by the event, 
 653:.\Generated_Source\PSoC4/CYBLE.c ****                                      CYBLE_EVT_GAPC_SCAN_PROGRESS_RESULT. This 
 654:.\Generated_Source\PSoC4/CYBLE.c ****                                      procedure requires the scanType sub-parameter 
 655:.\Generated_Source\PSoC4/CYBLE.c ****                                      to be active scanning.
 656:.\Generated_Source\PSoC4/CYBLE.c ****       
 657:.\Generated_Source\PSoC4/CYBLE.c ****       * General Discovery procedure: A device performing the general discovery 
 658:.\Generated_Source\PSoC4/CYBLE.c ****                                      procedure receives the advertisement data and
 659:.\Generated_Source\PSoC4/CYBLE.c ****                                      scan response data from devices in both 
 660:.\Generated_Source\PSoC4/CYBLE.c ****                                      limited discoverable mode and the general 
 661:.\Generated_Source\PSoC4/CYBLE.c ****                                      discoverable mode. Received data is provided
 662:.\Generated_Source\PSoC4/CYBLE.c ****                                      by the event,
 663:.\Generated_Source\PSoC4/CYBLE.c ****                                      CYBLE_EVT_GAPC_SCAN_PROGRESS_RESULT. This 
 664:.\Generated_Source\PSoC4/CYBLE.c ****                                      procedure requires the scanType sub-parameter
 665:.\Generated_Source\PSoC4/CYBLE.c ****                                      to be active scanning.
 666:.\Generated_Source\PSoC4/CYBLE.c ****       
 667:.\Generated_Source\PSoC4/CYBLE.c ****       Every Advertisement / Scan response packet received results in a new event, 
 668:.\Generated_Source\PSoC4/CYBLE.c ****       CYBLE_EVT_GAPC_SCAN_PROGRESS_RESULT.
 669:.\Generated_Source\PSoC4/CYBLE.c ****       If 'scanTo' sub-parameter is a non-zero value, then upon commencement of 
 670:.\Generated_Source\PSoC4/CYBLE.c ****       discovery procedure and elapsed time = 'scanTo', CYBLE_EVT_TIMEOUT event
 671:.\Generated_Source\PSoC4/CYBLE.c ****       is generated with the event parameter indicating CYBLE_GAP_SCAN_TO.
 672:.\Generated_Source\PSoC4/CYBLE.c ****       Possible generated events are:
 673:.\Generated_Source\PSoC4/CYBLE.c ****       * CYBLE_EVT_GAPC_SCAN_START_STOP: If a device started or stopped scanning. 
 674:.\Generated_Source\PSoC4/CYBLE.c ****                                         Use CyBle_GetState() to determine the 
 675:.\Generated_Source\PSoC4/CYBLE.c ****                                         state. Sequential scanning could be 
 676:.\Generated_Source\PSoC4/CYBLE.c ****                                         started when CYBLE_STATE_DISCONNECTED 
 677:.\Generated_Source\PSoC4/CYBLE.c ****                                         state is returned. 
 678:.\Generated_Source\PSoC4/CYBLE.c ****       * CYBLE_EVT_GAPC_SCAN_PROGRESS_RESULT 
 679:.\Generated_Source\PSoC4/CYBLE.c ****       * CYBLE_EVT_TIMEOUT (CYBLE_GAP_SCAN_TO)
 680:.\Generated_Source\PSoC4/CYBLE.c ****     
 681:.\Generated_Source\PSoC4/CYBLE.c ****      Parameters:
 682:.\Generated_Source\PSoC4/CYBLE.c ****       uint8 scanningIntervalType:  Fast or slow scanning interval with
 683:.\Generated_Source\PSoC4/CYBLE.c ****           timings entered in Scan settings section of the customiser.
 684:.\Generated_Source\PSoC4/CYBLE.c ****     	  * CYBLE_SCANNING_FAST   0x00u
 685:.\Generated_Source\PSoC4/CYBLE.c ****     	  * CYBLE_SCANNING_SLOW   0x01u
 686:.\Generated_Source\PSoC4/CYBLE.c ****     	  * CYBLE_SCANNING_CUSTOM 0x02u
 687:.\Generated_Source\PSoC4/CYBLE.c ****     
 688:.\Generated_Source\PSoC4/CYBLE.c ****     Return:
 689:.\Generated_Source\PSoC4/CYBLE.c ****      CYBLE_API_RESULT_T : Return value indicates if the function succeeded or
 690:.\Generated_Source\PSoC4/CYBLE.c ****      failed. Following are the possible error codes.
 691:.\Generated_Source\PSoC4/CYBLE.c ****      <table>
 692:.\Generated_Source\PSoC4/CYBLE.c ****       Errors codes                        Values  Description
 693:.\Generated_Source\PSoC4/CYBLE.c ****       ------------                        ------  -----------
 694:.\Generated_Source\PSoC4/CYBLE.c ****       CYBLE_ERROR_OK                      0x0000  On successful operation.
 695:.\Generated_Source\PSoC4/CYBLE.c ****       CYBLE_ERROR_STACK_INTERNAL          0x0003  An error occurred in the 
 696:.\Generated_Source\PSoC4/CYBLE.c ****                                                    BLE stack.
 697:.\Generated_Source\PSoC4/CYBLE.c ****      </table>
 698:.\Generated_Source\PSoC4/CYBLE.c ****      
 699:.\Generated_Source\PSoC4/CYBLE.c ****     ******************************************************************************/
 700:.\Generated_Source\PSoC4/CYBLE.c ****     CYBLE_API_RESULT_T CyBle_GapcStartScan(uint8 scanningIntervalType)
 701:.\Generated_Source\PSoC4/CYBLE.c ****     {
 702:.\Generated_Source\PSoC4/CYBLE.c ****         CYBLE_API_RESULT_T apiResult;
 703:.\Generated_Source\PSoC4/CYBLE.c **** 
 704:.\Generated_Source\PSoC4/CYBLE.c ****         if(scanningIntervalType == CYBLE_SCANNING_FAST)
 705:.\Generated_Source\PSoC4/CYBLE.c ****         {
 706:.\Generated_Source\PSoC4/CYBLE.c ****             cyBle_discoveryInfo.scanTo = CYBLE_FAST_SCAN_TIMEOUT;
ARM GAS  C:\Users\jdmoussa\AppData\Local\Temp\ccsp17ZB.s 			page 27


 707:.\Generated_Source\PSoC4/CYBLE.c ****             cyBle_discoveryInfo.scanIntv = CYBLE_FAST_SCAN_INTERVAL;
 708:.\Generated_Source\PSoC4/CYBLE.c ****             cyBle_discoveryInfo.scanWindow = CYBLE_FAST_SCAN_WINDOW;
 709:.\Generated_Source\PSoC4/CYBLE.c ****         }
 710:.\Generated_Source\PSoC4/CYBLE.c ****         else if(scanningIntervalType == CYBLE_SCANNING_SLOW)
 711:.\Generated_Source\PSoC4/CYBLE.c ****         {
 712:.\Generated_Source\PSoC4/CYBLE.c ****             cyBle_discoveryInfo.scanTo = CYBLE_SLOW_SCAN_TIMEOUT;
 713:.\Generated_Source\PSoC4/CYBLE.c ****             cyBle_discoveryInfo.scanIntv = CYBLE_SLOW_SCAN_INTERVAL;
 714:.\Generated_Source\PSoC4/CYBLE.c ****             cyBle_discoveryInfo.scanWindow = CYBLE_SLOW_SCAN_WINDOW;
 715:.\Generated_Source\PSoC4/CYBLE.c ****         }       
 716:.\Generated_Source\PSoC4/CYBLE.c ****         else /* Do not update scanning intervals */
 717:.\Generated_Source\PSoC4/CYBLE.c ****         {
 718:.\Generated_Source\PSoC4/CYBLE.c ****         }
 719:.\Generated_Source\PSoC4/CYBLE.c ****         
 720:.\Generated_Source\PSoC4/CYBLE.c ****         cyBle_scanningIntervalType = scanningIntervalType;
 721:.\Generated_Source\PSoC4/CYBLE.c ****         apiResult = CyBle_GapcStartDiscovery(&cyBle_discoveryInfo);
 722:.\Generated_Source\PSoC4/CYBLE.c ****     
 723:.\Generated_Source\PSoC4/CYBLE.c ****         if(CYBLE_ERROR_OK == apiResult)
 724:.\Generated_Source\PSoC4/CYBLE.c ****         {
 725:.\Generated_Source\PSoC4/CYBLE.c ****             cyBle_eventHandlerFlag |= CYBLE_START_FLAG;
 726:.\Generated_Source\PSoC4/CYBLE.c ****         }
 727:.\Generated_Source\PSoC4/CYBLE.c ****        
 728:.\Generated_Source\PSoC4/CYBLE.c ****         return (apiResult);
 729:.\Generated_Source\PSoC4/CYBLE.c ****     }
 730:.\Generated_Source\PSoC4/CYBLE.c ****     
 731:.\Generated_Source\PSoC4/CYBLE.c ****     
 732:.\Generated_Source\PSoC4/CYBLE.c ****     /******************************************************************************
 733:.\Generated_Source\PSoC4/CYBLE.c ****     ##Function Name: CyBle_GapcStopScan
 734:.\Generated_Source\PSoC4/CYBLE.c ****     *******************************************************************************
 735:.\Generated_Source\PSoC4/CYBLE.c ****     
 736:.\Generated_Source\PSoC4/CYBLE.c ****      Summary:
 737:.\Generated_Source\PSoC4/CYBLE.c ****       This function used to stop the discovery of devices. On stopping discovery
 738:.\Generated_Source\PSoC4/CYBLE.c ****       operation, CYBLE_EVT_GAPC_SCAN_START_STOP event is generated. Application
 739:.\Generated_Source\PSoC4/CYBLE.c ****       layer needs to keep track of the function call made before receiving this
 740:.\Generated_Source\PSoC4/CYBLE.c ****       event to associate this event with either the start or stop discovery
 741:.\Generated_Source\PSoC4/CYBLE.c ****       function.
 742:.\Generated_Source\PSoC4/CYBLE.c ****     
 743:.\Generated_Source\PSoC4/CYBLE.c ****       Possible events generated are:
 744:.\Generated_Source\PSoC4/CYBLE.c ****        * CYBLE_EVT_GAPC_SCAN_START_STOP
 745:.\Generated_Source\PSoC4/CYBLE.c ****     
 746:.\Generated_Source\PSoC4/CYBLE.c ****      Parameters:
 747:.\Generated_Source\PSoC4/CYBLE.c ****       None
 748:.\Generated_Source\PSoC4/CYBLE.c ****     
 749:.\Generated_Source\PSoC4/CYBLE.c ****      Return:
 750:.\Generated_Source\PSoC4/CYBLE.c ****       None
 751:.\Generated_Source\PSoC4/CYBLE.c ****     
 752:.\Generated_Source\PSoC4/CYBLE.c ****     ******************************************************************************/
 753:.\Generated_Source\PSoC4/CYBLE.c ****     void CyBle_GapcStopScan(void)
 754:.\Generated_Source\PSoC4/CYBLE.c ****     {
 755:.\Generated_Source\PSoC4/CYBLE.c ****         CyBle_GapcStopDiscovery();
 756:.\Generated_Source\PSoC4/CYBLE.c ****         
 757:.\Generated_Source\PSoC4/CYBLE.c ****         cyBle_eventHandlerFlag |= CYBLE_STOP_FLAG;
 758:.\Generated_Source\PSoC4/CYBLE.c ****     }
 759:.\Generated_Source\PSoC4/CYBLE.c **** 
 760:.\Generated_Source\PSoC4/CYBLE.c ****     
 761:.\Generated_Source\PSoC4/CYBLE.c **** #endif /* CYBLE_GAP_ROLE_CENTRAL || CYBLE_GAP_ROLE_OBSERVER */
 762:.\Generated_Source\PSoC4/CYBLE.c **** 
 763:.\Generated_Source\PSoC4/CYBLE.c **** 
ARM GAS  C:\Users\jdmoussa\AppData\Local\Temp\ccsp17ZB.s 			page 28


 764:.\Generated_Source\PSoC4/CYBLE.c **** #if(CYBLE_GAP_ROLE_CENTRAL)
 765:.\Generated_Source\PSoC4/CYBLE.c **** 
 766:.\Generated_Source\PSoC4/CYBLE.c ****     /******************************************************************************
 767:.\Generated_Source\PSoC4/CYBLE.c ****     ##Function Name: CyBle_GapcConnectDevice
 768:.\Generated_Source\PSoC4/CYBLE.c ****     *******************************************************************************
 769:.\Generated_Source\PSoC4/CYBLE.c ****     
 770:.\Generated_Source\PSoC4/CYBLE.c ****     Summary:
 771:.\Generated_Source\PSoC4/CYBLE.c ****      This function is used to send a connection request to the remote device with
 772:.\Generated_Source\PSoC4/CYBLE.c ****      the connection parameters set in the component customizer. This function needs
 773:.\Generated_Source\PSoC4/CYBLE.c ****      to be called only once after the target device is discovered by 
 774:.\Generated_Source\PSoC4/CYBLE.c ****      CyBle_GapcStartScan() and further scanning has stopped. Scanning is 
 775:.\Generated_Source\PSoC4/CYBLE.c ****      successfully stopped on invoking CyBle_GapcStopScan() and then receiving the
 776:.\Generated_Source\PSoC4/CYBLE.c ****      event CYBLE_EVT_GAPC_SCAN_START_STOP with sub-parameter 'success' = 0x01u.
 777:.\Generated_Source\PSoC4/CYBLE.c ****      
 778:.\Generated_Source\PSoC4/CYBLE.c ****      On successful connection, the following events are generated at the GAP 
 779:.\Generated_Source\PSoC4/CYBLE.c ****      Central device (as well as the GAP Peripheral device), in the following order.
 780:.\Generated_Source\PSoC4/CYBLE.c ****      * CYBLE_EVT_GATT_CONNECT_IND
 781:.\Generated_Source\PSoC4/CYBLE.c ****      * CYBLE_EVT_GAP_DEVICE_CONNECTED
 782:.\Generated_Source\PSoC4/CYBLE.c ****  
 783:.\Generated_Source\PSoC4/CYBLE.c ****      A procedure is considered to have timed out if a connection response packet is 
 784:.\Generated_Source\PSoC4/CYBLE.c ****      not received within time set by cyBle_connectingTimeout global variable
 785:.\Generated_Source\PSoC4/CYBLE.c ****      (30 seconds by default). CYBLE_EVT_TIMEOUT event with CYBLE_GENERIC_TO parameter
 786:.\Generated_Source\PSoC4/CYBLE.c ****      will indicate about connection procedure timeout. Connection will automatically
 787:.\Generated_Source\PSoC4/CYBLE.c ****      be cancelled and state will be changed to CYBLE_STATE_DISCONNECTED.
 788:.\Generated_Source\PSoC4/CYBLE.c ****     
 789:.\Generated_Source\PSoC4/CYBLE.c ****     Parameters:
 790:.\Generated_Source\PSoC4/CYBLE.c ****      const CYBLE_GAP_BD_ADDR_T address: The device address of the remote device to 
 791:.\Generated_Source\PSoC4/CYBLE.c ****                                         connect to. 
 792:.\Generated_Source\PSoC4/CYBLE.c ****      timeout: Timeout for which timer to be started in seconds.
 793:.\Generated_Source\PSoC4/CYBLE.c ****  
 794:.\Generated_Source\PSoC4/CYBLE.c ****     Return:
 795:.\Generated_Source\PSoC4/CYBLE.c ****      CYBLE_API_RESULT_T : Return value indicates if the function succeeded or 
 796:.\Generated_Source\PSoC4/CYBLE.c ****      failed. Following are the possible error codes.
 797:.\Generated_Source\PSoC4/CYBLE.c ****      <table>
 798:.\Generated_Source\PSoC4/CYBLE.c ****       Errors codes                        Description
 799:.\Generated_Source\PSoC4/CYBLE.c ****       ------------                        -----------
 800:.\Generated_Source\PSoC4/CYBLE.c ****       CYBLE_ERROR_OK                      On successful operation.
 801:.\Generated_Source\PSoC4/CYBLE.c ****       CYBLE_ERROR_STACK_INTERNAL          On error occurred in the 
 802:.\Generated_Source\PSoC4/CYBLE.c ****                                            BLE stack.
 803:.\Generated_Source\PSoC4/CYBLE.c ****       CYBLE_ERROR_INVALID_PARAMETER       On specifying NULL as input
 804:.\Generated_Source\PSoC4/CYBLE.c ****                                            parameter for 'scanInfo' or if
 805:.\Generated_Source\PSoC4/CYBLE.c ****                                            any element with in 'scanInfo'
 806:.\Generated_Source\PSoC4/CYBLE.c ****                                            has an invalid value.
 807:.\Generated_Source\PSoC4/CYBLE.c ****      </table>
 808:.\Generated_Source\PSoC4/CYBLE.c ****  
 809:.\Generated_Source\PSoC4/CYBLE.c ****     ******************************************************************************/
 810:.\Generated_Source\PSoC4/CYBLE.c ****     CYBLE_API_RESULT_T CyBle_GapcConnectDevice(const CYBLE_GAP_BD_ADDR_T * address)
 811:.\Generated_Source\PSoC4/CYBLE.c ****     {
 812:.\Generated_Source\PSoC4/CYBLE.c ****         CYBLE_API_RESULT_T apiResult;
 813:.\Generated_Source\PSoC4/CYBLE.c ****         uint8 i;
 814:.\Generated_Source\PSoC4/CYBLE.c **** 
 815:.\Generated_Source\PSoC4/CYBLE.c ****         if(CYBLE_STATE_DISCONNECTED != CyBle_GetState())
 816:.\Generated_Source\PSoC4/CYBLE.c ****         {
 817:.\Generated_Source\PSoC4/CYBLE.c ****             apiResult = CYBLE_ERROR_INVALID_STATE;
 818:.\Generated_Source\PSoC4/CYBLE.c ****         }
 819:.\Generated_Source\PSoC4/CYBLE.c ****         else if(address == NULL)
 820:.\Generated_Source\PSoC4/CYBLE.c ****         {
ARM GAS  C:\Users\jdmoussa\AppData\Local\Temp\ccsp17ZB.s 			page 29


 821:.\Generated_Source\PSoC4/CYBLE.c ****             apiResult = CYBLE_ERROR_INVALID_PARAMETER;
 822:.\Generated_Source\PSoC4/CYBLE.c ****         }
 823:.\Generated_Source\PSoC4/CYBLE.c ****         else
 824:.\Generated_Source\PSoC4/CYBLE.c ****         {
 825:.\Generated_Source\PSoC4/CYBLE.c ****             for(i = 0u; i < CYBLE_GAP_BD_ADDR_SIZE; i++)
 826:.\Generated_Source\PSoC4/CYBLE.c ****             {
 827:.\Generated_Source\PSoC4/CYBLE.c ****                 cyBle_connectionParameters.peerBdAddr[i] = address->bdAddr[i];
 828:.\Generated_Source\PSoC4/CYBLE.c ****             }
 829:.\Generated_Source\PSoC4/CYBLE.c ****             cyBle_connectionParameters.peerAddrType = address -> type;
 830:.\Generated_Source\PSoC4/CYBLE.c ****             apiResult = CyBle_GapcInitConnection(&cyBle_connectionParameters);
 831:.\Generated_Source\PSoC4/CYBLE.c ****             
 832:.\Generated_Source\PSoC4/CYBLE.c ****             if(CYBLE_ERROR_OK == apiResult)
 833:.\Generated_Source\PSoC4/CYBLE.c ****             {
 834:.\Generated_Source\PSoC4/CYBLE.c ****                 CyBle_SetState(CYBLE_STATE_CONNECTING);
 835:.\Generated_Source\PSoC4/CYBLE.c ****                 if(cyBle_connectingTimeout != 0u)
 836:.\Generated_Source\PSoC4/CYBLE.c ****                 {
 837:.\Generated_Source\PSoC4/CYBLE.c ****                     (void)CyBle_StartTimer(cyBle_connectingTimeout);
 838:.\Generated_Source\PSoC4/CYBLE.c ****                 }
 839:.\Generated_Source\PSoC4/CYBLE.c ****             }
 840:.\Generated_Source\PSoC4/CYBLE.c ****         }
 841:.\Generated_Source\PSoC4/CYBLE.c ****         return (apiResult);
 842:.\Generated_Source\PSoC4/CYBLE.c ****     }
 843:.\Generated_Source\PSoC4/CYBLE.c ****     
 844:.\Generated_Source\PSoC4/CYBLE.c **** 
 845:.\Generated_Source\PSoC4/CYBLE.c ****     /******************************************************************************
 846:.\Generated_Source\PSoC4/CYBLE.c ****     ##Function Name: CyBle_GapcCancelDeviceConnection
 847:.\Generated_Source\PSoC4/CYBLE.c ****     *******************************************************************************
 848:.\Generated_Source\PSoC4/CYBLE.c ****     
 849:.\Generated_Source\PSoC4/CYBLE.c ****     Summary:
 850:.\Generated_Source\PSoC4/CYBLE.c ****      This function cancels a previously initiated connection with the remote 
 851:.\Generated_Source\PSoC4/CYBLE.c ****      device. It is a blocking function. No event is generated on calling this 
 852:.\Generated_Source\PSoC4/CYBLE.c ****      function. If the devices are already connected then this function should not
 853:.\Generated_Source\PSoC4/CYBLE.c ****      be used. If you intend to disconnect from an existing connection, the function
 854:.\Generated_Source\PSoC4/CYBLE.c ****      CyBle_GapDisconnect() should be used.
 855:.\Generated_Source\PSoC4/CYBLE.c **** 
 856:.\Generated_Source\PSoC4/CYBLE.c ****     Parameters:
 857:.\Generated_Source\PSoC4/CYBLE.c ****      None
 858:.\Generated_Source\PSoC4/CYBLE.c **** 
 859:.\Generated_Source\PSoC4/CYBLE.c ****     Return:
 860:.\Generated_Source\PSoC4/CYBLE.c ****      CYBLE_API_RESULT_T : Return value indicates if the function succeeded or 
 861:.\Generated_Source\PSoC4/CYBLE.c ****      failed. Following are the possible error codes.
 862:.\Generated_Source\PSoC4/CYBLE.c ****      <table>
 863:.\Generated_Source\PSoC4/CYBLE.c ****       Errors codes                        Description
 864:.\Generated_Source\PSoC4/CYBLE.c ****       ------------                        -----------
 865:.\Generated_Source\PSoC4/CYBLE.c ****       CYBLE_ERROR_OK                      On successful operation.
 866:.\Generated_Source\PSoC4/CYBLE.c ****       CYBLE_ERROR_STACK_INTERNAL          An error occurred in the 
 867:.\Generated_Source\PSoC4/CYBLE.c ****                                            BLE stack.
 868:.\Generated_Source\PSoC4/CYBLE.c ****       CYBLE_ERROR_INVALID_OPERATION       Device is already connected.
 869:.\Generated_Source\PSoC4/CYBLE.c ****      </table>
 870:.\Generated_Source\PSoC4/CYBLE.c ****  
 871:.\Generated_Source\PSoC4/CYBLE.c ****     ******************************************************************************/
 872:.\Generated_Source\PSoC4/CYBLE.c ****     CYBLE_API_RESULT_T CyBle_GapcCancelDeviceConnection(void)
 873:.\Generated_Source\PSoC4/CYBLE.c ****     {
 874:.\Generated_Source\PSoC4/CYBLE.c ****         CYBLE_API_RESULT_T apiResult;
 875:.\Generated_Source\PSoC4/CYBLE.c ****         
 876:.\Generated_Source\PSoC4/CYBLE.c ****         apiResult = CyBle_GapcCancelConnection();
 877:.\Generated_Source\PSoC4/CYBLE.c ****             
ARM GAS  C:\Users\jdmoussa\AppData\Local\Temp\ccsp17ZB.s 			page 30


 878:.\Generated_Source\PSoC4/CYBLE.c ****         if(cyBle_connectingTimeout != 0u)
 879:.\Generated_Source\PSoC4/CYBLE.c ****         {
 880:.\Generated_Source\PSoC4/CYBLE.c ****             (void)CyBle_StopTimer();
 881:.\Generated_Source\PSoC4/CYBLE.c ****         }
 882:.\Generated_Source\PSoC4/CYBLE.c **** 
 883:.\Generated_Source\PSoC4/CYBLE.c ****         if(CYBLE_ERROR_OK == apiResult)
 884:.\Generated_Source\PSoC4/CYBLE.c ****         {
 885:.\Generated_Source\PSoC4/CYBLE.c ****             CyBle_SetState(CYBLE_STATE_DISCONNECTED);
 886:.\Generated_Source\PSoC4/CYBLE.c ****         }
 887:.\Generated_Source\PSoC4/CYBLE.c ****         return (apiResult);
 888:.\Generated_Source\PSoC4/CYBLE.c ****     }    
 889:.\Generated_Source\PSoC4/CYBLE.c **** 
 890:.\Generated_Source\PSoC4/CYBLE.c ****     
 891:.\Generated_Source\PSoC4/CYBLE.c **** #endif /* CYBLE_GAP_ROLE_CENTRAL */
 892:.\Generated_Source\PSoC4/CYBLE.c **** 
 893:.\Generated_Source\PSoC4/CYBLE.c **** 
 894:.\Generated_Source\PSoC4/CYBLE.c **** #if(CYBLE_GATT_ROLE_SERVER)
 895:.\Generated_Source\PSoC4/CYBLE.c **** 
 896:.\Generated_Source\PSoC4/CYBLE.c **** #if(CYBLE_GAP_ROLE_PERIPHERAL)
 897:.\Generated_Source\PSoC4/CYBLE.c **** 
 898:.\Generated_Source\PSoC4/CYBLE.c ****         /******************************************************************************
 899:.\Generated_Source\PSoC4/CYBLE.c ****         ##Function Name: CyBle_ChangeAdLocalName
 900:.\Generated_Source\PSoC4/CYBLE.c ****         *******************************************************************************
 901:.\Generated_Source\PSoC4/CYBLE.c ****         Summary:
 902:.\Generated_Source\PSoC4/CYBLE.c ****          This API is used to set the local device name in the advertisement or scan 
 903:.\Generated_Source\PSoC4/CYBLE.c ****          response data structure.
 904:.\Generated_Source\PSoC4/CYBLE.c **** 
 905:.\Generated_Source\PSoC4/CYBLE.c ****         Parameters:
 906:.\Generated_Source\PSoC4/CYBLE.c ****          char8 name: The local device name string to be set in advertisement data 
 907:.\Generated_Source\PSoC4/CYBLE.c ****                    structure.
 908:.\Generated_Source\PSoC4/CYBLE.c ****          uint8 dest: 0 - avrevtisement structure, not zero value selects scan response
 909:.\Generated_Source\PSoC4/CYBLE.c ****                      structure.
 910:.\Generated_Source\PSoC4/CYBLE.c **** 
 911:.\Generated_Source\PSoC4/CYBLE.c ****         Return:
 912:.\Generated_Source\PSoC4/CYBLE.c ****          None
 913:.\Generated_Source\PSoC4/CYBLE.c ****      
 914:.\Generated_Source\PSoC4/CYBLE.c ****         ******************************************************************************/
 915:.\Generated_Source\PSoC4/CYBLE.c ****         static void CyBle_ChangeAdLocalName(const char8 name[], uint8 dest)
 916:.\Generated_Source\PSoC4/CYBLE.c ****         {
 771              		.loc 1 916 0
 772              		.cfi_startproc
 773 0000 80B5     		push	{r7, lr}
 774              		.cfi_def_cfa_offset 8
 775              		.cfi_offset 7, -8
 776              		.cfi_offset 14, -4
 777 0002 86B0     		sub	sp, sp, #24
 778              		.cfi_def_cfa_offset 32
 779 0004 00AF     		add	r7, sp, #0
 780              		.cfi_def_cfa_register 7
 781 0006 7860     		str	r0, [r7, #4]
 782 0008 0A1C     		mov	r2, r1
 783 000a FB1C     		add	r3, r7, #3
 784 000c 1A70     		strb	r2, [r3]
 917:.\Generated_Source\PSoC4/CYBLE.c ****             uint8 i;
 918:.\Generated_Source\PSoC4/CYBLE.c ****             uint8 flag = 0u;
 785              		.loc 1 918 0
 786 000e 3B1C     		mov	r3, r7
ARM GAS  C:\Users\jdmoussa\AppData\Local\Temp\ccsp17ZB.s 			page 31


 787 0010 1633     		add	r3, r3, #22
 788 0012 0022     		mov	r2, #0
 789 0014 1A70     		strb	r2, [r3]
 919:.\Generated_Source\PSoC4/CYBLE.c ****             uint8 adLength = 0u;
 790              		.loc 1 919 0
 791 0016 3B1C     		mov	r3, r7
 792 0018 1533     		add	r3, r3, #21
 793 001a 0022     		mov	r2, #0
 794 001c 1A70     		strb	r2, [r3]
 920:.\Generated_Source\PSoC4/CYBLE.c ****             uint8 byteCounter = 0u;
 795              		.loc 1 920 0
 796 001e 3B1C     		mov	r3, r7
 797 0020 1433     		add	r3, r3, #20
 798 0022 0022     		mov	r2, #0
 799 0024 1A70     		strb	r2, [r3]
 921:.\Generated_Source\PSoC4/CYBLE.c ****             uint8 *destBuffer;
 922:.\Generated_Source\PSoC4/CYBLE.c ****             uint8 maxLength;
 923:.\Generated_Source\PSoC4/CYBLE.c ****             
 924:.\Generated_Source\PSoC4/CYBLE.c ****             if(dest == 0u)      /* Destination - advertising structure */
 800              		.loc 1 924 0
 801 0026 FB1C     		add	r3, r7, #3
 802 0028 1B78     		ldrb	r3, [r3]
 803 002a 002B     		cmp	r3, #0
 804 002c 07D1     		bne	.L38
 925:.\Generated_Source\PSoC4/CYBLE.c ****             {
 926:.\Generated_Source\PSoC4/CYBLE.c ****                 destBuffer = cyBle_discoveryData.advData;
 805              		.loc 1 926 0
 806 002e 5A4B     		ldr	r3, .L53
 807 0030 3B61     		str	r3, [r7, #16]
 927:.\Generated_Source\PSoC4/CYBLE.c ****                 maxLength = cyBle_discoveryData.advDataLen;
 808              		.loc 1 927 0
 809 0032 3B1C     		mov	r3, r7
 810 0034 0F33     		add	r3, r3, #15
 811 0036 584A     		ldr	r2, .L53
 812 0038 D27F     		ldrb	r2, [r2, #31]
 813 003a 1A70     		strb	r2, [r3]
 928:.\Generated_Source\PSoC4/CYBLE.c ****             }
 929:.\Generated_Source\PSoC4/CYBLE.c ****             else                /* Destination - scan response structure */
 930:.\Generated_Source\PSoC4/CYBLE.c ****             {
 931:.\Generated_Source\PSoC4/CYBLE.c ****                 destBuffer = cyBle_scanRspData.scanRspData;
 932:.\Generated_Source\PSoC4/CYBLE.c ****                 maxLength = cyBle_scanRspData.scanRspDataLen;
 933:.\Generated_Source\PSoC4/CYBLE.c ****             }
 934:.\Generated_Source\PSoC4/CYBLE.c ****             
 935:.\Generated_Source\PSoC4/CYBLE.c ****             while((byteCounter < maxLength) && (0u == flag))
 814              		.loc 1 935 0
 815 003c 3DE0     		b	.L40
 816              	.L38:
 931:.\Generated_Source\PSoC4/CYBLE.c ****                 destBuffer = cyBle_scanRspData.scanRspData;
 817              		.loc 1 931 0
 818 003e 574B     		ldr	r3, .L53+4
 819 0040 3B61     		str	r3, [r7, #16]
 932:.\Generated_Source\PSoC4/CYBLE.c ****                 maxLength = cyBle_scanRspData.scanRspDataLen;
 820              		.loc 1 932 0
 821 0042 3B1C     		mov	r3, r7
 822 0044 0F33     		add	r3, r3, #15
 823 0046 554A     		ldr	r2, .L53+4
 824 0048 D27F     		ldrb	r2, [r2, #31]
ARM GAS  C:\Users\jdmoussa\AppData\Local\Temp\ccsp17ZB.s 			page 32


 825 004a 1A70     		strb	r2, [r3]
 826              		.loc 1 935 0
 827 004c 35E0     		b	.L40
 828              	.L46:
 936:.\Generated_Source\PSoC4/CYBLE.c ****             {
 937:.\Generated_Source\PSoC4/CYBLE.c ****                 adLength = destBuffer[byteCounter];
 829              		.loc 1 937 0
 830 004e 3B1C     		mov	r3, r7
 831 0050 1433     		add	r3, r3, #20
 832 0052 1B78     		ldrb	r3, [r3]
 833 0054 3A69     		ldr	r2, [r7, #16]
 834 0056 D218     		add	r2, r2, r3
 835 0058 3B1C     		mov	r3, r7
 836 005a 1533     		add	r3, r3, #21
 837 005c 1278     		ldrb	r2, [r2]
 838 005e 1A70     		strb	r2, [r3]
 938:.\Generated_Source\PSoC4/CYBLE.c ****                 
 939:.\Generated_Source\PSoC4/CYBLE.c ****                 if(0u != adLength)
 839              		.loc 1 939 0
 840 0060 3B1C     		mov	r3, r7
 841 0062 1533     		add	r3, r3, #21
 842 0064 1B78     		ldrb	r3, [r3]
 843 0066 002B     		cmp	r3, #0
 844 0068 26D0     		beq	.L41
 940:.\Generated_Source\PSoC4/CYBLE.c ****                 {
 941:.\Generated_Source\PSoC4/CYBLE.c ****                     /* Increment byte counter so it can point to AD type */
 942:.\Generated_Source\PSoC4/CYBLE.c ****                     byteCounter++;
 845              		.loc 1 942 0
 846 006a 3B1C     		mov	r3, r7
 847 006c 1433     		add	r3, r3, #20
 848 006e 1A78     		ldrb	r2, [r3]
 849 0070 3B1C     		mov	r3, r7
 850 0072 1433     		add	r3, r3, #20
 851 0074 0132     		add	r2, r2, #1
 852 0076 1A70     		strb	r2, [r3]
 943:.\Generated_Source\PSoC4/CYBLE.c ****                     
 944:.\Generated_Source\PSoC4/CYBLE.c ****                     if((CYBLE_SHORT_LOCAL_NAME == destBuffer[byteCounter]) || 
 853              		.loc 1 944 0
 854 0078 3B1C     		mov	r3, r7
 855 007a 1433     		add	r3, r3, #20
 856 007c 1B78     		ldrb	r3, [r3]
 857 007e 3A69     		ldr	r2, [r7, #16]
 858 0080 D318     		add	r3, r2, r3
 859 0082 1B78     		ldrb	r3, [r3]
 860 0084 082B     		cmp	r3, #8
 861 0086 07D0     		beq	.L42
 945:.\Generated_Source\PSoC4/CYBLE.c ****                         (CYBLE_COMPLETE_LOCAL_NAME == destBuffer[byteCounter]))
 862              		.loc 1 945 0 discriminator 1
 863 0088 3B1C     		mov	r3, r7
 864 008a 1433     		add	r3, r3, #20
 865 008c 1B78     		ldrb	r3, [r3]
 866 008e 3A69     		ldr	r2, [r7, #16]
 867 0090 D318     		add	r3, r2, r3
 868 0092 1B78     		ldrb	r3, [r3]
 944:.\Generated_Source\PSoC4/CYBLE.c ****                     if((CYBLE_SHORT_LOCAL_NAME == destBuffer[byteCounter]) || 
 869              		.loc 1 944 0 discriminator 1
 870 0094 092B     		cmp	r3, #9
ARM GAS  C:\Users\jdmoussa\AppData\Local\Temp\ccsp17ZB.s 			page 33


 871 0096 04D1     		bne	.L43
 872              	.L42:
 946:.\Generated_Source\PSoC4/CYBLE.c ****                     {
 947:.\Generated_Source\PSoC4/CYBLE.c ****                         /* Start of the Local Name AD type was fount. Set flag and exit the loop. *
 948:.\Generated_Source\PSoC4/CYBLE.c ****                         flag = 1u;
 873              		.loc 1 948 0
 874 0098 3B1C     		mov	r3, r7
 875 009a 1633     		add	r3, r3, #22
 876 009c 0122     		mov	r2, #1
 877 009e 1A70     		strb	r2, [r3]
 878 00a0 0BE0     		b	.L40
 879              	.L43:
 949:.\Generated_Source\PSoC4/CYBLE.c ****                     }
 950:.\Generated_Source\PSoC4/CYBLE.c ****                     else
 951:.\Generated_Source\PSoC4/CYBLE.c ****                     {
 952:.\Generated_Source\PSoC4/CYBLE.c ****                         byteCounter += adLength;
 880              		.loc 1 952 0
 881 00a2 3B1C     		mov	r3, r7
 882 00a4 1433     		add	r3, r3, #20
 883 00a6 391C     		mov	r1, r7
 884 00a8 1431     		add	r1, r1, #20
 885 00aa 3A1C     		mov	r2, r7
 886 00ac 1532     		add	r2, r2, #21
 887 00ae 0978     		ldrb	r1, [r1]
 888 00b0 1278     		ldrb	r2, [r2]
 889 00b2 8A18     		add	r2, r1, r2
 890 00b4 1A70     		strb	r2, [r3]
 891 00b6 00E0     		b	.L40
 892              	.L41:
 953:.\Generated_Source\PSoC4/CYBLE.c ****                     }
 954:.\Generated_Source\PSoC4/CYBLE.c ****                 }
 955:.\Generated_Source\PSoC4/CYBLE.c ****                 else
 956:.\Generated_Source\PSoC4/CYBLE.c ****                 {
 957:.\Generated_Source\PSoC4/CYBLE.c ****                     /* The end of advertisement data structure was encountered though exit the 
 958:.\Generated_Source\PSoC4/CYBLE.c ****                       loop. */
 959:.\Generated_Source\PSoC4/CYBLE.c ****                     break;
 893              		.loc 1 959 0
 894 00b8 0CE0     		b	.L45
 895              	.L40:
 935:.\Generated_Source\PSoC4/CYBLE.c ****             while((byteCounter < maxLength) && (0u == flag))
 896              		.loc 1 935 0 discriminator 1
 897 00ba 3A1C     		mov	r2, r7
 898 00bc 1432     		add	r2, r2, #20
 899 00be 3B1C     		mov	r3, r7
 900 00c0 0F33     		add	r3, r3, #15
 901 00c2 1278     		ldrb	r2, [r2]
 902 00c4 1B78     		ldrb	r3, [r3]
 903 00c6 9A42     		cmp	r2, r3
 904 00c8 04D2     		bcs	.L45
 935:.\Generated_Source\PSoC4/CYBLE.c ****             while((byteCounter < maxLength) && (0u == flag))
 905              		.loc 1 935 0 is_stmt 0 discriminator 2
 906 00ca 3B1C     		mov	r3, r7
 907 00cc 1633     		add	r3, r3, #22
 908 00ce 1B78     		ldrb	r3, [r3]
 909 00d0 002B     		cmp	r3, #0
 910 00d2 BCD0     		beq	.L46
 911              	.L45:
ARM GAS  C:\Users\jdmoussa\AppData\Local\Temp\ccsp17ZB.s 			page 34


 960:.\Generated_Source\PSoC4/CYBLE.c ****                 }
 961:.\Generated_Source\PSoC4/CYBLE.c ****             }
 962:.\Generated_Source\PSoC4/CYBLE.c ****             
 963:.\Generated_Source\PSoC4/CYBLE.c ****             if(0u != flag)
 912              		.loc 1 963 0 is_stmt 1
 913 00d4 3B1C     		mov	r3, r7
 914 00d6 1633     		add	r3, r3, #22
 915 00d8 1B78     		ldrb	r3, [r3]
 916 00da 002B     		cmp	r3, #0
 917 00dc 59D0     		beq	.L37
 964:.\Generated_Source\PSoC4/CYBLE.c ****             {
 965:.\Generated_Source\PSoC4/CYBLE.c ****                 /* Reuse "adLength" to hold location of the last character of local name in 
 966:.\Generated_Source\PSoC4/CYBLE.c ****                    AD structure. */
 967:.\Generated_Source\PSoC4/CYBLE.c ****                 adLength += byteCounter;
 918              		.loc 1 967 0
 919 00de 3B1C     		mov	r3, r7
 920 00e0 1533     		add	r3, r3, #21
 921 00e2 391C     		mov	r1, r7
 922 00e4 1531     		add	r1, r1, #21
 923 00e6 3A1C     		mov	r2, r7
 924 00e8 1432     		add	r2, r2, #20
 925 00ea 0978     		ldrb	r1, [r1]
 926 00ec 1278     		ldrb	r2, [r2]
 927 00ee 8A18     		add	r2, r1, r2
 928 00f0 1A70     		strb	r2, [r3]
 968:.\Generated_Source\PSoC4/CYBLE.c ****                 
 969:.\Generated_Source\PSoC4/CYBLE.c ****                 /* Increment byte counter to point to start of the local Name string */
 970:.\Generated_Source\PSoC4/CYBLE.c ****                 byteCounter++;
 929              		.loc 1 970 0
 930 00f2 3B1C     		mov	r3, r7
 931 00f4 1433     		add	r3, r3, #20
 932 00f6 1A78     		ldrb	r2, [r3]
 933 00f8 3B1C     		mov	r3, r7
 934 00fa 1433     		add	r3, r3, #20
 935 00fc 0132     		add	r2, r2, #1
 936 00fe 1A70     		strb	r2, [r3]
 971:.\Generated_Source\PSoC4/CYBLE.c ****                 
 972:.\Generated_Source\PSoC4/CYBLE.c ****                 for(i = byteCounter; ((i < (adLength)) && (CYBLE_NULL_CHARCTER != name[i - byteCoun
 937              		.loc 1 972 0
 938 0100 3B1C     		mov	r3, r7
 939 0102 1733     		add	r3, r3, #23
 940 0104 3A1C     		mov	r2, r7
 941 0106 1432     		add	r2, r2, #20
 942 0108 1278     		ldrb	r2, [r2]
 943 010a 1A70     		strb	r2, [r3]
 944 010c 16E0     		b	.L48
 945              	.L50:
 973:.\Generated_Source\PSoC4/CYBLE.c ****                 {
 974:.\Generated_Source\PSoC4/CYBLE.c ****                     destBuffer[i] = (uint8)name[i - byteCounter];
 946              		.loc 1 974 0 discriminator 1
 947 010e 3B1C     		mov	r3, r7
 948 0110 1733     		add	r3, r3, #23
 949 0112 1B78     		ldrb	r3, [r3]
 950 0114 3A69     		ldr	r2, [r7, #16]
 951 0116 D318     		add	r3, r2, r3
 952 0118 3A1C     		mov	r2, r7
 953 011a 1732     		add	r2, r2, #23
ARM GAS  C:\Users\jdmoussa\AppData\Local\Temp\ccsp17ZB.s 			page 35


 954 011c 1178     		ldrb	r1, [r2]
 955 011e 3A1C     		mov	r2, r7
 956 0120 1432     		add	r2, r2, #20
 957 0122 1278     		ldrb	r2, [r2]
 958 0124 8A1A     		sub	r2, r1, r2
 959 0126 7968     		ldr	r1, [r7, #4]
 960 0128 8A18     		add	r2, r1, r2
 961 012a 1278     		ldrb	r2, [r2]
 962 012c 1A70     		strb	r2, [r3]
 972:.\Generated_Source\PSoC4/CYBLE.c ****                 for(i = byteCounter; ((i < (adLength)) && (CYBLE_NULL_CHARCTER != name[i - byteCoun
 963              		.loc 1 972 0 discriminator 1
 964 012e 3B1C     		mov	r3, r7
 965 0130 1733     		add	r3, r3, #23
 966 0132 1A78     		ldrb	r2, [r3]
 967 0134 3B1C     		mov	r3, r7
 968 0136 1733     		add	r3, r3, #23
 969 0138 0132     		add	r2, r2, #1
 970 013a 1A70     		strb	r2, [r3]
 971              	.L48:
 972 013c 3A1C     		mov	r2, r7
 973 013e 1732     		add	r2, r2, #23
 974 0140 3B1C     		mov	r3, r7
 975 0142 1533     		add	r3, r3, #21
 976 0144 1278     		ldrb	r2, [r2]
 977 0146 1B78     		ldrb	r3, [r3]
 978 0148 9A42     		cmp	r2, r3
 979 014a 0BD2     		bcs	.L49
 972:.\Generated_Source\PSoC4/CYBLE.c ****                 for(i = byteCounter; ((i < (adLength)) && (CYBLE_NULL_CHARCTER != name[i - byteCoun
 980              		.loc 1 972 0 is_stmt 0 discriminator 2
 981 014c 3B1C     		mov	r3, r7
 982 014e 1733     		add	r3, r3, #23
 983 0150 1A78     		ldrb	r2, [r3]
 984 0152 3B1C     		mov	r3, r7
 985 0154 1433     		add	r3, r3, #20
 986 0156 1B78     		ldrb	r3, [r3]
 987 0158 D31A     		sub	r3, r2, r3
 988 015a 7A68     		ldr	r2, [r7, #4]
 989 015c D318     		add	r3, r2, r3
 990 015e 1B78     		ldrb	r3, [r3]
 991 0160 002B     		cmp	r3, #0
 992 0162 D4D1     		bne	.L50
 993              	.L49:
 975:.\Generated_Source\PSoC4/CYBLE.c ****                 }
 976:.\Generated_Source\PSoC4/CYBLE.c ****                 
 977:.\Generated_Source\PSoC4/CYBLE.c ****                 /* This loop handles the case when new local name is shorted than old one.
 978:.\Generated_Source\PSoC4/CYBLE.c ****                    In this case all remaining characters should be null characters. */
 979:.\Generated_Source\PSoC4/CYBLE.c ****                 while(adLength > i)
 994              		.loc 1 979 0 is_stmt 1
 995 0164 0DE0     		b	.L51
 996              	.L52:
 980:.\Generated_Source\PSoC4/CYBLE.c ****                 {
 981:.\Generated_Source\PSoC4/CYBLE.c ****                     /* Terminate string */
 982:.\Generated_Source\PSoC4/CYBLE.c ****                     destBuffer[i] = (uint8)CYBLE_NULL_CHARCTER;
 997              		.loc 1 982 0
 998 0166 3B1C     		mov	r3, r7
 999 0168 1733     		add	r3, r3, #23
 1000 016a 1B78     		ldrb	r3, [r3]
ARM GAS  C:\Users\jdmoussa\AppData\Local\Temp\ccsp17ZB.s 			page 36


 1001 016c 3A69     		ldr	r2, [r7, #16]
 1002 016e D318     		add	r3, r2, r3
 1003 0170 0022     		mov	r2, #0
 1004 0172 1A70     		strb	r2, [r3]
 983:.\Generated_Source\PSoC4/CYBLE.c ****                     i++;
 1005              		.loc 1 983 0
 1006 0174 3B1C     		mov	r3, r7
 1007 0176 1733     		add	r3, r3, #23
 1008 0178 1A78     		ldrb	r2, [r3]
 1009 017a 3B1C     		mov	r3, r7
 1010 017c 1733     		add	r3, r3, #23
 1011 017e 0132     		add	r2, r2, #1
 1012 0180 1A70     		strb	r2, [r3]
 1013              	.L51:
 979:.\Generated_Source\PSoC4/CYBLE.c ****                 while(adLength > i)
 1014              		.loc 1 979 0 discriminator 1
 1015 0182 3A1C     		mov	r2, r7
 1016 0184 1532     		add	r2, r2, #21
 1017 0186 3B1C     		mov	r3, r7
 1018 0188 1733     		add	r3, r3, #23
 1019 018a 1278     		ldrb	r2, [r2]
 1020 018c 1B78     		ldrb	r3, [r3]
 1021 018e 9A42     		cmp	r2, r3
 1022 0190 E9D8     		bhi	.L52
 1023              	.L37:
 984:.\Generated_Source\PSoC4/CYBLE.c ****                 }
 985:.\Generated_Source\PSoC4/CYBLE.c ****             }
 986:.\Generated_Source\PSoC4/CYBLE.c ****         }
 1024              		.loc 1 986 0
 1025 0192 BD46     		mov	sp, r7
 1026 0194 06B0     		add	sp, sp, #24
 1027              		@ sp needed
 1028 0196 80BD     		pop	{r7, pc}
 1029              	.L54:
 1030              		.align	2
 1031              	.L53:
 1032 0198 00000000 		.word	cyBle_discoveryData
 1033 019c 00000000 		.word	cyBle_scanRspData
 1034              		.cfi_endproc
 1035              	.LFE10:
 1036              		.size	CyBle_ChangeAdLocalName, .-CyBle_ChangeAdLocalName
 1037              		.section	.text.CyBle_GapSetLocalName,"ax",%progbits
 1038              		.align	2
 1039              		.global	CyBle_GapSetLocalName
 1040              		.code	16
 1041              		.thumb_func
 1042              		.type	CyBle_GapSetLocalName, %function
 1043              	CyBle_GapSetLocalName:
 1044              	.LFB11:
 987:.\Generated_Source\PSoC4/CYBLE.c ****         
 988:.\Generated_Source\PSoC4/CYBLE.c **** #endif /* (CYBLE_GAP_ROLE_PERIPHERAL) */  
 989:.\Generated_Source\PSoC4/CYBLE.c ****     
 990:.\Generated_Source\PSoC4/CYBLE.c ****     
 991:.\Generated_Source\PSoC4/CYBLE.c ****     /******************************************************************************
 992:.\Generated_Source\PSoC4/CYBLE.c ****     ##Function Name: CyBle_GapSetLocalName
 993:.\Generated_Source\PSoC4/CYBLE.c ****     *******************************************************************************
 994:.\Generated_Source\PSoC4/CYBLE.c ****     Summary:
ARM GAS  C:\Users\jdmoussa\AppData\Local\Temp\ccsp17ZB.s 			page 37


 995:.\Generated_Source\PSoC4/CYBLE.c ****      This API is used to set the local device name - a Characteristic of the 
 996:.\Generated_Source\PSoC4/CYBLE.c ****      GAP Service. If the characteristic length entered in the component customizer
 997:.\Generated_Source\PSoC4/CYBLE.c ****      is shorter than the string specified by the "name" parameter, the local device
 998:.\Generated_Source\PSoC4/CYBLE.c ****      name will be cut to the length specified in the customizer.
 999:.\Generated_Source\PSoC4/CYBLE.c **** 
1000:.\Generated_Source\PSoC4/CYBLE.c ****     Parameters:
1001:.\Generated_Source\PSoC4/CYBLE.c ****      char8 name: The local device name string. The name string to be written as
1002:.\Generated_Source\PSoC4/CYBLE.c ****                  the local device name. It represents a UTF-8 encoded User
1003:.\Generated_Source\PSoC4/CYBLE.c ****                  Friendly Descriptive Name for the device. The length of the local
1004:.\Generated_Source\PSoC4/CYBLE.c ****                  device string is entered into the component customizer and it can
1005:.\Generated_Source\PSoC4/CYBLE.c ****                  be set to a value from 0 to 248 bytes. If the name contained in
1006:.\Generated_Source\PSoC4/CYBLE.c ****                  the parameter is shorter than the length from the customizer, the
1007:.\Generated_Source\PSoC4/CYBLE.c ****                  end of the name is indicated by a NULL octet (0x00).
1008:.\Generated_Source\PSoC4/CYBLE.c **** 
1009:.\Generated_Source\PSoC4/CYBLE.c ****     Return:
1010:.\Generated_Source\PSoC4/CYBLE.c ****      CYBLE_API_RESULT_T : Return value indicates if the function succeeded or 
1011:.\Generated_Source\PSoC4/CYBLE.c ****      failed. Following are the possible error codes.
1012:.\Generated_Source\PSoC4/CYBLE.c ****      <table>
1013:.\Generated_Source\PSoC4/CYBLE.c ****       Errors codes                        Description
1014:.\Generated_Source\PSoC4/CYBLE.c ****       ------------                        -----------
1015:.\Generated_Source\PSoC4/CYBLE.c ****       CYBLE_ERROR_OK                      Function completed successfully.
1016:.\Generated_Source\PSoC4/CYBLE.c ****       CYBLE_ERROR_INVALID_PARAMETER       On specifying NULL as input parameter
1017:.\Generated_Source\PSoC4/CYBLE.c ****      </table>
1018:.\Generated_Source\PSoC4/CYBLE.c ****  
1019:.\Generated_Source\PSoC4/CYBLE.c ****     ******************************************************************************/
1020:.\Generated_Source\PSoC4/CYBLE.c ****     CYBLE_API_RESULT_T CyBle_GapSetLocalName(const char8 name[])
1021:.\Generated_Source\PSoC4/CYBLE.c ****     {
 1045              		.loc 1 1021 0
 1046              		.cfi_startproc
 1047 0000 80B5     		push	{r7, lr}
 1048              		.cfi_def_cfa_offset 8
 1049              		.cfi_offset 7, -8
 1050              		.cfi_offset 14, -4
 1051 0002 86B0     		sub	sp, sp, #24
 1052              		.cfi_def_cfa_offset 32
 1053 0004 00AF     		add	r7, sp, #0
 1054              		.cfi_def_cfa_register 7
 1055 0006 7860     		str	r0, [r7, #4]
1022:.\Generated_Source\PSoC4/CYBLE.c ****         CYBLE_API_RESULT_T apiResult = CYBLE_ERROR_OK;
 1056              		.loc 1 1022 0
 1057 0008 3B1C     		mov	r3, r7
 1058 000a 1633     		add	r3, r3, #22
 1059 000c 0022     		mov	r2, #0
 1060 000e 1A80     		strh	r2, [r3]
1023:.\Generated_Source\PSoC4/CYBLE.c ****         uint8 i;
1024:.\Generated_Source\PSoC4/CYBLE.c ****         char8 *ptr;
1025:.\Generated_Source\PSoC4/CYBLE.c ****         uint8 charLen;
1026:.\Generated_Source\PSoC4/CYBLE.c **** 
1027:.\Generated_Source\PSoC4/CYBLE.c ****         if(NULL != name)
 1061              		.loc 1 1027 0
 1062 0010 7B68     		ldr	r3, [r7, #4]
 1063 0012 002B     		cmp	r3, #0
 1064 0014 42D0     		beq	.L56
1028:.\Generated_Source\PSoC4/CYBLE.c ****         {
1029:.\Generated_Source\PSoC4/CYBLE.c ****             /* Get the pointer to the Device Name characteristic  */
1030:.\Generated_Source\PSoC4/CYBLE.c ****             ptr = (char8 *)
 1065              		.loc 1 1030 0
ARM GAS  C:\Users\jdmoussa\AppData\Local\Temp\ccsp17ZB.s 			page 38


 1066 0016 274B     		ldr	r3, .L62
 1067 0018 9B6B     		ldr	r3, [r3, #56]
 1068 001a 3B61     		str	r3, [r7, #16]
1031:.\Generated_Source\PSoC4/CYBLE.c ****                 cyBle_gattDB[CYBLE_GAP_DEVICE_NAME_INDEX].attValue.attFormatValue.attGenericVal;
1032:.\Generated_Source\PSoC4/CYBLE.c **** 
1033:.\Generated_Source\PSoC4/CYBLE.c ****             /* First need to get the length of the characteristic data in the GATT
1034:.\Generated_Source\PSoC4/CYBLE.c ****                 database to make sure there is enough place for the data. The length
1035:.\Generated_Source\PSoC4/CYBLE.c ****                 can't be longer than 248, so only the LSB of 16 bit of length is to
1036:.\Generated_Source\PSoC4/CYBLE.c ****                 be used. */
1037:.\Generated_Source\PSoC4/CYBLE.c ****             charLen = (uint8) cyBle_gattDB[CYBLE_GAP_DEVICE_NAME_INDEX].attValue.attFormatValue.len
 1069              		.loc 1 1037 0
 1070 001c 254B     		ldr	r3, .L62
 1071 001e 9A8E     		ldrh	r2, [r3, #52]
 1072 0020 3B1C     		mov	r3, r7
 1073 0022 0F33     		add	r3, r3, #15
 1074 0024 1A70     		strb	r2, [r3]
1038:.\Generated_Source\PSoC4/CYBLE.c **** 
1039:.\Generated_Source\PSoC4/CYBLE.c ****             /* Copy name into characteristic */
1040:.\Generated_Source\PSoC4/CYBLE.c ****             for(i = 0u; ((i < (charLen - 1u)) && (CYBLE_NULL_CHARCTER != name[i])); i++)
 1075              		.loc 1 1040 0
 1076 0026 3B1C     		mov	r3, r7
 1077 0028 1533     		add	r3, r3, #21
 1078 002a 0022     		mov	r2, #0
 1079 002c 1A70     		strb	r2, [r3]
 1080 002e 12E0     		b	.L57
 1081              	.L59:
1041:.\Generated_Source\PSoC4/CYBLE.c ****             {
1042:.\Generated_Source\PSoC4/CYBLE.c ****                 ptr[i] = name[i];
 1082              		.loc 1 1042 0 discriminator 1
 1083 0030 3B1C     		mov	r3, r7
 1084 0032 1533     		add	r3, r3, #21
 1085 0034 1B78     		ldrb	r3, [r3]
 1086 0036 3A69     		ldr	r2, [r7, #16]
 1087 0038 D318     		add	r3, r2, r3
 1088 003a 3A1C     		mov	r2, r7
 1089 003c 1532     		add	r2, r2, #21
 1090 003e 1278     		ldrb	r2, [r2]
 1091 0040 7968     		ldr	r1, [r7, #4]
 1092 0042 8A18     		add	r2, r1, r2
 1093 0044 1278     		ldrb	r2, [r2]
 1094 0046 1A70     		strb	r2, [r3]
1040:.\Generated_Source\PSoC4/CYBLE.c ****             for(i = 0u; ((i < (charLen - 1u)) && (CYBLE_NULL_CHARCTER != name[i])); i++)
 1095              		.loc 1 1040 0 discriminator 1
 1096 0048 3B1C     		mov	r3, r7
 1097 004a 1533     		add	r3, r3, #21
 1098 004c 1A78     		ldrb	r2, [r3]
 1099 004e 3B1C     		mov	r3, r7
 1100 0050 1533     		add	r3, r3, #21
 1101 0052 0132     		add	r2, r2, #1
 1102 0054 1A70     		strb	r2, [r3]
 1103              	.L57:
 1104 0056 3B1C     		mov	r3, r7
 1105 0058 1533     		add	r3, r3, #21
 1106 005a 1A78     		ldrb	r2, [r3]
 1107 005c 3B1C     		mov	r3, r7
 1108 005e 0F33     		add	r3, r3, #15
 1109 0060 1B78     		ldrb	r3, [r3]
ARM GAS  C:\Users\jdmoussa\AppData\Local\Temp\ccsp17ZB.s 			page 39


 1110 0062 013B     		sub	r3, r3, #1
 1111 0064 9A42     		cmp	r2, r3
 1112 0066 07D2     		bcs	.L58
1040:.\Generated_Source\PSoC4/CYBLE.c ****             for(i = 0u; ((i < (charLen - 1u)) && (CYBLE_NULL_CHARCTER != name[i])); i++)
 1113              		.loc 1 1040 0 is_stmt 0 discriminator 2
 1114 0068 3B1C     		mov	r3, r7
 1115 006a 1533     		add	r3, r3, #21
 1116 006c 1B78     		ldrb	r3, [r3]
 1117 006e 7A68     		ldr	r2, [r7, #4]
 1118 0070 D318     		add	r3, r2, r3
 1119 0072 1B78     		ldrb	r3, [r3]
 1120 0074 002B     		cmp	r3, #0
 1121 0076 DBD1     		bne	.L59
 1122              	.L58:
1043:.\Generated_Source\PSoC4/CYBLE.c ****             }
1044:.\Generated_Source\PSoC4/CYBLE.c **** 
1045:.\Generated_Source\PSoC4/CYBLE.c ****             /* Terminate string */
1046:.\Generated_Source\PSoC4/CYBLE.c ****             ptr[i] = CYBLE_NULL_CHARCTER;
 1123              		.loc 1 1046 0 is_stmt 1
 1124 0078 3B1C     		mov	r3, r7
 1125 007a 1533     		add	r3, r3, #21
 1126 007c 1B78     		ldrb	r3, [r3]
 1127 007e 3A69     		ldr	r2, [r7, #16]
 1128 0080 D318     		add	r3, r2, r3
 1129 0082 0022     		mov	r2, #0
 1130 0084 1A70     		strb	r2, [r3]
1047:.\Generated_Source\PSoC4/CYBLE.c ****             
1048:.\Generated_Source\PSoC4/CYBLE.c ****             /* Update device name in advertising and scan response structure */
1049:.\Generated_Source\PSoC4/CYBLE.c ****             #if(CYBLE_GAP_ROLE_PERIPHERAL)
1050:.\Generated_Source\PSoC4/CYBLE.c ****                 CyBle_ChangeAdLocalName(name, 0u);
 1131              		.loc 1 1050 0
 1132 0086 7B68     		ldr	r3, [r7, #4]
 1133 0088 181C     		mov	r0, r3
 1134 008a 0021     		mov	r1, #0
 1135 008c FFF7FEFF 		bl	CyBle_ChangeAdLocalName
1051:.\Generated_Source\PSoC4/CYBLE.c ****                 CyBle_ChangeAdLocalName(name, 1u);
 1136              		.loc 1 1051 0
 1137 0090 7B68     		ldr	r3, [r7, #4]
 1138 0092 181C     		mov	r0, r3
 1139 0094 0121     		mov	r1, #1
 1140 0096 FFF7FEFF 		bl	CyBle_ChangeAdLocalName
 1141 009a 03E0     		b	.L60
 1142              	.L56:
1052:.\Generated_Source\PSoC4/CYBLE.c ****             #endif /* (CYBLE_GAP_ROLE_PERIPHERAL) */
1053:.\Generated_Source\PSoC4/CYBLE.c ****         }
1054:.\Generated_Source\PSoC4/CYBLE.c ****         else
1055:.\Generated_Source\PSoC4/CYBLE.c ****         {
1056:.\Generated_Source\PSoC4/CYBLE.c ****             apiResult = CYBLE_ERROR_INVALID_PARAMETER;
 1143              		.loc 1 1056 0
 1144 009c 3B1C     		mov	r3, r7
 1145 009e 1633     		add	r3, r3, #22
 1146 00a0 0122     		mov	r2, #1
 1147 00a2 1A80     		strh	r2, [r3]
 1148              	.L60:
1057:.\Generated_Source\PSoC4/CYBLE.c ****         }
1058:.\Generated_Source\PSoC4/CYBLE.c ****         
1059:.\Generated_Source\PSoC4/CYBLE.c ****         return(apiResult);
ARM GAS  C:\Users\jdmoussa\AppData\Local\Temp\ccsp17ZB.s 			page 40


 1149              		.loc 1 1059 0
 1150 00a4 3B1C     		mov	r3, r7
 1151 00a6 1633     		add	r3, r3, #22
 1152 00a8 1B88     		ldrh	r3, [r3]
1060:.\Generated_Source\PSoC4/CYBLE.c ****     }
 1153              		.loc 1 1060 0
 1154 00aa 181C     		mov	r0, r3
 1155 00ac BD46     		mov	sp, r7
 1156 00ae 06B0     		add	sp, sp, #24
 1157              		@ sp needed
 1158 00b0 80BD     		pop	{r7, pc}
 1159              	.L63:
 1160 00b2 C046     		.align	2
 1161              	.L62:
 1162 00b4 00000000 		.word	cyBle_gattDB
 1163              		.cfi_endproc
 1164              	.LFE11:
 1165              		.size	CyBle_GapSetLocalName, .-CyBle_GapSetLocalName
 1166              		.section	.text.CyBle_GapGetLocalName,"ax",%progbits
 1167              		.align	2
 1168              		.global	CyBle_GapGetLocalName
 1169              		.code	16
 1170              		.thumb_func
 1171              		.type	CyBle_GapGetLocalName, %function
 1172              	CyBle_GapGetLocalName:
 1173              	.LFB12:
1061:.\Generated_Source\PSoC4/CYBLE.c **** 
1062:.\Generated_Source\PSoC4/CYBLE.c **** 
1063:.\Generated_Source\PSoC4/CYBLE.c ****     /******************************************************************************
1064:.\Generated_Source\PSoC4/CYBLE.c ****     ##Function Name: CyBle_GapGetLocalName
1065:.\Generated_Source\PSoC4/CYBLE.c ****     *******************************************************************************
1066:.\Generated_Source\PSoC4/CYBLE.c ****  
1067:.\Generated_Source\PSoC4/CYBLE.c ****     Summary:
1068:.\Generated_Source\PSoC4/CYBLE.c ****      This API is used to read the local device name - a Characteristic of the 
1069:.\Generated_Source\PSoC4/CYBLE.c ****      GAP Service.
1070:.\Generated_Source\PSoC4/CYBLE.c **** 
1071:.\Generated_Source\PSoC4/CYBLE.c ****     Parameters:
1072:.\Generated_Source\PSoC4/CYBLE.c ****     char8 name: The local device name string. Used to read the local name to the
1073:.\Generated_Source\PSoC4/CYBLE.c ****                 given string array. It represents a UTF-8 encoded User Friendly 
1074:.\Generated_Source\PSoC4/CYBLE.c ****                 Descriptive Name for the device. The length of the local device
1075:.\Generated_Source\PSoC4/CYBLE.c ****                 string is entered into the component customizer and it can be set
1076:.\Generated_Source\PSoC4/CYBLE.c ****                 to a value from 0 to 248 bytes. If the name contained in the
1077:.\Generated_Source\PSoC4/CYBLE.c ****                 parameter is shorter than the length from the customizer, the end
1078:.\Generated_Source\PSoC4/CYBLE.c ****                 of the name is indicated by a NULL octet (0x00).
1079:.\Generated_Source\PSoC4/CYBLE.c **** 
1080:.\Generated_Source\PSoC4/CYBLE.c ****     Return:
1081:.\Generated_Source\PSoC4/CYBLE.c ****      CYBLE_API_RESULT_T : Return value indicates if the function succeeded or 
1082:.\Generated_Source\PSoC4/CYBLE.c ****      failed. Following are the possible error codes.
1083:.\Generated_Source\PSoC4/CYBLE.c ****      <table>
1084:.\Generated_Source\PSoC4/CYBLE.c ****       Errors codes                        Description
1085:.\Generated_Source\PSoC4/CYBLE.c ****       ------------                        -----------
1086:.\Generated_Source\PSoC4/CYBLE.c ****       CYBLE_ERROR_OK                      Function completed successfully.
1087:.\Generated_Source\PSoC4/CYBLE.c ****       CYBLE_ERROR_INVALID_PARAMETER       On specifying NULL as input parameter
1088:.\Generated_Source\PSoC4/CYBLE.c ****      </table>
1089:.\Generated_Source\PSoC4/CYBLE.c **** 
1090:.\Generated_Source\PSoC4/CYBLE.c ****     ******************************************************************************/
1091:.\Generated_Source\PSoC4/CYBLE.c ****     CYBLE_API_RESULT_T CyBle_GapGetLocalName(char8 name[])
ARM GAS  C:\Users\jdmoussa\AppData\Local\Temp\ccsp17ZB.s 			page 41


1092:.\Generated_Source\PSoC4/CYBLE.c ****     {
 1174              		.loc 1 1092 0
 1175              		.cfi_startproc
 1176 0000 80B5     		push	{r7, lr}
 1177              		.cfi_def_cfa_offset 8
 1178              		.cfi_offset 7, -8
 1179              		.cfi_offset 14, -4
 1180 0002 86B0     		sub	sp, sp, #24
 1181              		.cfi_def_cfa_offset 32
 1182 0004 00AF     		add	r7, sp, #0
 1183              		.cfi_def_cfa_register 7
 1184 0006 7860     		str	r0, [r7, #4]
1093:.\Generated_Source\PSoC4/CYBLE.c ****         CYBLE_API_RESULT_T apiResult = CYBLE_ERROR_OK;
 1185              		.loc 1 1093 0
 1186 0008 3B1C     		mov	r3, r7
 1187 000a 1633     		add	r3, r3, #22
 1188 000c 0022     		mov	r2, #0
 1189 000e 1A80     		strh	r2, [r3]
1094:.\Generated_Source\PSoC4/CYBLE.c ****         uint8 charLen;
1095:.\Generated_Source\PSoC4/CYBLE.c ****         uint8 i;
1096:.\Generated_Source\PSoC4/CYBLE.c ****         char8 *ptr;
1097:.\Generated_Source\PSoC4/CYBLE.c **** 
1098:.\Generated_Source\PSoC4/CYBLE.c ****         if(NULL != name)
 1190              		.loc 1 1098 0
 1191 0010 7B68     		ldr	r3, [r7, #4]
 1192 0012 002B     		cmp	r3, #0
 1193 0014 38D0     		beq	.L65
1099:.\Generated_Source\PSoC4/CYBLE.c ****         {
1100:.\Generated_Source\PSoC4/CYBLE.c ****             /* Get the pointer to the Device Name characteristic  */
1101:.\Generated_Source\PSoC4/CYBLE.c ****             ptr = (char8 *) cyBle_gattDB[CYBLE_GAP_DEVICE_NAME_INDEX].attValue.attFormatValue.attGe
 1194              		.loc 1 1101 0
 1195 0016 224B     		ldr	r3, .L71
 1196 0018 9B6B     		ldr	r3, [r3, #56]
 1197 001a 3B61     		str	r3, [r7, #16]
1102:.\Generated_Source\PSoC4/CYBLE.c **** 
1103:.\Generated_Source\PSoC4/CYBLE.c ****             /* First need to get the length of the characteristic data in the GATT
1104:.\Generated_Source\PSoC4/CYBLE.c ****                 database to make sure there is enough place for the data. The length
1105:.\Generated_Source\PSoC4/CYBLE.c ****                 can't be longer than 248, so only the LSB of 16 bit of length is to
1106:.\Generated_Source\PSoC4/CYBLE.c ****                 be used. */
1107:.\Generated_Source\PSoC4/CYBLE.c ****             charLen = (uint8)cyBle_gattDB[CYBLE_GAP_DEVICE_NAME_INDEX].attValue.attFormatValue.leng
 1198              		.loc 1 1107 0
 1199 001c 204B     		ldr	r3, .L71
 1200 001e 9A8E     		ldrh	r2, [r3, #52]
 1201 0020 3B1C     		mov	r3, r7
 1202 0022 0F33     		add	r3, r3, #15
 1203 0024 1A70     		strb	r2, [r3]
1108:.\Generated_Source\PSoC4/CYBLE.c **** 
1109:.\Generated_Source\PSoC4/CYBLE.c ****             /* Copy name from characteristic */
1110:.\Generated_Source\PSoC4/CYBLE.c ****             for(i = 0u; ((i < (charLen - 1u)) && (CYBLE_NULL_CHARCTER != ptr[i])); i++)
 1204              		.loc 1 1110 0
 1205 0026 3B1C     		mov	r3, r7
 1206 0028 1533     		add	r3, r3, #21
 1207 002a 0022     		mov	r2, #0
 1208 002c 1A70     		strb	r2, [r3]
 1209 002e 12E0     		b	.L66
 1210              	.L68:
1111:.\Generated_Source\PSoC4/CYBLE.c ****             {
ARM GAS  C:\Users\jdmoussa\AppData\Local\Temp\ccsp17ZB.s 			page 42


1112:.\Generated_Source\PSoC4/CYBLE.c ****                 name[i] = ptr[i];
 1211              		.loc 1 1112 0 discriminator 1
 1212 0030 3B1C     		mov	r3, r7
 1213 0032 1533     		add	r3, r3, #21
 1214 0034 1B78     		ldrb	r3, [r3]
 1215 0036 7A68     		ldr	r2, [r7, #4]
 1216 0038 D318     		add	r3, r2, r3
 1217 003a 3A1C     		mov	r2, r7
 1218 003c 1532     		add	r2, r2, #21
 1219 003e 1278     		ldrb	r2, [r2]
 1220 0040 3969     		ldr	r1, [r7, #16]
 1221 0042 8A18     		add	r2, r1, r2
 1222 0044 1278     		ldrb	r2, [r2]
 1223 0046 1A70     		strb	r2, [r3]
1110:.\Generated_Source\PSoC4/CYBLE.c ****             for(i = 0u; ((i < (charLen - 1u)) && (CYBLE_NULL_CHARCTER != ptr[i])); i++)
 1224              		.loc 1 1110 0 discriminator 1
 1225 0048 3B1C     		mov	r3, r7
 1226 004a 1533     		add	r3, r3, #21
 1227 004c 1A78     		ldrb	r2, [r3]
 1228 004e 3B1C     		mov	r3, r7
 1229 0050 1533     		add	r3, r3, #21
 1230 0052 0132     		add	r2, r2, #1
 1231 0054 1A70     		strb	r2, [r3]
 1232              	.L66:
 1233 0056 3B1C     		mov	r3, r7
 1234 0058 1533     		add	r3, r3, #21
 1235 005a 1A78     		ldrb	r2, [r3]
 1236 005c 3B1C     		mov	r3, r7
 1237 005e 0F33     		add	r3, r3, #15
 1238 0060 1B78     		ldrb	r3, [r3]
 1239 0062 013B     		sub	r3, r3, #1
 1240 0064 9A42     		cmp	r2, r3
 1241 0066 07D2     		bcs	.L67
1110:.\Generated_Source\PSoC4/CYBLE.c ****             for(i = 0u; ((i < (charLen - 1u)) && (CYBLE_NULL_CHARCTER != ptr[i])); i++)
 1242              		.loc 1 1110 0 is_stmt 0 discriminator 2
 1243 0068 3B1C     		mov	r3, r7
 1244 006a 1533     		add	r3, r3, #21
 1245 006c 1B78     		ldrb	r3, [r3]
 1246 006e 3A69     		ldr	r2, [r7, #16]
 1247 0070 D318     		add	r3, r2, r3
 1248 0072 1B78     		ldrb	r3, [r3]
 1249 0074 002B     		cmp	r3, #0
 1250 0076 DBD1     		bne	.L68
 1251              	.L67:
1113:.\Generated_Source\PSoC4/CYBLE.c ****             }
1114:.\Generated_Source\PSoC4/CYBLE.c **** 
1115:.\Generated_Source\PSoC4/CYBLE.c ****             /* Terminate string */
1116:.\Generated_Source\PSoC4/CYBLE.c ****             name[i] = CYBLE_NULL_CHARCTER;
 1252              		.loc 1 1116 0 is_stmt 1
 1253 0078 3B1C     		mov	r3, r7
 1254 007a 1533     		add	r3, r3, #21
 1255 007c 1B78     		ldrb	r3, [r3]
 1256 007e 7A68     		ldr	r2, [r7, #4]
 1257 0080 D318     		add	r3, r2, r3
 1258 0082 0022     		mov	r2, #0
 1259 0084 1A70     		strb	r2, [r3]
 1260 0086 03E0     		b	.L69
ARM GAS  C:\Users\jdmoussa\AppData\Local\Temp\ccsp17ZB.s 			page 43


 1261              	.L65:
1117:.\Generated_Source\PSoC4/CYBLE.c ****         }
1118:.\Generated_Source\PSoC4/CYBLE.c ****         else
1119:.\Generated_Source\PSoC4/CYBLE.c ****         {
1120:.\Generated_Source\PSoC4/CYBLE.c ****             apiResult = CYBLE_ERROR_INVALID_PARAMETER;
 1262              		.loc 1 1120 0
 1263 0088 3B1C     		mov	r3, r7
 1264 008a 1633     		add	r3, r3, #22
 1265 008c 0122     		mov	r2, #1
 1266 008e 1A80     		strh	r2, [r3]
 1267              	.L69:
1121:.\Generated_Source\PSoC4/CYBLE.c ****         }
1122:.\Generated_Source\PSoC4/CYBLE.c ****         
1123:.\Generated_Source\PSoC4/CYBLE.c ****         return(apiResult);
 1268              		.loc 1 1123 0
 1269 0090 3B1C     		mov	r3, r7
 1270 0092 1633     		add	r3, r3, #22
 1271 0094 1B88     		ldrh	r3, [r3]
1124:.\Generated_Source\PSoC4/CYBLE.c ****     }
 1272              		.loc 1 1124 0
 1273 0096 181C     		mov	r0, r3
 1274 0098 BD46     		mov	sp, r7
 1275 009a 06B0     		add	sp, sp, #24
 1276              		@ sp needed
 1277 009c 80BD     		pop	{r7, pc}
 1278              	.L72:
 1279 009e C046     		.align	2
 1280              	.L71:
 1281 00a0 00000000 		.word	cyBle_gattDB
 1282              		.cfi_endproc
 1283              	.LFE12:
 1284              		.size	CyBle_GapGetLocalName, .-CyBle_GapGetLocalName
 1285              		.section	.text.CyBle_Get16ByPtr,"ax",%progbits
 1286              		.align	2
 1287              		.global	CyBle_Get16ByPtr
 1288              		.code	16
 1289              		.thumb_func
 1290              		.type	CyBle_Get16ByPtr, %function
 1291              	CyBle_Get16ByPtr:
 1292              	.LFB13:
1125:.\Generated_Source\PSoC4/CYBLE.c **** 
1126:.\Generated_Source\PSoC4/CYBLE.c **** #endif /* (CYBLE_GATT_ROLE_SERVER) */
1127:.\Generated_Source\PSoC4/CYBLE.c **** 
1128:.\Generated_Source\PSoC4/CYBLE.c **** 
1129:.\Generated_Source\PSoC4/CYBLE.c **** /******************************************************************************
1130:.\Generated_Source\PSoC4/CYBLE.c **** ##Function Name: CyBle_Get16ByPtr
1131:.\Generated_Source\PSoC4/CYBLE.c **** *******************************************************************************
1132:.\Generated_Source\PSoC4/CYBLE.c **** 
1133:.\Generated_Source\PSoC4/CYBLE.c **** Summary:
1134:.\Generated_Source\PSoC4/CYBLE.c ****  Returns the two-bytes value by using a pointer to the LSB.
1135:.\Generated_Source\PSoC4/CYBLE.c **** 
1136:.\Generated_Source\PSoC4/CYBLE.c **** Parameters:
1137:.\Generated_Source\PSoC4/CYBLE.c ****  uint8 * ptr: Pointer to the LSB of two-bytes data (little endian).
1138:.\Generated_Source\PSoC4/CYBLE.c **** 
1139:.\Generated_Source\PSoC4/CYBLE.c **** Return:
1140:.\Generated_Source\PSoC4/CYBLE.c ****  uint16 value: Two-bytes data.
1141:.\Generated_Source\PSoC4/CYBLE.c **** 
ARM GAS  C:\Users\jdmoussa\AppData\Local\Temp\ccsp17ZB.s 			page 44


1142:.\Generated_Source\PSoC4/CYBLE.c **** ******************************************************************************/
1143:.\Generated_Source\PSoC4/CYBLE.c **** uint16 CyBle_Get16ByPtr(const uint8 ptr[])
1144:.\Generated_Source\PSoC4/CYBLE.c **** {
 1293              		.loc 1 1144 0
 1294              		.cfi_startproc
 1295 0000 80B5     		push	{r7, lr}
 1296              		.cfi_def_cfa_offset 8
 1297              		.cfi_offset 7, -8
 1298              		.cfi_offset 14, -4
 1299 0002 82B0     		sub	sp, sp, #8
 1300              		.cfi_def_cfa_offset 16
 1301 0004 00AF     		add	r7, sp, #0
 1302              		.cfi_def_cfa_register 7
 1303 0006 7860     		str	r0, [r7, #4]
1145:.\Generated_Source\PSoC4/CYBLE.c ****     return ((uint16) ptr[0u] | ((uint16) (((uint16) ptr[1u]) << 8u)));
 1304              		.loc 1 1145 0
 1305 0008 7B68     		ldr	r3, [r7, #4]
 1306 000a 1B78     		ldrb	r3, [r3]
 1307 000c 1A1C     		mov	r2, r3
 1308 000e 7B68     		ldr	r3, [r7, #4]
 1309 0010 0133     		add	r3, r3, #1
 1310 0012 1B78     		ldrb	r3, [r3]
 1311 0014 1B02     		lsl	r3, r3, #8
 1312 0016 9BB2     		uxth	r3, r3
 1313 0018 1343     		orr	r3, r2
 1314 001a 9BB2     		uxth	r3, r3
1146:.\Generated_Source\PSoC4/CYBLE.c **** }
 1315              		.loc 1 1146 0
 1316 001c 181C     		mov	r0, r3
 1317 001e BD46     		mov	sp, r7
 1318 0020 02B0     		add	sp, sp, #8
 1319              		@ sp needed
 1320 0022 80BD     		pop	{r7, pc}
 1321              		.cfi_endproc
 1322              	.LFE13:
 1323              		.size	CyBle_Get16ByPtr, .-CyBle_Get16ByPtr
 1324              		.section	.text.CyBle_Set16ByPtr,"ax",%progbits
 1325              		.align	2
 1326              		.global	CyBle_Set16ByPtr
 1327              		.code	16
 1328              		.thumb_func
 1329              		.type	CyBle_Set16ByPtr, %function
 1330              	CyBle_Set16ByPtr:
 1331              	.LFB14:
1147:.\Generated_Source\PSoC4/CYBLE.c **** 
1148:.\Generated_Source\PSoC4/CYBLE.c **** 
1149:.\Generated_Source\PSoC4/CYBLE.c **** /******************************************************************************
1150:.\Generated_Source\PSoC4/CYBLE.c **** ##Function Name: CyBle_Set16ByPtr
1151:.\Generated_Source\PSoC4/CYBLE.c **** *******************************************************************************
1152:.\Generated_Source\PSoC4/CYBLE.c **** 
1153:.\Generated_Source\PSoC4/CYBLE.c **** Summary:
1154:.\Generated_Source\PSoC4/CYBLE.c ****  Sets the two-bytes value by using a pointer to the LSB.
1155:.\Generated_Source\PSoC4/CYBLE.c **** 
1156:.\Generated_Source\PSoC4/CYBLE.c **** Parameters:
1157:.\Generated_Source\PSoC4/CYBLE.c ****  uint8 * ptr:   Pointer to the LSB of two-bytes data (little endian).
1158:.\Generated_Source\PSoC4/CYBLE.c ****  uint16 value:  Two-bytes data to be written.
1159:.\Generated_Source\PSoC4/CYBLE.c **** 
ARM GAS  C:\Users\jdmoussa\AppData\Local\Temp\ccsp17ZB.s 			page 45


1160:.\Generated_Source\PSoC4/CYBLE.c **** Return:
1161:.\Generated_Source\PSoC4/CYBLE.c ****  None
1162:.\Generated_Source\PSoC4/CYBLE.c **** 
1163:.\Generated_Source\PSoC4/CYBLE.c **** ******************************************************************************/
1164:.\Generated_Source\PSoC4/CYBLE.c **** void CyBle_Set16ByPtr(uint8 ptr[], uint16 value)
1165:.\Generated_Source\PSoC4/CYBLE.c **** {
 1332              		.loc 1 1165 0
 1333              		.cfi_startproc
 1334 0000 80B5     		push	{r7, lr}
 1335              		.cfi_def_cfa_offset 8
 1336              		.cfi_offset 7, -8
 1337              		.cfi_offset 14, -4
 1338 0002 82B0     		sub	sp, sp, #8
 1339              		.cfi_def_cfa_offset 16
 1340 0004 00AF     		add	r7, sp, #0
 1341              		.cfi_def_cfa_register 7
 1342 0006 7860     		str	r0, [r7, #4]
 1343 0008 0A1C     		mov	r2, r1
 1344 000a BB1C     		add	r3, r7, #2
 1345 000c 1A80     		strh	r2, [r3]
1166:.\Generated_Source\PSoC4/CYBLE.c ****     ptr[0u] = (uint8) value;
 1346              		.loc 1 1166 0
 1347 000e BB1C     		add	r3, r7, #2
 1348 0010 1B88     		ldrh	r3, [r3]
 1349 0012 DAB2     		uxtb	r2, r3
 1350 0014 7B68     		ldr	r3, [r7, #4]
 1351 0016 1A70     		strb	r2, [r3]
1167:.\Generated_Source\PSoC4/CYBLE.c ****     ptr[1u] = (uint8) (value >> 8u);
 1352              		.loc 1 1167 0
 1353 0018 7B68     		ldr	r3, [r7, #4]
 1354 001a 0133     		add	r3, r3, #1
 1355 001c BA1C     		add	r2, r7, #2
 1356 001e 1288     		ldrh	r2, [r2]
 1357 0020 120A     		lsr	r2, r2, #8
 1358 0022 92B2     		uxth	r2, r2
 1359 0024 D2B2     		uxtb	r2, r2
 1360 0026 1A70     		strb	r2, [r3]
1168:.\Generated_Source\PSoC4/CYBLE.c **** }
 1361              		.loc 1 1168 0
 1362 0028 BD46     		mov	sp, r7
 1363 002a 02B0     		add	sp, sp, #8
 1364              		@ sp needed
 1365 002c 80BD     		pop	{r7, pc}
 1366              		.cfi_endproc
 1367              	.LFE14:
 1368              		.size	CyBle_Set16ByPtr, .-CyBle_Set16ByPtr
 1369 002e C046     		.bss
 1370 0001 00000000 		.align	3
 1370      000000
 1371              	cyBle_stackMemoryRam.6149:
 1372 0008 00000000 		.space	3220
 1372      00000000 
 1372      00000000 
 1372      00000000 
 1372      00000000 
 1373 0c9c 00000000 		.text
 1374              	.Letext0:
ARM GAS  C:\Users\jdmoussa\AppData\Local\Temp\ccsp17ZB.s 			page 46


 1375              		.file 2 ".\\Generated_Source\\PSoC4\\cytypes.h"
 1376              		.file 3 ".\\Generated_Source\\PSoC4\\CYBLE_Stack.h"
 1377              		.file 4 ".\\Generated_Source\\PSoC4\\CYBLE_StackGap.h"
 1378              		.file 5 ".\\Generated_Source\\PSoC4\\CYBLE_StackGatt.h"
 1379              		.file 6 ".\\Generated_Source\\PSoC4\\CYBLE_StackGattDb.h"
 1380              		.file 7 ".\\Generated_Source\\PSoC4\\CYBLE.h"
 1381              		.file 8 ".\\Generated_Source\\PSoC4\\CYBLE_bls.h"
 1382              		.file 9 ".\\Generated_Source\\PSoC4\\CYBLE_dis.h"
 1383              		.file 10 ".\\Generated_Source\\PSoC4\\CYBLE_eventHandler.h"
 1384              		.file 11 ".\\Generated_Source\\PSoC4\\CYBLE_gatt.h"
 1385              		.section	.debug_info,"",%progbits
 1386              	.Ldebug_info0:
 1387 0000 DC0A0000 		.4byte	0xadc
 1388 0004 0400     		.2byte	0x4
 1389 0006 00000000 		.4byte	.Ldebug_abbrev0
 1390 000a 04       		.byte	0x4
 1391 000b 01       		.uleb128 0x1
 1392 000c 140C0000 		.4byte	.LASF210
 1393 0010 01       		.byte	0x1
 1394 0011 220D0000 		.4byte	.LASF211
 1395 0015 86000000 		.4byte	.LASF212
 1396 0019 00000000 		.4byte	.Ldebug_ranges0+0
 1397 001d 00000000 		.4byte	0
 1398 0021 00000000 		.4byte	.Ldebug_line0
 1399 0025 02       		.uleb128 0x2
 1400 0026 01       		.byte	0x1
 1401 0027 06       		.byte	0x6
 1402 0028 AC030000 		.4byte	.LASF0
 1403 002c 02       		.uleb128 0x2
 1404 002d 01       		.byte	0x1
 1405 002e 08       		.byte	0x8
 1406 002f 430D0000 		.4byte	.LASF1
 1407 0033 02       		.uleb128 0x2
 1408 0034 02       		.byte	0x2
 1409 0035 05       		.byte	0x5
 1410 0036 900D0000 		.4byte	.LASF2
 1411 003a 02       		.uleb128 0x2
 1412 003b 02       		.byte	0x2
 1413 003c 07       		.byte	0x7
 1414 003d 19100000 		.4byte	.LASF3
 1415 0041 02       		.uleb128 0x2
 1416 0042 04       		.byte	0x4
 1417 0043 05       		.byte	0x5
 1418 0044 27020000 		.4byte	.LASF4
 1419 0048 02       		.uleb128 0x2
 1420 0049 04       		.byte	0x4
 1421 004a 07       		.byte	0x7
 1422 004b 76070000 		.4byte	.LASF5
 1423 004f 02       		.uleb128 0x2
 1424 0050 08       		.byte	0x8
 1425 0051 05       		.byte	0x5
 1426 0052 9E030000 		.4byte	.LASF6
 1427 0056 02       		.uleb128 0x2
 1428 0057 08       		.byte	0x8
 1429 0058 07       		.byte	0x7
 1430 0059 B9060000 		.4byte	.LASF7
 1431 005d 03       		.uleb128 0x3
ARM GAS  C:\Users\jdmoussa\AppData\Local\Temp\ccsp17ZB.s 			page 47


 1432 005e 04       		.byte	0x4
 1433 005f 05       		.byte	0x5
 1434 0060 696E7400 		.ascii	"int\000"
 1435 0064 02       		.uleb128 0x2
 1436 0065 04       		.byte	0x4
 1437 0066 07       		.byte	0x7
 1438 0067 570F0000 		.4byte	.LASF8
 1439 006b 04       		.uleb128 0x4
 1440 006c 32050000 		.4byte	.LASF9
 1441 0070 02       		.byte	0x2
 1442 0071 A1       		.byte	0xa1
 1443 0072 2C000000 		.4byte	0x2c
 1444 0076 04       		.uleb128 0x4
 1445 0077 510D0000 		.4byte	.LASF10
 1446 007b 02       		.byte	0x2
 1447 007c A2       		.byte	0xa2
 1448 007d 3A000000 		.4byte	0x3a
 1449 0081 04       		.uleb128 0x4
 1450 0082 F2050000 		.4byte	.LASF11
 1451 0086 02       		.byte	0x2
 1452 0087 A3       		.byte	0xa3
 1453 0088 48000000 		.4byte	0x48
 1454 008c 02       		.uleb128 0x2
 1455 008d 04       		.byte	0x4
 1456 008e 04       		.byte	0x4
 1457 008f F60B0000 		.4byte	.LASF12
 1458 0093 02       		.uleb128 0x2
 1459 0094 08       		.byte	0x8
 1460 0095 04       		.byte	0x4
 1461 0096 6A050000 		.4byte	.LASF13
 1462 009a 04       		.uleb128 0x4
 1463 009b 890F0000 		.4byte	.LASF14
 1464 009f 02       		.byte	0x2
 1465 00a0 B2       		.byte	0xb2
 1466 00a1 A5000000 		.4byte	0xa5
 1467 00a5 02       		.uleb128 0x2
 1468 00a6 01       		.byte	0x1
 1469 00a7 08       		.byte	0x8
 1470 00a8 E10E0000 		.4byte	.LASF15
 1471 00ac 05       		.uleb128 0x5
 1472 00ad 6B000000 		.4byte	0x6b
 1473 00b1 02       		.uleb128 0x2
 1474 00b2 04       		.byte	0x4
 1475 00b3 07       		.byte	0x7
 1476 00b4 880A0000 		.4byte	.LASF16
 1477 00b8 06       		.uleb128 0x6
 1478 00b9 04       		.byte	0x4
 1479 00ba 07       		.uleb128 0x7
 1480 00bb 01       		.byte	0x1
 1481 00bc 03       		.byte	0x3
 1482 00bd 58       		.byte	0x58
 1483 00be 2A020000 		.4byte	0x22a
 1484 00c2 08       		.uleb128 0x8
 1485 00c3 64080000 		.4byte	.LASF17
 1486 00c7 00       		.sleb128 0
 1487 00c8 08       		.uleb128 0x8
 1488 00c9 B8030000 		.4byte	.LASF18
ARM GAS  C:\Users\jdmoussa\AppData\Local\Temp\ccsp17ZB.s 			page 48


 1489 00cd 01       		.sleb128 1
 1490 00ce 08       		.uleb128 0x8
 1491 00cf 15020000 		.4byte	.LASF19
 1492 00d3 02       		.sleb128 2
 1493 00d4 08       		.uleb128 0x8
 1494 00d5 00100000 		.4byte	.LASF20
 1495 00d9 03       		.sleb128 3
 1496 00da 08       		.uleb128 0x8
 1497 00db A8020000 		.4byte	.LASF21
 1498 00df 04       		.sleb128 4
 1499 00e0 08       		.uleb128 0x8
 1500 00e1 23000000 		.4byte	.LASF22
 1501 00e5 05       		.sleb128 5
 1502 00e6 08       		.uleb128 0x8
 1503 00e7 D3090000 		.4byte	.LASF23
 1504 00eb 20       		.sleb128 32
 1505 00ec 08       		.uleb128 0x8
 1506 00ed 15040000 		.4byte	.LASF24
 1507 00f1 21       		.sleb128 33
 1508 00f2 08       		.uleb128 0x8
 1509 00f3 A7080000 		.4byte	.LASF25
 1510 00f7 22       		.sleb128 34
 1511 00f8 08       		.uleb128 0x8
 1512 00f9 52090000 		.4byte	.LASF26
 1513 00fd 23       		.sleb128 35
 1514 00fe 08       		.uleb128 0x8
 1515 00ff FB0A0000 		.4byte	.LASF27
 1516 0103 24       		.sleb128 36
 1517 0104 08       		.uleb128 0x8
 1518 0105 B60A0000 		.4byte	.LASF28
 1519 0109 25       		.sleb128 37
 1520 010a 08       		.uleb128 0x8
 1521 010b D1040000 		.4byte	.LASF29
 1522 010f 26       		.sleb128 38
 1523 0110 08       		.uleb128 0x8
 1524 0111 CB080000 		.4byte	.LASF30
 1525 0115 27       		.sleb128 39
 1526 0116 08       		.uleb128 0x8
 1527 0117 1D0F0000 		.4byte	.LASF31
 1528 011b 28       		.sleb128 40
 1529 011c 08       		.uleb128 0x8
 1530 011d 46030000 		.4byte	.LASF32
 1531 0121 29       		.sleb128 41
 1532 0122 08       		.uleb128 0x8
 1533 0123 04010000 		.4byte	.LASF33
 1534 0127 2A       		.sleb128 42
 1535 0128 08       		.uleb128 0x8
 1536 0129 C5020000 		.4byte	.LASF34
 1537 012d 2B       		.sleb128 43
 1538 012e 08       		.uleb128 0x8
 1539 012f 2E120000 		.4byte	.LASF35
 1540 0133 2C       		.sleb128 44
 1541 0134 08       		.uleb128 0x8
 1542 0135 38060000 		.4byte	.LASF36
 1543 0139 C000     		.sleb128 64
 1544 013b 08       		.uleb128 0x8
 1545 013c 7E090000 		.4byte	.LASF37
ARM GAS  C:\Users\jdmoussa\AppData\Local\Temp\ccsp17ZB.s 			page 49


 1546 0140 C100     		.sleb128 65
 1547 0142 08       		.uleb128 0x8
 1548 0143 06130000 		.4byte	.LASF38
 1549 0147 C200     		.sleb128 66
 1550 0149 08       		.uleb128 0x8
 1551 014a 8A100000 		.4byte	.LASF39
 1552 014e C300     		.sleb128 67
 1553 0150 08       		.uleb128 0x8
 1554 0151 A2070000 		.4byte	.LASF40
 1555 0155 C400     		.sleb128 68
 1556 0157 08       		.uleb128 0x8
 1557 0158 CF0B0000 		.4byte	.LASF41
 1558 015c C500     		.sleb128 69
 1559 015e 08       		.uleb128 0x8
 1560 015f 4F0A0000 		.4byte	.LASF42
 1561 0163 C600     		.sleb128 70
 1562 0165 08       		.uleb128 0x8
 1563 0166 7B080000 		.4byte	.LASF43
 1564 016a C700     		.sleb128 71
 1565 016c 08       		.uleb128 0x8
 1566 016d F2110000 		.4byte	.LASF44
 1567 0171 C800     		.sleb128 72
 1568 0173 08       		.uleb128 0x8
 1569 0174 37040000 		.4byte	.LASF45
 1570 0178 C900     		.sleb128 73
 1571 017a 08       		.uleb128 0x8
 1572 017b 22110000 		.4byte	.LASF46
 1573 017f CA00     		.sleb128 74
 1574 0181 08       		.uleb128 0x8
 1575 0182 88010000 		.4byte	.LASF47
 1576 0186 CB00     		.sleb128 75
 1577 0188 08       		.uleb128 0x8
 1578 0189 88070000 		.4byte	.LASF48
 1579 018d CC00     		.sleb128 76
 1580 018f 08       		.uleb128 0x8
 1581 0190 E10A0000 		.4byte	.LASF49
 1582 0194 CD00     		.sleb128 77
 1583 0196 08       		.uleb128 0x8
 1584 0197 7A040000 		.4byte	.LASF50
 1585 019b CE00     		.sleb128 78
 1586 019d 08       		.uleb128 0x8
 1587 019e 0D0E0000 		.4byte	.LASF51
 1588 01a2 CF00     		.sleb128 79
 1589 01a4 08       		.uleb128 0x8
 1590 01a5 A7010000 		.4byte	.LASF52
 1591 01a9 D000     		.sleb128 80
 1592 01ab 08       		.uleb128 0x8
 1593 01ac 4B050000 		.4byte	.LASF53
 1594 01b0 D100     		.sleb128 81
 1595 01b2 08       		.uleb128 0x8
 1596 01b3 3F0B0000 		.4byte	.LASF54
 1597 01b7 D200     		.sleb128 82
 1598 01b9 08       		.uleb128 0x8
 1599 01ba 9A0D0000 		.4byte	.LASF55
 1600 01be D300     		.sleb128 83
 1601 01c0 08       		.uleb128 0x8
 1602 01c1 950E0000 		.4byte	.LASF56
ARM GAS  C:\Users\jdmoussa\AppData\Local\Temp\ccsp17ZB.s 			page 50


 1603 01c5 D400     		.sleb128 84
 1604 01c7 08       		.uleb128 0x8
 1605 01c8 C0070000 		.4byte	.LASF57
 1606 01cc D500     		.sleb128 85
 1607 01ce 08       		.uleb128 0x8
 1608 01cf 52060000 		.4byte	.LASF58
 1609 01d3 F000     		.sleb128 112
 1610 01d5 08       		.uleb128 0x8
 1611 01d6 A7120000 		.4byte	.LASF59
 1612 01da F100     		.sleb128 113
 1613 01dc 08       		.uleb128 0x8
 1614 01dd B7090000 		.4byte	.LASF60
 1615 01e1 F200     		.sleb128 114
 1616 01e3 08       		.uleb128 0x8
 1617 01e4 310A0000 		.4byte	.LASF61
 1618 01e8 F300     		.sleb128 115
 1619 01ea 08       		.uleb128 0x8
 1620 01eb B10B0000 		.4byte	.LASF62
 1621 01ef F400     		.sleb128 116
 1622 01f1 08       		.uleb128 0x8
 1623 01f2 71050000 		.4byte	.LASF63
 1624 01f6 F500     		.sleb128 117
 1625 01f8 08       		.uleb128 0x8
 1626 01f9 3B010000 		.4byte	.LASF64
 1627 01fd F600     		.sleb128 118
 1628 01ff 08       		.uleb128 0x8
 1629 0200 53000000 		.4byte	.LASF65
 1630 0204 F700     		.sleb128 119
 1631 0206 08       		.uleb128 0x8
 1632 0207 00000000 		.4byte	.LASF66
 1633 020b F800     		.sleb128 120
 1634 020d 08       		.uleb128 0x8
 1635 020e 63030000 		.4byte	.LASF67
 1636 0212 F900     		.sleb128 121
 1637 0214 08       		.uleb128 0x8
 1638 0215 78060000 		.4byte	.LASF68
 1639 0219 FA00     		.sleb128 122
 1640 021b 08       		.uleb128 0x8
 1641 021c 7E120000 		.4byte	.LASF69
 1642 0220 FA01     		.sleb128 250
 1643 0222 08       		.uleb128 0x8
 1644 0223 1B060000 		.4byte	.LASF70
 1645 0227 FF01     		.sleb128 255
 1646 0229 00       		.byte	0
 1647 022a 09       		.uleb128 0x9
 1648 022b 02       		.byte	0x2
 1649 022c 03       		.byte	0x3
 1650 022d 9A01     		.2byte	0x19a
 1651 022f F6020000 		.4byte	0x2f6
 1652 0233 08       		.uleb128 0x8
 1653 0234 29060000 		.4byte	.LASF71
 1654 0238 00       		.sleb128 0
 1655 0239 08       		.uleb128 0x8
 1656 023a 9B050000 		.4byte	.LASF72
 1657 023e 01       		.sleb128 1
 1658 023f 08       		.uleb128 0x8
 1659 0240 44100000 		.4byte	.LASF73
ARM GAS  C:\Users\jdmoussa\AppData\Local\Temp\ccsp17ZB.s 			page 51


 1660 0244 02       		.sleb128 2
 1661 0245 08       		.uleb128 0x8
 1662 0246 D6060000 		.4byte	.LASF74
 1663 024a 03       		.sleb128 3
 1664 024b 08       		.uleb128 0x8
 1665 024c 85020000 		.4byte	.LASF75
 1666 0250 04       		.sleb128 4
 1667 0251 08       		.uleb128 0x8
 1668 0252 FB060000 		.4byte	.LASF76
 1669 0256 05       		.sleb128 5
 1670 0257 08       		.uleb128 0x8
 1671 0258 D70D0000 		.4byte	.LASF77
 1672 025c 06       		.sleb128 6
 1673 025d 08       		.uleb128 0x8
 1674 025e ED030000 		.4byte	.LASF78
 1675 0262 07       		.sleb128 7
 1676 0263 08       		.uleb128 0x8
 1677 0264 B60E0000 		.4byte	.LASF79
 1678 0268 08       		.sleb128 8
 1679 0269 08       		.uleb128 0x8
 1680 026a 19120000 		.4byte	.LASF80
 1681 026e 09       		.sleb128 9
 1682 026f 08       		.uleb128 0x8
 1683 0270 F20C0000 		.4byte	.LASF81
 1684 0274 0A       		.sleb128 10
 1685 0275 08       		.uleb128 0x8
 1686 0276 FD0E0000 		.4byte	.LASF82
 1687 027a 0B       		.sleb128 11
 1688 027b 08       		.uleb128 0x8
 1689 027c 2F030000 		.4byte	.LASF83
 1690 0280 0C       		.sleb128 12
 1691 0281 08       		.uleb128 0x8
 1692 0282 60020000 		.4byte	.LASF84
 1693 0286 0D       		.sleb128 13
 1694 0287 08       		.uleb128 0x8
 1695 0288 40070000 		.4byte	.LASF85
 1696 028c 0E       		.sleb128 14
 1697 028d 08       		.uleb128 0x8
 1698 028e A8110000 		.4byte	.LASF86
 1699 0292 0F       		.sleb128 15
 1700 0293 08       		.uleb128 0x8
 1701 0294 D20F0000 		.4byte	.LASF87
 1702 0298 10       		.sleb128 16
 1703 0299 08       		.uleb128 0x8
 1704 029a 27080000 		.4byte	.LASF88
 1705 029e 11       		.sleb128 17
 1706 029f 08       		.uleb128 0x8
 1707 02a0 F9040000 		.4byte	.LASF89
 1708 02a4 12       		.sleb128 18
 1709 02a5 08       		.uleb128 0x8
 1710 02a6 24130000 		.4byte	.LASF90
 1711 02aa 13       		.sleb128 19
 1712 02ab 08       		.uleb128 0x8
 1713 02ac CB030000 		.4byte	.LASF91
 1714 02b0 27       		.sleb128 39
 1715 02b1 08       		.uleb128 0x8
 1716 02b2 AD0F0000 		.4byte	.LASF92
ARM GAS  C:\Users\jdmoussa\AppData\Local\Temp\ccsp17ZB.s 			page 52


 1717 02b6 28       		.sleb128 40
 1718 02b7 08       		.uleb128 0x8
 1719 02b8 7E110000 		.4byte	.LASF93
 1720 02bc 29       		.sleb128 41
 1721 02bd 08       		.uleb128 0x8
 1722 02be 210A0000 		.4byte	.LASF94
 1723 02c2 FF01     		.sleb128 255
 1724 02c4 08       		.uleb128 0x8
 1725 02c5 98040000 		.4byte	.LASF95
 1726 02c9 8002     		.sleb128 256
 1727 02cb 08       		.uleb128 0x8
 1728 02cc 69120000 		.4byte	.LASF96
 1729 02d0 8102     		.sleb128 257
 1730 02d2 08       		.uleb128 0x8
 1731 02d3 0B0A0000 		.4byte	.LASF97
 1732 02d7 8202     		.sleb128 258
 1733 02d9 08       		.uleb128 0x8
 1734 02da 4B080000 		.4byte	.LASF98
 1735 02de 8302     		.sleb128 259
 1736 02e0 08       		.uleb128 0x8
 1737 02e1 600B0000 		.4byte	.LASF99
 1738 02e5 8402     		.sleb128 260
 1739 02e7 08       		.uleb128 0x8
 1740 02e8 6D0D0000 		.4byte	.LASF100
 1741 02ec 8502     		.sleb128 261
 1742 02ee 08       		.uleb128 0x8
 1743 02ef 50040000 		.4byte	.LASF101
 1744 02f3 8602     		.sleb128 262
 1745 02f5 00       		.byte	0
 1746 02f6 0A       		.uleb128 0xa
 1747 02f7 210B0000 		.4byte	.LASF102
 1748 02fb 03       		.byte	0x3
 1749 02fc F401     		.2byte	0x1f4
 1750 02fe 2A020000 		.4byte	0x22a
 1751 0302 0B       		.uleb128 0xb
 1752 0303 07       		.byte	0x7
 1753 0304 03       		.byte	0x3
 1754 0305 7502     		.2byte	0x275
 1755 0307 26030000 		.4byte	0x326
 1756 030b 0C       		.uleb128 0xc
 1757 030c 44050000 		.4byte	.LASF103
 1758 0310 03       		.byte	0x3
 1759 0311 7702     		.2byte	0x277
 1760 0313 26030000 		.4byte	0x326
 1761 0317 00       		.byte	0
 1762 0318 0C       		.uleb128 0xc
 1763 0319 10020000 		.4byte	.LASF104
 1764 031d 03       		.byte	0x3
 1765 031e 7802     		.2byte	0x278
 1766 0320 6B000000 		.4byte	0x6b
 1767 0324 06       		.byte	0x6
 1768 0325 00       		.byte	0
 1769 0326 0D       		.uleb128 0xd
 1770 0327 6B000000 		.4byte	0x6b
 1771 032b 36030000 		.4byte	0x336
 1772 032f 0E       		.uleb128 0xe
 1773 0330 B1000000 		.4byte	0xb1
ARM GAS  C:\Users\jdmoussa\AppData\Local\Temp\ccsp17ZB.s 			page 53


 1774 0334 05       		.byte	0x5
 1775 0335 00       		.byte	0
 1776 0336 0A       		.uleb128 0xa
 1777 0337 1B030000 		.4byte	.LASF105
 1778 033b 03       		.byte	0x3
 1779 033c 7902     		.2byte	0x279
 1780 033e 02030000 		.4byte	0x302
 1781 0342 07       		.uleb128 0x7
 1782 0343 01       		.byte	0x1
 1783 0344 04       		.byte	0x4
 1784 0345 89       		.byte	0x89
 1785 0346 69030000 		.4byte	0x369
 1786 034a 08       		.uleb128 0x8
 1787 034b F5020000 		.4byte	.LASF106
 1788 034f 00       		.sleb128 0
 1789 0350 08       		.uleb128 0x8
 1790 0351 5C010000 		.4byte	.LASF107
 1791 0355 01       		.sleb128 1
 1792 0356 08       		.uleb128 0x8
 1793 0357 DB010000 		.4byte	.LASF108
 1794 035b 02       		.sleb128 2
 1795 035c 08       		.uleb128 0x8
 1796 035d F8100000 		.4byte	.LASF109
 1797 0361 03       		.sleb128 3
 1798 0362 08       		.uleb128 0x8
 1799 0363 370E0000 		.4byte	.LASF110
 1800 0367 04       		.sleb128 4
 1801 0368 00       		.byte	0
 1802 0369 04       		.uleb128 0x4
 1803 036a D9100000 		.4byte	.LASF111
 1804 036e 04       		.byte	0x4
 1805 036f 99       		.byte	0x99
 1806 0370 42030000 		.4byte	0x342
 1807 0374 0B       		.uleb128 0xb
 1808 0375 10       		.byte	0x10
 1809 0376 04       		.byte	0x4
 1810 0377 6701     		.2byte	0x167
 1811 0379 E6030000 		.4byte	0x3e6
 1812 037d 0C       		.uleb128 0xc
 1813 037e 2C0E0000 		.4byte	.LASF112
 1814 0382 04       		.byte	0x4
 1815 0383 6D01     		.2byte	0x16d
 1816 0385 76000000 		.4byte	0x76
 1817 0389 00       		.byte	0
 1818 038a 0C       		.uleb128 0xc
 1819 038b AD040000 		.4byte	.LASF113
 1820 038f 04       		.byte	0x4
 1821 0390 7301     		.2byte	0x173
 1822 0392 76000000 		.4byte	0x76
 1823 0396 02       		.byte	0x2
 1824 0397 0C       		.uleb128 0xc
 1825 0398 BD020000 		.4byte	.LASF114
 1826 039c 04       		.byte	0x4
 1827 039d 7C01     		.2byte	0x17c
 1828 039f 69030000 		.4byte	0x369
 1829 03a3 04       		.byte	0x4
 1830 03a4 0C       		.uleb128 0xc
ARM GAS  C:\Users\jdmoussa\AppData\Local\Temp\ccsp17ZB.s 			page 54


 1831 03a5 AA0A0000 		.4byte	.LASF115
 1832 03a9 04       		.byte	0x4
 1833 03aa 8201     		.2byte	0x182
 1834 03ac 6B000000 		.4byte	0x6b
 1835 03b0 05       		.byte	0x5
 1836 03b1 0C       		.uleb128 0xc
 1837 03b2 E30C0000 		.4byte	.LASF116
 1838 03b6 04       		.byte	0x4
 1839 03b7 8901     		.2byte	0x189
 1840 03b9 6B000000 		.4byte	0x6b
 1841 03bd 06       		.byte	0x6
 1842 03be 0C       		.uleb128 0xc
 1843 03bf 0A040000 		.4byte	.LASF117
 1844 03c3 04       		.byte	0x4
 1845 03c4 8F01     		.2byte	0x18f
 1846 03c6 26030000 		.4byte	0x326
 1847 03ca 07       		.byte	0x7
 1848 03cb 0C       		.uleb128 0xc
 1849 03cc 2D010000 		.4byte	.LASF118
 1850 03d0 04       		.byte	0x4
 1851 03d1 9701     		.2byte	0x197
 1852 03d3 6B000000 		.4byte	0x6b
 1853 03d7 0D       		.byte	0xd
 1854 03d8 0C       		.uleb128 0xc
 1855 03d9 6A040000 		.4byte	.LASF119
 1856 03dd 04       		.byte	0x4
 1857 03de A301     		.2byte	0x1a3
 1858 03e0 6B000000 		.4byte	0x6b
 1859 03e4 0E       		.byte	0xe
 1860 03e5 00       		.byte	0
 1861 03e6 0A       		.uleb128 0xa
 1862 03e7 710F0000 		.4byte	.LASF120
 1863 03eb 04       		.byte	0x4
 1864 03ec A501     		.2byte	0x1a5
 1865 03ee 74030000 		.4byte	0x374
 1866 03f2 0B       		.uleb128 0xb
 1867 03f3 20       		.byte	0x20
 1868 03f4 04       		.byte	0x4
 1869 03f5 A801     		.2byte	0x1a8
 1870 03f7 16040000 		.4byte	0x416
 1871 03fb 0C       		.uleb128 0xc
 1872 03fc 620E0000 		.4byte	.LASF121
 1873 0400 04       		.byte	0x4
 1874 0401 AB01     		.2byte	0x1ab
 1875 0403 16040000 		.4byte	0x416
 1876 0407 00       		.byte	0
 1877 0408 0C       		.uleb128 0xc
 1878 0409 E7110000 		.4byte	.LASF122
 1879 040d 04       		.byte	0x4
 1880 040e AE01     		.2byte	0x1ae
 1881 0410 6B000000 		.4byte	0x6b
 1882 0414 1F       		.byte	0x1f
 1883 0415 00       		.byte	0
 1884 0416 0D       		.uleb128 0xd
 1885 0417 6B000000 		.4byte	0x6b
 1886 041b 26040000 		.4byte	0x426
 1887 041f 0E       		.uleb128 0xe
ARM GAS  C:\Users\jdmoussa\AppData\Local\Temp\ccsp17ZB.s 			page 55


 1888 0420 B1000000 		.4byte	0xb1
 1889 0424 1E       		.byte	0x1e
 1890 0425 00       		.byte	0
 1891 0426 0A       		.uleb128 0xa
 1892 0427 ED000000 		.4byte	.LASF123
 1893 042b 04       		.byte	0x4
 1894 042c B001     		.2byte	0x1b0
 1895 042e F2030000 		.4byte	0x3f2
 1896 0432 0B       		.uleb128 0xb
 1897 0433 20       		.byte	0x20
 1898 0434 04       		.byte	0x4
 1899 0435 B301     		.2byte	0x1b3
 1900 0437 56040000 		.4byte	0x456
 1901 043b 0C       		.uleb128 0xc
 1902 043c 38050000 		.4byte	.LASF124
 1903 0440 04       		.byte	0x4
 1904 0441 B701     		.2byte	0x1b7
 1905 0443 16040000 		.4byte	0x416
 1906 0447 00       		.byte	0
 1907 0448 0C       		.uleb128 0xc
 1908 0449 04090000 		.4byte	.LASF125
 1909 044d 04       		.byte	0x4
 1910 044e BA01     		.2byte	0x1ba
 1911 0450 6B000000 		.4byte	0x6b
 1912 0454 1F       		.byte	0x1f
 1913 0455 00       		.byte	0
 1914 0456 0A       		.uleb128 0xa
 1915 0457 F8070000 		.4byte	.LASF126
 1916 045b 04       		.byte	0x4
 1917 045c BC01     		.2byte	0x1bc
 1918 045e 32040000 		.4byte	0x432
 1919 0462 0B       		.uleb128 0xb
 1920 0463 14       		.byte	0x14
 1921 0464 04       		.byte	0x4
 1922 0465 BF01     		.2byte	0x1bf
 1923 0467 AD040000 		.4byte	0x4ad
 1924 046b 0C       		.uleb128 0xc
 1925 046c 92050000 		.4byte	.LASF127
 1926 0470 04       		.byte	0x4
 1927 0471 C701     		.2byte	0x1c7
 1928 0473 6B000000 		.4byte	0x6b
 1929 0477 00       		.byte	0
 1930 0478 0C       		.uleb128 0xc
 1931 0479 D0100000 		.4byte	.LASF128
 1932 047d 04       		.byte	0x4
 1933 047e CA01     		.2byte	0x1ca
 1934 0480 AD040000 		.4byte	0x4ad
 1935 0484 04       		.byte	0x4
 1936 0485 0C       		.uleb128 0xc
 1937 0486 620E0000 		.4byte	.LASF121
 1938 048a 04       		.byte	0x4
 1939 048b CC01     		.2byte	0x1cc
 1940 048d B3040000 		.4byte	0x4b3
 1941 0491 08       		.byte	0x8
 1942 0492 0C       		.uleb128 0xc
 1943 0493 38050000 		.4byte	.LASF124
 1944 0497 04       		.byte	0x4
ARM GAS  C:\Users\jdmoussa\AppData\Local\Temp\ccsp17ZB.s 			page 56


 1945 0498 CE01     		.2byte	0x1ce
 1946 049a B9040000 		.4byte	0x4b9
 1947 049e 0C       		.byte	0xc
 1948 049f 0C       		.uleb128 0xc
 1949 04a0 00130000 		.4byte	.LASF129
 1950 04a4 04       		.byte	0x4
 1951 04a5 D801     		.2byte	0x1d8
 1952 04a7 76000000 		.4byte	0x76
 1953 04ab 10       		.byte	0x10
 1954 04ac 00       		.byte	0
 1955 04ad 0F       		.uleb128 0xf
 1956 04ae 04       		.byte	0x4
 1957 04af E6030000 		.4byte	0x3e6
 1958 04b3 0F       		.uleb128 0xf
 1959 04b4 04       		.byte	0x4
 1960 04b5 26040000 		.4byte	0x426
 1961 04b9 0F       		.uleb128 0xf
 1962 04ba 04       		.byte	0x4
 1963 04bb 56040000 		.4byte	0x456
 1964 04bf 0A       		.uleb128 0xa
 1965 04c0 B4100000 		.4byte	.LASF130
 1966 04c4 04       		.byte	0x4
 1967 04c5 DA01     		.2byte	0x1da
 1968 04c7 62040000 		.4byte	0x462
 1969 04cb 0F       		.uleb128 0xf
 1970 04cc 04       		.byte	0x4
 1971 04cd 6B000000 		.4byte	0x6b
 1972 04d1 0B       		.uleb128 0xb
 1973 04d2 02       		.byte	0x2
 1974 04d3 05       		.byte	0x5
 1975 04d4 5501     		.2byte	0x155
 1976 04d6 F5040000 		.4byte	0x4f5
 1977 04da 0C       		.uleb128 0xc
 1978 04db 60120000 		.4byte	.LASF131
 1979 04df 05       		.byte	0x5
 1980 04e0 5C01     		.2byte	0x15c
 1981 04e2 6B000000 		.4byte	0x6b
 1982 04e6 00       		.byte	0
 1983 04e7 0C       		.uleb128 0xc
 1984 04e8 78090000 		.4byte	.LASF132
 1985 04ec 05       		.byte	0x5
 1986 04ed 6201     		.2byte	0x162
 1987 04ef 6B000000 		.4byte	0x6b
 1988 04f3 01       		.byte	0x1
 1989 04f4 00       		.byte	0
 1990 04f5 0A       		.uleb128 0xa
 1991 04f6 72000000 		.4byte	.LASF133
 1992 04fa 05       		.byte	0x5
 1993 04fb 6401     		.2byte	0x164
 1994 04fd D1040000 		.4byte	0x4d1
 1995 0501 10       		.uleb128 0x10
 1996 0502 08       		.byte	0x8
 1997 0503 06       		.byte	0x6
 1998 0504 B8       		.byte	0xb8
 1999 0505 22050000 		.4byte	0x522
 2000 0509 11       		.uleb128 0x11
 2001 050a 3D100000 		.4byte	.LASF134
ARM GAS  C:\Users\jdmoussa\AppData\Local\Temp\ccsp17ZB.s 			page 57


 2002 050e 06       		.byte	0x6
 2003 050f BB       		.byte	0xbb
 2004 0510 76000000 		.4byte	0x76
 2005 0514 00       		.byte	0
 2006 0515 11       		.uleb128 0x11
 2007 0516 A30B0000 		.4byte	.LASF135
 2008 051a 06       		.byte	0x6
 2009 051b C0       		.byte	0xc0
 2010 051c B8000000 		.4byte	0xb8
 2011 0520 04       		.byte	0x4
 2012 0521 00       		.byte	0
 2013 0522 04       		.uleb128 0x4
 2014 0523 8F0F0000 		.4byte	.LASF136
 2015 0527 06       		.byte	0x6
 2016 0528 C2       		.byte	0xc2
 2017 0529 01050000 		.4byte	0x501
 2018 052d 12       		.uleb128 0x12
 2019 052e 08       		.byte	0x8
 2020 052f 06       		.byte	0x6
 2021 0530 C5       		.byte	0xc5
 2022 0531 4C050000 		.4byte	0x54c
 2023 0535 13       		.uleb128 0x13
 2024 0536 E9070000 		.4byte	.LASF137
 2025 053a 06       		.byte	0x6
 2026 053b CC       		.byte	0xcc
 2027 053c 22050000 		.4byte	0x522
 2028 0540 13       		.uleb128 0x13
 2029 0541 7E0B0000 		.4byte	.LASF138
 2030 0545 06       		.byte	0x6
 2031 0546 CF       		.byte	0xcf
 2032 0547 76000000 		.4byte	0x76
 2033 054b 00       		.byte	0
 2034 054c 04       		.uleb128 0x4
 2035 054d B9050000 		.4byte	.LASF139
 2036 0551 06       		.byte	0x6
 2037 0552 D1       		.byte	0xd1
 2038 0553 2D050000 		.4byte	0x52d
 2039 0557 10       		.uleb128 0x10
 2040 0558 14       		.byte	0x14
 2041 0559 06       		.byte	0x6
 2042 055a D4       		.byte	0xd4
 2043 055b 9C050000 		.4byte	0x59c
 2044 055f 11       		.uleb128 0x11
 2045 0560 E8050000 		.4byte	.LASF140
 2046 0564 06       		.byte	0x6
 2047 0565 D7       		.byte	0xd7
 2048 0566 76000000 		.4byte	0x76
 2049 056a 00       		.byte	0
 2050 056b 11       		.uleb128 0x11
 2051 056c 9C060000 		.4byte	.LASF141
 2052 0570 06       		.byte	0x6
 2053 0571 DD       		.byte	0xdd
 2054 0572 76000000 		.4byte	0x76
 2055 0576 02       		.byte	0x2
 2056 0577 11       		.uleb128 0x11
 2057 0578 2C040000 		.4byte	.LASF142
 2058 057c 06       		.byte	0x6
ARM GAS  C:\Users\jdmoussa\AppData\Local\Temp\ccsp17ZB.s 			page 58


 2059 057d E7       		.byte	0xe7
 2060 057e 81000000 		.4byte	0x81
 2061 0582 04       		.byte	0x4
 2062 0583 11       		.uleb128 0x11
 2063 0584 640F0000 		.4byte	.LASF143
 2064 0588 06       		.byte	0x6
 2065 0589 EA       		.byte	0xea
 2066 058a 76000000 		.4byte	0x76
 2067 058e 08       		.byte	0x8
 2068 058f 11       		.uleb128 0x11
 2069 0590 190D0000 		.4byte	.LASF144
 2070 0594 06       		.byte	0x6
 2071 0595 F3       		.byte	0xf3
 2072 0596 4C050000 		.4byte	0x54c
 2073 059a 0C       		.byte	0xc
 2074 059b 00       		.byte	0
 2075 059c 04       		.uleb128 0x4
 2076 059d 2C100000 		.4byte	.LASF145
 2077 05a1 06       		.byte	0x6
 2078 05a2 F4       		.byte	0xf4
 2079 05a3 57050000 		.4byte	0x557
 2080 05a7 0A       		.uleb128 0xa
 2081 05a8 79100000 		.4byte	.LASF146
 2082 05ac 07       		.byte	0x7
 2083 05ad 0001     		.2byte	0x100
 2084 05af B3050000 		.4byte	0x5b3
 2085 05b3 0F       		.uleb128 0xf
 2086 05b4 04       		.byte	0x4
 2087 05b5 B9050000 		.4byte	0x5b9
 2088 05b9 14       		.uleb128 0x14
 2089 05ba C9050000 		.4byte	0x5c9
 2090 05be 15       		.uleb128 0x15
 2091 05bf 81000000 		.4byte	0x81
 2092 05c3 15       		.uleb128 0x15
 2093 05c4 B8000000 		.4byte	0xb8
 2094 05c8 00       		.byte	0
 2095 05c9 07       		.uleb128 0x7
 2096 05ca 01       		.byte	0x1
 2097 05cb 08       		.byte	0x8
 2098 05cc 1D       		.byte	0x1d
 2099 05cd EA050000 		.4byte	0x5ea
 2100 05d1 08       		.uleb128 0x8
 2101 05d2 9A110000 		.4byte	.LASF147
 2102 05d6 00       		.sleb128 0
 2103 05d7 08       		.uleb128 0x8
 2104 05d8 52120000 		.4byte	.LASF148
 2105 05dc 01       		.sleb128 1
 2106 05dd 08       		.uleb128 0x8
 2107 05de 40110000 		.4byte	.LASF149
 2108 05e2 02       		.sleb128 2
 2109 05e3 08       		.uleb128 0x8
 2110 05e4 A4060000 		.4byte	.LASF150
 2111 05e8 03       		.sleb128 3
 2112 05e9 00       		.byte	0
 2113 05ea 07       		.uleb128 0x7
 2114 05eb 01       		.byte	0x1
 2115 05ec 09       		.byte	0x9
ARM GAS  C:\Users\jdmoussa\AppData\Local\Temp\ccsp17ZB.s 			page 59


 2116 05ed 1D       		.byte	0x1d
 2117 05ee 2F060000 		.4byte	0x62f
 2118 05f2 08       		.uleb128 0x8
 2119 05f3 E4120000 		.4byte	.LASF151
 2120 05f7 00       		.sleb128 0
 2121 05f8 08       		.uleb128 0x8
 2122 05f9 E60E0000 		.4byte	.LASF152
 2123 05fd 01       		.sleb128 1
 2124 05fe 08       		.uleb128 0x8
 2125 05ff CB0C0000 		.4byte	.LASF153
 2126 0603 02       		.sleb128 2
 2127 0604 08       		.uleb128 0x8
 2128 0605 04060000 		.4byte	.LASF154
 2129 0609 03       		.sleb128 3
 2130 060a 08       		.uleb128 0x8
 2131 060b D1050000 		.4byte	.LASF155
 2132 060f 04       		.sleb128 4
 2133 0610 08       		.uleb128 0x8
 2134 0611 F60D0000 		.4byte	.LASF156
 2135 0615 05       		.sleb128 5
 2136 0616 08       		.uleb128 0x8
 2137 0617 F7090000 		.4byte	.LASF157
 2138 061b 06       		.sleb128 6
 2139 061c 08       		.uleb128 0x8
 2140 061d 8B0B0000 		.4byte	.LASF158
 2141 0621 07       		.sleb128 7
 2142 0622 08       		.uleb128 0x8
 2143 0623 35090000 		.4byte	.LASF159
 2144 0627 08       		.sleb128 8
 2145 0628 08       		.uleb128 0x8
 2146 0629 580D0000 		.4byte	.LASF160
 2147 062d 09       		.sleb128 9
 2148 062e 00       		.byte	0
 2149 062f 09       		.uleb128 0x9
 2150 0630 01       		.byte	0x1
 2151 0631 0A       		.byte	0xa
 2152 0632 9505     		.2byte	0x595
 2153 0634 57060000 		.4byte	0x657
 2154 0638 08       		.uleb128 0x8
 2155 0639 3F000000 		.4byte	.LASF161
 2156 063d 00       		.sleb128 0
 2157 063e 08       		.uleb128 0x8
 2158 063f 910A0000 		.4byte	.LASF162
 2159 0643 01       		.sleb128 1
 2160 0644 08       		.uleb128 0x8
 2161 0645 99090000 		.4byte	.LASF163
 2162 0649 02       		.sleb128 2
 2163 064a 08       		.uleb128 0x8
 2164 064b 86030000 		.4byte	.LASF164
 2165 064f 03       		.sleb128 3
 2166 0650 08       		.uleb128 0x8
 2167 0651 B8040000 		.4byte	.LASF165
 2168 0655 04       		.sleb128 4
 2169 0656 00       		.byte	0
 2170 0657 0A       		.uleb128 0xa
 2171 0658 EA100000 		.4byte	.LASF166
 2172 065c 0A       		.byte	0xa
ARM GAS  C:\Users\jdmoussa\AppData\Local\Temp\ccsp17ZB.s 			page 60


 2173 065d A305     		.2byte	0x5a3
 2174 065f 2F060000 		.4byte	0x62f
 2175 0663 16       		.uleb128 0x16
 2176 0664 9C120000 		.4byte	.LASF167
 2177 0668 01       		.byte	0x1
 2178 0669 87       		.byte	0x87
 2179 066a 00000000 		.4byte	.LFB2
 2180 066e 34000000 		.4byte	.LFE2-.LFB2
 2181 0672 01       		.uleb128 0x1
 2182 0673 9C       		.byte	0x9c
 2183 0674 16       		.uleb128 0x16
 2184 0675 2E070000 		.4byte	.LASF168
 2185 0679 01       		.byte	0x1
 2186 067a BB       		.byte	0xbb
 2187 067b 00000000 		.4byte	.LFB3
 2188 067f 14000000 		.4byte	.LFE3-.LFB3
 2189 0683 01       		.uleb128 0x1
 2190 0684 9C       		.byte	0x9c
 2191 0685 17       		.uleb128 0x17
 2192 0686 13090000 		.4byte	.LASF172
 2193 068a 01       		.byte	0x1
 2194 068b 4201     		.2byte	0x142
 2195 068d F6020000 		.4byte	0x2f6
 2196 0691 00000000 		.4byte	.LFB4
 2197 0695 90000000 		.4byte	.LFE4-.LFB4
 2198 0699 01       		.uleb128 0x1
 2199 069a 9C       		.byte	0x9c
 2200 069b D0060000 		.4byte	0x6d0
 2201 069f 18       		.uleb128 0x18
 2202 06a0 0C0D0000 		.4byte	.LASF174
 2203 06a4 01       		.byte	0x1
 2204 06a5 4201     		.2byte	0x142
 2205 06a7 A7050000 		.4byte	0x5a7
 2206 06ab 02       		.uleb128 0x2
 2207 06ac 91       		.byte	0x91
 2208 06ad 64       		.sleb128 -28
 2209 06ae 19       		.uleb128 0x19
 2210 06af 170B0000 		.4byte	.LASF169
 2211 06b3 01       		.byte	0x1
 2212 06b4 4401     		.2byte	0x144
 2213 06b6 F6020000 		.4byte	0x2f6
 2214 06ba 02       		.uleb128 0x2
 2215 06bb 91       		.byte	0x91
 2216 06bc 6E       		.sleb128 -18
 2217 06bd 19       		.uleb128 0x19
 2218 06be C6010000 		.4byte	.LASF170
 2219 06c2 01       		.byte	0x1
 2220 06c3 4701     		.2byte	0x147
 2221 06c5 D0060000 		.4byte	0x6d0
 2222 06c9 05       		.uleb128 0x5
 2223 06ca 03       		.byte	0x3
 2224 06cb 08000000 		.4byte	cyBle_stackMemoryRam.6149
 2225 06cf 00       		.byte	0
 2226 06d0 0D       		.uleb128 0xd
 2227 06d1 6B000000 		.4byte	0x6b
 2228 06d5 E1060000 		.4byte	0x6e1
 2229 06d9 1A       		.uleb128 0x1a
ARM GAS  C:\Users\jdmoussa\AppData\Local\Temp\ccsp17ZB.s 			page 61


 2230 06da B1000000 		.4byte	0xb1
 2231 06de 930C     		.2byte	0xc93
 2232 06e0 00       		.byte	0
 2233 06e1 1B       		.uleb128 0x1b
 2234 06e2 340B0000 		.4byte	.LASF171
 2235 06e6 01       		.byte	0x1
 2236 06e7 7801     		.2byte	0x178
 2237 06e9 00000000 		.4byte	.LFB5
 2238 06ed 1C000000 		.4byte	.LFE5-.LFB5
 2239 06f1 01       		.uleb128 0x1
 2240 06f2 9C       		.byte	0x9c
 2241 06f3 17       		.uleb128 0x17
 2242 06f4 62100000 		.4byte	.LASF173
 2243 06f8 01       		.byte	0x1
 2244 06f9 A101     		.2byte	0x1a1
 2245 06fb F6020000 		.4byte	0x2f6
 2246 06ff 00000000 		.4byte	.LFB6
 2247 0703 DC000000 		.4byte	.LFE6-.LFB6
 2248 0707 01       		.uleb128 0x1
 2249 0708 9C       		.byte	0x9c
 2250 0709 2C070000 		.4byte	0x72c
 2251 070d 18       		.uleb128 0x18
 2252 070e 69070000 		.4byte	.LASF175
 2253 0712 01       		.byte	0x1
 2254 0713 A101     		.2byte	0x1a1
 2255 0715 6B000000 		.4byte	0x6b
 2256 0719 02       		.uleb128 0x2
 2257 071a 91       		.byte	0x91
 2258 071b 67       		.sleb128 -25
 2259 071c 19       		.uleb128 0x19
 2260 071d 170B0000 		.4byte	.LASF169
 2261 0721 01       		.byte	0x1
 2262 0722 A301     		.2byte	0x1a3
 2263 0724 F6020000 		.4byte	0x2f6
 2264 0728 02       		.uleb128 0x2
 2265 0729 91       		.byte	0x91
 2266 072a 6E       		.sleb128 -18
 2267 072b 00       		.byte	0
 2268 072c 17       		.uleb128 0x17
 2269 072d AE0C0000 		.4byte	.LASF176
 2270 0731 01       		.byte	0x1
 2271 0732 FA01     		.2byte	0x1fa
 2272 0734 F6020000 		.4byte	0x2f6
 2273 0738 00000000 		.4byte	.LFB7
 2274 073c C4000000 		.4byte	.LFE7-.LFB7
 2275 0740 01       		.uleb128 0x1
 2276 0741 9C       		.byte	0x9c
 2277 0742 65070000 		.4byte	0x765
 2278 0746 18       		.uleb128 0x18
 2279 0747 3F0F0000 		.4byte	.LASF177
 2280 074b 01       		.byte	0x1
 2281 074c FA01     		.2byte	0x1fa
 2282 074e 6B000000 		.4byte	0x6b
 2283 0752 02       		.uleb128 0x2
 2284 0753 91       		.byte	0x91
 2285 0754 67       		.sleb128 -25
 2286 0755 19       		.uleb128 0x19
ARM GAS  C:\Users\jdmoussa\AppData\Local\Temp\ccsp17ZB.s 			page 62


 2287 0756 170B0000 		.4byte	.LASF169
 2288 075a 01       		.byte	0x1
 2289 075b FC01     		.2byte	0x1fc
 2290 075d F6020000 		.4byte	0x2f6
 2291 0761 02       		.uleb128 0x2
 2292 0762 91       		.byte	0x91
 2293 0763 6E       		.sleb128 -18
 2294 0764 00       		.byte	0
 2295 0765 1B       		.uleb128 0x1b
 2296 0766 30020000 		.4byte	.LASF178
 2297 076a 01       		.byte	0x1
 2298 076b 3702     		.2byte	0x237
 2299 076d 00000000 		.4byte	.LFB8
 2300 0771 20000000 		.4byte	.LFE8-.LFB8
 2301 0775 01       		.uleb128 0x1
 2302 0776 9C       		.byte	0x9c
 2303 0777 1C       		.uleb128 0x1c
 2304 0778 BB0D0000 		.4byte	.LASF190
 2305 077c 01       		.byte	0x1
 2306 077d 4F02     		.2byte	0x24f
 2307 077f 00000000 		.4byte	.LFB9
 2308 0783 60000000 		.4byte	.LFE9-.LFB9
 2309 0787 01       		.uleb128 0x1
 2310 0788 9C       		.byte	0x9c
 2311 0789 C8070000 		.4byte	0x7c8
 2312 078d 18       		.uleb128 0x18
 2313 078e 44050000 		.4byte	.LASF103
 2314 0792 01       		.byte	0x1
 2315 0793 4F02     		.2byte	0x24f
 2316 0795 C8070000 		.4byte	0x7c8
 2317 0799 02       		.uleb128 0x2
 2318 079a 91       		.byte	0x91
 2319 079b 6C       		.sleb128 -20
 2320 079c 18       		.uleb128 0x18
 2321 079d 790B0000 		.4byte	.LASF179
 2322 07a1 01       		.byte	0x1
 2323 07a2 4F02     		.2byte	0x24f
 2324 07a4 6B000000 		.4byte	0x6b
 2325 07a8 02       		.uleb128 0x2
 2326 07a9 91       		.byte	0x91
 2327 07aa 6B       		.sleb128 -21
 2328 07ab 1D       		.uleb128 0x1d
 2329 07ac 6900     		.ascii	"i\000"
 2330 07ae 01       		.byte	0x1
 2331 07af 5102     		.2byte	0x251
 2332 07b1 6B000000 		.4byte	0x6b
 2333 07b5 02       		.uleb128 0x2
 2334 07b6 91       		.byte	0x91
 2335 07b7 77       		.sleb128 -9
 2336 07b8 19       		.uleb128 0x19
 2337 07b9 F9050000 		.4byte	.LASF180
 2338 07bd 01       		.byte	0x1
 2339 07be 5202     		.2byte	0x252
 2340 07c0 CB040000 		.4byte	0x4cb
 2341 07c4 02       		.uleb128 0x2
 2342 07c5 91       		.byte	0x91
 2343 07c6 70       		.sleb128 -16
ARM GAS  C:\Users\jdmoussa\AppData\Local\Temp\ccsp17ZB.s 			page 63


 2344 07c7 00       		.byte	0
 2345 07c8 0F       		.uleb128 0xf
 2346 07c9 04       		.byte	0x4
 2347 07ca CE070000 		.4byte	0x7ce
 2348 07ce 1E       		.uleb128 0x1e
 2349 07cf 36030000 		.4byte	0x336
 2350 07d3 1F       		.uleb128 0x1f
 2351 07d4 7D0E0000 		.4byte	.LASF213
 2352 07d8 01       		.byte	0x1
 2353 07d9 9303     		.2byte	0x393
 2354 07db 00000000 		.4byte	.LFB10
 2355 07df A0010000 		.4byte	.LFE10-.LFB10
 2356 07e3 01       		.uleb128 0x1
 2357 07e4 9C       		.byte	0x9c
 2358 07e5 60080000 		.4byte	0x860
 2359 07e9 18       		.uleb128 0x18
 2360 07ea E4070000 		.4byte	.LASF181
 2361 07ee 01       		.byte	0x1
 2362 07ef 9303     		.2byte	0x393
 2363 07f1 60080000 		.4byte	0x860
 2364 07f5 02       		.uleb128 0x2
 2365 07f6 91       		.byte	0x91
 2366 07f7 64       		.sleb128 -28
 2367 07f8 18       		.uleb128 0x18
 2368 07f9 790B0000 		.4byte	.LASF179
 2369 07fd 01       		.byte	0x1
 2370 07fe 9303     		.2byte	0x393
 2371 0800 6B000000 		.4byte	0x6b
 2372 0804 02       		.uleb128 0x2
 2373 0805 91       		.byte	0x91
 2374 0806 63       		.sleb128 -29
 2375 0807 1D       		.uleb128 0x1d
 2376 0808 6900     		.ascii	"i\000"
 2377 080a 01       		.byte	0x1
 2378 080b 9503     		.2byte	0x395
 2379 080d 6B000000 		.4byte	0x6b
 2380 0811 02       		.uleb128 0x2
 2381 0812 91       		.byte	0x91
 2382 0813 77       		.sleb128 -9
 2383 0814 19       		.uleb128 0x19
 2384 0815 F10D0000 		.4byte	.LASF182
 2385 0819 01       		.byte	0x1
 2386 081a 9603     		.2byte	0x396
 2387 081c 6B000000 		.4byte	0x6b
 2388 0820 02       		.uleb128 0x2
 2389 0821 91       		.byte	0x91
 2390 0822 76       		.sleb128 -10
 2391 0823 19       		.uleb128 0x19
 2392 0824 EA080000 		.4byte	.LASF183
 2393 0828 01       		.byte	0x1
 2394 0829 9703     		.2byte	0x397
 2395 082b 6B000000 		.4byte	0x6b
 2396 082f 02       		.uleb128 0x2
 2397 0830 91       		.byte	0x91
 2398 0831 75       		.sleb128 -11
 2399 0832 19       		.uleb128 0x19
 2400 0833 A8100000 		.4byte	.LASF184
ARM GAS  C:\Users\jdmoussa\AppData\Local\Temp\ccsp17ZB.s 			page 64


 2401 0837 01       		.byte	0x1
 2402 0838 9803     		.2byte	0x398
 2403 083a 6B000000 		.4byte	0x6b
 2404 083e 02       		.uleb128 0x2
 2405 083f 91       		.byte	0x91
 2406 0840 74       		.sleb128 -12
 2407 0841 19       		.uleb128 0x19
 2408 0842 F9050000 		.4byte	.LASF180
 2409 0846 01       		.byte	0x1
 2410 0847 9903     		.2byte	0x399
 2411 0849 CB040000 		.4byte	0x4cb
 2412 084d 02       		.uleb128 0x2
 2413 084e 91       		.byte	0x91
 2414 084f 70       		.sleb128 -16
 2415 0850 19       		.uleb128 0x19
 2416 0851 4E110000 		.4byte	.LASF185
 2417 0855 01       		.byte	0x1
 2418 0856 9A03     		.2byte	0x39a
 2419 0858 6B000000 		.4byte	0x6b
 2420 085c 02       		.uleb128 0x2
 2421 085d 91       		.byte	0x91
 2422 085e 6F       		.sleb128 -17
 2423 085f 00       		.byte	0
 2424 0860 0F       		.uleb128 0xf
 2425 0861 04       		.byte	0x4
 2426 0862 66080000 		.4byte	0x866
 2427 0866 1E       		.uleb128 0x1e
 2428 0867 9A000000 		.4byte	0x9a
 2429 086b 17       		.uleb128 0x17
 2430 086c 1C050000 		.4byte	.LASF186
 2431 0870 01       		.byte	0x1
 2432 0871 FC03     		.2byte	0x3fc
 2433 0873 F6020000 		.4byte	0x2f6
 2434 0877 00000000 		.4byte	.LFB11
 2435 087b B8000000 		.4byte	.LFE11-.LFB11
 2436 087f 01       		.uleb128 0x1
 2437 0880 9C       		.byte	0x9c
 2438 0881 CF080000 		.4byte	0x8cf
 2439 0885 18       		.uleb128 0x18
 2440 0886 E4070000 		.4byte	.LASF181
 2441 088a 01       		.byte	0x1
 2442 088b FC03     		.2byte	0x3fc
 2443 088d 60080000 		.4byte	0x860
 2444 0891 02       		.uleb128 0x2
 2445 0892 91       		.byte	0x91
 2446 0893 64       		.sleb128 -28
 2447 0894 19       		.uleb128 0x19
 2448 0895 170B0000 		.4byte	.LASF169
 2449 0899 01       		.byte	0x1
 2450 089a FE03     		.2byte	0x3fe
 2451 089c F6020000 		.4byte	0x2f6
 2452 08a0 02       		.uleb128 0x2
 2453 08a1 91       		.byte	0x91
 2454 08a2 76       		.sleb128 -10
 2455 08a3 1D       		.uleb128 0x1d
 2456 08a4 6900     		.ascii	"i\000"
 2457 08a6 01       		.byte	0x1
ARM GAS  C:\Users\jdmoussa\AppData\Local\Temp\ccsp17ZB.s 			page 65


 2458 08a7 FF03     		.2byte	0x3ff
 2459 08a9 6B000000 		.4byte	0x6b
 2460 08ad 02       		.uleb128 0x2
 2461 08ae 91       		.byte	0x91
 2462 08af 75       		.sleb128 -11
 2463 08b0 1D       		.uleb128 0x1d
 2464 08b1 70747200 		.ascii	"ptr\000"
 2465 08b5 01       		.byte	0x1
 2466 08b6 0004     		.2byte	0x400
 2467 08b8 CF080000 		.4byte	0x8cf
 2468 08bc 02       		.uleb128 0x2
 2469 08bd 91       		.byte	0x91
 2470 08be 70       		.sleb128 -16
 2471 08bf 19       		.uleb128 0x19
 2472 08c0 AF090000 		.4byte	.LASF187
 2473 08c4 01       		.byte	0x1
 2474 08c5 0104     		.2byte	0x401
 2475 08c7 6B000000 		.4byte	0x6b
 2476 08cb 02       		.uleb128 0x2
 2477 08cc 91       		.byte	0x91
 2478 08cd 6F       		.sleb128 -17
 2479 08ce 00       		.byte	0
 2480 08cf 0F       		.uleb128 0xf
 2481 08d0 04       		.byte	0x4
 2482 08d1 9A000000 		.4byte	0x9a
 2483 08d5 20       		.uleb128 0x20
 2484 08d6 1F090000 		.4byte	.LASF188
 2485 08da 01       		.byte	0x1
 2486 08db 4304     		.2byte	0x443
 2487 08dd F6020000 		.4byte	0x2f6
 2488 08e1 00000000 		.4byte	.LFB12
 2489 08e5 A4000000 		.4byte	.LFE12-.LFB12
 2490 08e9 01       		.uleb128 0x1
 2491 08ea 9C       		.byte	0x9c
 2492 08eb 39090000 		.4byte	0x939
 2493 08ef 18       		.uleb128 0x18
 2494 08f0 E4070000 		.4byte	.LASF181
 2495 08f4 01       		.byte	0x1
 2496 08f5 4304     		.2byte	0x443
 2497 08f7 CF080000 		.4byte	0x8cf
 2498 08fb 02       		.uleb128 0x2
 2499 08fc 91       		.byte	0x91
 2500 08fd 64       		.sleb128 -28
 2501 08fe 19       		.uleb128 0x19
 2502 08ff 170B0000 		.4byte	.LASF169
 2503 0903 01       		.byte	0x1
 2504 0904 4504     		.2byte	0x445
 2505 0906 F6020000 		.4byte	0x2f6
 2506 090a 02       		.uleb128 0x2
 2507 090b 91       		.byte	0x91
 2508 090c 76       		.sleb128 -10
 2509 090d 19       		.uleb128 0x19
 2510 090e AF090000 		.4byte	.LASF187
 2511 0912 01       		.byte	0x1
 2512 0913 4604     		.2byte	0x446
 2513 0915 6B000000 		.4byte	0x6b
 2514 0919 02       		.uleb128 0x2
ARM GAS  C:\Users\jdmoussa\AppData\Local\Temp\ccsp17ZB.s 			page 66


 2515 091a 91       		.byte	0x91
 2516 091b 6F       		.sleb128 -17
 2517 091c 1D       		.uleb128 0x1d
 2518 091d 6900     		.ascii	"i\000"
 2519 091f 01       		.byte	0x1
 2520 0920 4704     		.2byte	0x447
 2521 0922 6B000000 		.4byte	0x6b
 2522 0926 02       		.uleb128 0x2
 2523 0927 91       		.byte	0x91
 2524 0928 75       		.sleb128 -11
 2525 0929 1D       		.uleb128 0x1d
 2526 092a 70747200 		.ascii	"ptr\000"
 2527 092e 01       		.byte	0x1
 2528 092f 4804     		.2byte	0x448
 2529 0931 CF080000 		.4byte	0x8cf
 2530 0935 02       		.uleb128 0x2
 2531 0936 91       		.byte	0x91
 2532 0937 70       		.sleb128 -16
 2533 0938 00       		.byte	0
 2534 0939 20       		.uleb128 0x20
 2535 093a FF010000 		.4byte	.LASF189
 2536 093e 01       		.byte	0x1
 2537 093f 7704     		.2byte	0x477
 2538 0941 76000000 		.4byte	0x76
 2539 0945 00000000 		.4byte	.LFB13
 2540 0949 24000000 		.4byte	.LFE13-.LFB13
 2541 094d 01       		.uleb128 0x1
 2542 094e 9C       		.byte	0x9c
 2543 094f 63090000 		.4byte	0x963
 2544 0953 21       		.uleb128 0x21
 2545 0954 70747200 		.ascii	"ptr\000"
 2546 0958 01       		.byte	0x1
 2547 0959 7704     		.2byte	0x477
 2548 095b 63090000 		.4byte	0x963
 2549 095f 02       		.uleb128 0x2
 2550 0960 91       		.byte	0x91
 2551 0961 74       		.sleb128 -12
 2552 0962 00       		.byte	0
 2553 0963 0F       		.uleb128 0xf
 2554 0964 04       		.byte	0x4
 2555 0965 69090000 		.4byte	0x969
 2556 0969 1E       		.uleb128 0x1e
 2557 096a 6B000000 		.4byte	0x6b
 2558 096e 1C       		.uleb128 0x1c
 2559 096f F3080000 		.4byte	.LASF191
 2560 0973 01       		.byte	0x1
 2561 0974 8C04     		.2byte	0x48c
 2562 0976 00000000 		.4byte	.LFB14
 2563 097a 2E000000 		.4byte	.LFE14-.LFB14
 2564 097e 01       		.uleb128 0x1
 2565 097f 9C       		.byte	0x9c
 2566 0980 A3090000 		.4byte	0x9a3
 2567 0984 21       		.uleb128 0x21
 2568 0985 70747200 		.ascii	"ptr\000"
 2569 0989 01       		.byte	0x1
 2570 098a 8C04     		.2byte	0x48c
 2571 098c CB040000 		.4byte	0x4cb
ARM GAS  C:\Users\jdmoussa\AppData\Local\Temp\ccsp17ZB.s 			page 67


 2572 0990 02       		.uleb128 0x2
 2573 0991 91       		.byte	0x91
 2574 0992 74       		.sleb128 -12
 2575 0993 18       		.uleb128 0x18
 2576 0994 D0060000 		.4byte	.LASF192
 2577 0998 01       		.byte	0x1
 2578 0999 8C04     		.2byte	0x48c
 2579 099b 76000000 		.4byte	0x76
 2580 099f 02       		.uleb128 0x2
 2581 09a0 91       		.byte	0x91
 2582 09a1 72       		.sleb128 -14
 2583 09a2 00       		.byte	0
 2584 09a3 22       		.uleb128 0x22
 2585 09a4 6A0E0000 		.4byte	.LASF193
 2586 09a8 01       		.byte	0x1
 2587 09a9 75       		.byte	0x75
 2588 09aa A7050000 		.4byte	0x5a7
 2589 09ae 05       		.uleb128 0x5
 2590 09af 03       		.byte	0x3
 2591 09b0 00000000 		.4byte	CyBle_ApplCallback
 2592 09b4 22       		.uleb128 0x22
 2593 09b5 99080000 		.4byte	.LASF194
 2594 09b9 01       		.byte	0x1
 2595 09ba 29       		.byte	0x29
 2596 09bb 6B000000 		.4byte	0x6b
 2597 09bf 05       		.uleb128 0x5
 2598 09c0 03       		.byte	0x3
 2599 09c1 00000000 		.4byte	cyBle_initVar
 2600 09c5 23       		.uleb128 0x23
 2601 09c6 CD120000 		.4byte	.LASF195
 2602 09ca 07       		.byte	0x7
 2603 09cb 6E01     		.2byte	0x16e
 2604 09cd AC000000 		.4byte	0xac
 2605 09d1 22       		.uleb128 0x22
 2606 09d2 58110000 		.4byte	.LASF196
 2607 09d6 01       		.byte	0x1
 2608 09d7 76       		.byte	0x76
 2609 09d8 36030000 		.4byte	0x336
 2610 09dc 05       		.uleb128 0x5
 2611 09dd 03       		.byte	0x3
 2612 09de 00000000 		.4byte	cyBle_deviceAddress
 2613 09e2 22       		.uleb128 0x22
 2614 09e3 CD110000 		.4byte	.LASF197
 2615 09e7 01       		.byte	0x1
 2616 09e8 77       		.byte	0x77
 2617 09e9 F3090000 		.4byte	0x9f3
 2618 09ed 05       		.uleb128 0x5
 2619 09ee 03       		.byte	0x3
 2620 09ef 00000000 		.4byte	cyBle_sflashDeviceAddress
 2621 09f3 0F       		.uleb128 0xf
 2622 09f4 04       		.byte	0x4
 2623 09f5 36030000 		.4byte	0x336
 2624 09f9 22       		.uleb128 0x22
 2625 09fa 19070000 		.4byte	.LASF198
 2626 09fe 01       		.byte	0x1
 2627 09ff 2D       		.byte	0x2d
 2628 0a00 E6030000 		.4byte	0x3e6
ARM GAS  C:\Users\jdmoussa\AppData\Local\Temp\ccsp17ZB.s 			page 68


 2629 0a04 05       		.uleb128 0x5
 2630 0a05 03       		.byte	0x3
 2631 0a06 00000000 		.4byte	cyBle_discoveryParam
 2632 0a0a 22       		.uleb128 0x22
 2633 0a0b 4C020000 		.4byte	.LASF199
 2634 0a0f 01       		.byte	0x1
 2635 0a10 39       		.byte	0x39
 2636 0a11 26040000 		.4byte	0x426
 2637 0a15 05       		.uleb128 0x5
 2638 0a16 03       		.byte	0x3
 2639 0a17 00000000 		.4byte	cyBle_discoveryData
 2640 0a1b 22       		.uleb128 0x22
 2641 0a1c 6C110000 		.4byte	.LASF200
 2642 0a20 01       		.byte	0x1
 2643 0a21 42       		.byte	0x42
 2644 0a22 56040000 		.4byte	0x456
 2645 0a26 05       		.uleb128 0x5
 2646 0a27 03       		.byte	0x3
 2647 0a28 00000000 		.4byte	cyBle_scanRspData
 2648 0a2c 22       		.uleb128 0x22
 2649 0a2d 700A0000 		.4byte	.LASF201
 2650 0a31 01       		.byte	0x1
 2651 0a32 52       		.byte	0x52
 2652 0a33 BF040000 		.4byte	0x4bf
 2653 0a37 05       		.uleb128 0x5
 2654 0a38 03       		.byte	0x3
 2655 0a39 00000000 		.4byte	cyBle_discoveryModeInfo
 2656 0a3d 22       		.uleb128 0x22
 2657 0a3e FC0B0000 		.4byte	.LASF202
 2658 0a42 01       		.byte	0x1
 2659 0a43 71       		.byte	0x71
 2660 0a44 6B000000 		.4byte	0x6b
 2661 0a48 05       		.uleb128 0x5
 2662 0a49 03       		.byte	0x3
 2663 0a4a 00000000 		.4byte	cyBle_pendingFlashWrite
 2664 0a4e 0D       		.uleb128 0xd
 2665 0a4f 9C050000 		.4byte	0x59c
 2666 0a53 5E0A0000 		.4byte	0xa5e
 2667 0a57 0E       		.uleb128 0xe
 2668 0a58 B1000000 		.4byte	0xb1
 2669 0a5c 2B       		.byte	0x2b
 2670 0a5d 00       		.byte	0
 2671 0a5e 24       		.uleb128 0x24
 2672 0a5f D40E0000 		.4byte	.LASF203
 2673 0a63 0B       		.byte	0xb
 2674 0a64 B6       		.byte	0xb6
 2675 0a65 690A0000 		.4byte	0xa69
 2676 0a69 1E       		.uleb128 0x1e
 2677 0a6a 4E0A0000 		.4byte	0xa4e
 2678 0a6e 0D       		.uleb128 0xd
 2679 0a6f 6B000000 		.4byte	0x6b
 2680 0a73 7E0A0000 		.4byte	0xa7e
 2681 0a77 0E       		.uleb128 0xe
 2682 0a78 B1000000 		.4byte	0xb1
 2683 0a7c 07       		.byte	0x7
 2684 0a7d 00       		.byte	0
 2685 0a7e 24       		.uleb128 0x24
ARM GAS  C:\Users\jdmoussa\AppData\Local\Temp\ccsp17ZB.s 			page 69


 2686 0a7f 13080000 		.4byte	.LASF204
 2687 0a83 0B       		.byte	0xb
 2688 0a84 B9       		.byte	0xb9
 2689 0a85 6E0A0000 		.4byte	0xa6e
 2690 0a89 0D       		.uleb128 0xd
 2691 0a8a 6B000000 		.4byte	0x6b
 2692 0a8e 9F0A0000 		.4byte	0xa9f
 2693 0a92 0E       		.uleb128 0xe
 2694 0a93 B1000000 		.4byte	0xb1
 2695 0a97 04       		.byte	0x4
 2696 0a98 0E       		.uleb128 0xe
 2697 0a99 B1000000 		.4byte	0xb1
 2698 0a9d 07       		.byte	0x7
 2699 0a9e 00       		.byte	0
 2700 0a9f 24       		.uleb128 0x24
 2701 0aa0 4C130000 		.4byte	.LASF205
 2702 0aa4 0B       		.byte	0xb
 2703 0aa5 BA       		.byte	0xba
 2704 0aa6 AA0A0000 		.4byte	0xaaa
 2705 0aaa 1E       		.uleb128 0x1e
 2706 0aab 890A0000 		.4byte	0xa89
 2707 0aaf 23       		.uleb128 0x23
 2708 0ab0 46090000 		.4byte	.LASF206
 2709 0ab4 0A       		.byte	0xa
 2710 0ab5 2207     		.2byte	0x722
 2711 0ab7 57060000 		.4byte	0x657
 2712 0abb 23       		.uleb128 0x23
 2713 0abc D00A0000 		.4byte	.LASF207
 2714 0ac0 0A       		.byte	0xa
 2715 0ac1 2307     		.2byte	0x723
 2716 0ac3 F5040000 		.4byte	0x4f5
 2717 0ac7 23       		.uleb128 0x23
 2718 0ac8 E4020000 		.4byte	.LASF208
 2719 0acc 0A       		.byte	0xa
 2720 0acd 2407     		.2byte	0x724
 2721 0acf AC000000 		.4byte	0xac
 2722 0ad3 23       		.uleb128 0x23
 2723 0ad4 900C0000 		.4byte	.LASF209
 2724 0ad8 0A       		.byte	0xa
 2725 0ad9 2707     		.2byte	0x727
 2726 0adb 6B000000 		.4byte	0x6b
 2727 0adf 00       		.byte	0
 2728              		.section	.debug_abbrev,"",%progbits
 2729              	.Ldebug_abbrev0:
 2730 0000 01       		.uleb128 0x1
 2731 0001 11       		.uleb128 0x11
 2732 0002 01       		.byte	0x1
 2733 0003 25       		.uleb128 0x25
 2734 0004 0E       		.uleb128 0xe
 2735 0005 13       		.uleb128 0x13
 2736 0006 0B       		.uleb128 0xb
 2737 0007 03       		.uleb128 0x3
 2738 0008 0E       		.uleb128 0xe
 2739 0009 1B       		.uleb128 0x1b
 2740 000a 0E       		.uleb128 0xe
 2741 000b 55       		.uleb128 0x55
 2742 000c 17       		.uleb128 0x17
ARM GAS  C:\Users\jdmoussa\AppData\Local\Temp\ccsp17ZB.s 			page 70


 2743 000d 11       		.uleb128 0x11
 2744 000e 01       		.uleb128 0x1
 2745 000f 10       		.uleb128 0x10
 2746 0010 17       		.uleb128 0x17
 2747 0011 00       		.byte	0
 2748 0012 00       		.byte	0
 2749 0013 02       		.uleb128 0x2
 2750 0014 24       		.uleb128 0x24
 2751 0015 00       		.byte	0
 2752 0016 0B       		.uleb128 0xb
 2753 0017 0B       		.uleb128 0xb
 2754 0018 3E       		.uleb128 0x3e
 2755 0019 0B       		.uleb128 0xb
 2756 001a 03       		.uleb128 0x3
 2757 001b 0E       		.uleb128 0xe
 2758 001c 00       		.byte	0
 2759 001d 00       		.byte	0
 2760 001e 03       		.uleb128 0x3
 2761 001f 24       		.uleb128 0x24
 2762 0020 00       		.byte	0
 2763 0021 0B       		.uleb128 0xb
 2764 0022 0B       		.uleb128 0xb
 2765 0023 3E       		.uleb128 0x3e
 2766 0024 0B       		.uleb128 0xb
 2767 0025 03       		.uleb128 0x3
 2768 0026 08       		.uleb128 0x8
 2769 0027 00       		.byte	0
 2770 0028 00       		.byte	0
 2771 0029 04       		.uleb128 0x4
 2772 002a 16       		.uleb128 0x16
 2773 002b 00       		.byte	0
 2774 002c 03       		.uleb128 0x3
 2775 002d 0E       		.uleb128 0xe
 2776 002e 3A       		.uleb128 0x3a
 2777 002f 0B       		.uleb128 0xb
 2778 0030 3B       		.uleb128 0x3b
 2779 0031 0B       		.uleb128 0xb
 2780 0032 49       		.uleb128 0x49
 2781 0033 13       		.uleb128 0x13
 2782 0034 00       		.byte	0
 2783 0035 00       		.byte	0
 2784 0036 05       		.uleb128 0x5
 2785 0037 35       		.uleb128 0x35
 2786 0038 00       		.byte	0
 2787 0039 49       		.uleb128 0x49
 2788 003a 13       		.uleb128 0x13
 2789 003b 00       		.byte	0
 2790 003c 00       		.byte	0
 2791 003d 06       		.uleb128 0x6
 2792 003e 0F       		.uleb128 0xf
 2793 003f 00       		.byte	0
 2794 0040 0B       		.uleb128 0xb
 2795 0041 0B       		.uleb128 0xb
 2796 0042 00       		.byte	0
 2797 0043 00       		.byte	0
 2798 0044 07       		.uleb128 0x7
 2799 0045 04       		.uleb128 0x4
ARM GAS  C:\Users\jdmoussa\AppData\Local\Temp\ccsp17ZB.s 			page 71


 2800 0046 01       		.byte	0x1
 2801 0047 0B       		.uleb128 0xb
 2802 0048 0B       		.uleb128 0xb
 2803 0049 3A       		.uleb128 0x3a
 2804 004a 0B       		.uleb128 0xb
 2805 004b 3B       		.uleb128 0x3b
 2806 004c 0B       		.uleb128 0xb
 2807 004d 01       		.uleb128 0x1
 2808 004e 13       		.uleb128 0x13
 2809 004f 00       		.byte	0
 2810 0050 00       		.byte	0
 2811 0051 08       		.uleb128 0x8
 2812 0052 28       		.uleb128 0x28
 2813 0053 00       		.byte	0
 2814 0054 03       		.uleb128 0x3
 2815 0055 0E       		.uleb128 0xe
 2816 0056 1C       		.uleb128 0x1c
 2817 0057 0D       		.uleb128 0xd
 2818 0058 00       		.byte	0
 2819 0059 00       		.byte	0
 2820 005a 09       		.uleb128 0x9
 2821 005b 04       		.uleb128 0x4
 2822 005c 01       		.byte	0x1
 2823 005d 0B       		.uleb128 0xb
 2824 005e 0B       		.uleb128 0xb
 2825 005f 3A       		.uleb128 0x3a
 2826 0060 0B       		.uleb128 0xb
 2827 0061 3B       		.uleb128 0x3b
 2828 0062 05       		.uleb128 0x5
 2829 0063 01       		.uleb128 0x1
 2830 0064 13       		.uleb128 0x13
 2831 0065 00       		.byte	0
 2832 0066 00       		.byte	0
 2833 0067 0A       		.uleb128 0xa
 2834 0068 16       		.uleb128 0x16
 2835 0069 00       		.byte	0
 2836 006a 03       		.uleb128 0x3
 2837 006b 0E       		.uleb128 0xe
 2838 006c 3A       		.uleb128 0x3a
 2839 006d 0B       		.uleb128 0xb
 2840 006e 3B       		.uleb128 0x3b
 2841 006f 05       		.uleb128 0x5
 2842 0070 49       		.uleb128 0x49
 2843 0071 13       		.uleb128 0x13
 2844 0072 00       		.byte	0
 2845 0073 00       		.byte	0
 2846 0074 0B       		.uleb128 0xb
 2847 0075 13       		.uleb128 0x13
 2848 0076 01       		.byte	0x1
 2849 0077 0B       		.uleb128 0xb
 2850 0078 0B       		.uleb128 0xb
 2851 0079 3A       		.uleb128 0x3a
 2852 007a 0B       		.uleb128 0xb
 2853 007b 3B       		.uleb128 0x3b
 2854 007c 05       		.uleb128 0x5
 2855 007d 01       		.uleb128 0x1
 2856 007e 13       		.uleb128 0x13
ARM GAS  C:\Users\jdmoussa\AppData\Local\Temp\ccsp17ZB.s 			page 72


 2857 007f 00       		.byte	0
 2858 0080 00       		.byte	0
 2859 0081 0C       		.uleb128 0xc
 2860 0082 0D       		.uleb128 0xd
 2861 0083 00       		.byte	0
 2862 0084 03       		.uleb128 0x3
 2863 0085 0E       		.uleb128 0xe
 2864 0086 3A       		.uleb128 0x3a
 2865 0087 0B       		.uleb128 0xb
 2866 0088 3B       		.uleb128 0x3b
 2867 0089 05       		.uleb128 0x5
 2868 008a 49       		.uleb128 0x49
 2869 008b 13       		.uleb128 0x13
 2870 008c 38       		.uleb128 0x38
 2871 008d 0B       		.uleb128 0xb
 2872 008e 00       		.byte	0
 2873 008f 00       		.byte	0
 2874 0090 0D       		.uleb128 0xd
 2875 0091 01       		.uleb128 0x1
 2876 0092 01       		.byte	0x1
 2877 0093 49       		.uleb128 0x49
 2878 0094 13       		.uleb128 0x13
 2879 0095 01       		.uleb128 0x1
 2880 0096 13       		.uleb128 0x13
 2881 0097 00       		.byte	0
 2882 0098 00       		.byte	0
 2883 0099 0E       		.uleb128 0xe
 2884 009a 21       		.uleb128 0x21
 2885 009b 00       		.byte	0
 2886 009c 49       		.uleb128 0x49
 2887 009d 13       		.uleb128 0x13
 2888 009e 2F       		.uleb128 0x2f
 2889 009f 0B       		.uleb128 0xb
 2890 00a0 00       		.byte	0
 2891 00a1 00       		.byte	0
 2892 00a2 0F       		.uleb128 0xf
 2893 00a3 0F       		.uleb128 0xf
 2894 00a4 00       		.byte	0
 2895 00a5 0B       		.uleb128 0xb
 2896 00a6 0B       		.uleb128 0xb
 2897 00a7 49       		.uleb128 0x49
 2898 00a8 13       		.uleb128 0x13
 2899 00a9 00       		.byte	0
 2900 00aa 00       		.byte	0
 2901 00ab 10       		.uleb128 0x10
 2902 00ac 13       		.uleb128 0x13
 2903 00ad 01       		.byte	0x1
 2904 00ae 0B       		.uleb128 0xb
 2905 00af 0B       		.uleb128 0xb
 2906 00b0 3A       		.uleb128 0x3a
 2907 00b1 0B       		.uleb128 0xb
 2908 00b2 3B       		.uleb128 0x3b
 2909 00b3 0B       		.uleb128 0xb
 2910 00b4 01       		.uleb128 0x1
 2911 00b5 13       		.uleb128 0x13
 2912 00b6 00       		.byte	0
 2913 00b7 00       		.byte	0
ARM GAS  C:\Users\jdmoussa\AppData\Local\Temp\ccsp17ZB.s 			page 73


 2914 00b8 11       		.uleb128 0x11
 2915 00b9 0D       		.uleb128 0xd
 2916 00ba 00       		.byte	0
 2917 00bb 03       		.uleb128 0x3
 2918 00bc 0E       		.uleb128 0xe
 2919 00bd 3A       		.uleb128 0x3a
 2920 00be 0B       		.uleb128 0xb
 2921 00bf 3B       		.uleb128 0x3b
 2922 00c0 0B       		.uleb128 0xb
 2923 00c1 49       		.uleb128 0x49
 2924 00c2 13       		.uleb128 0x13
 2925 00c3 38       		.uleb128 0x38
 2926 00c4 0B       		.uleb128 0xb
 2927 00c5 00       		.byte	0
 2928 00c6 00       		.byte	0
 2929 00c7 12       		.uleb128 0x12
 2930 00c8 17       		.uleb128 0x17
 2931 00c9 01       		.byte	0x1
 2932 00ca 0B       		.uleb128 0xb
 2933 00cb 0B       		.uleb128 0xb
 2934 00cc 3A       		.uleb128 0x3a
 2935 00cd 0B       		.uleb128 0xb
 2936 00ce 3B       		.uleb128 0x3b
 2937 00cf 0B       		.uleb128 0xb
 2938 00d0 01       		.uleb128 0x1
 2939 00d1 13       		.uleb128 0x13
 2940 00d2 00       		.byte	0
 2941 00d3 00       		.byte	0
 2942 00d4 13       		.uleb128 0x13
 2943 00d5 0D       		.uleb128 0xd
 2944 00d6 00       		.byte	0
 2945 00d7 03       		.uleb128 0x3
 2946 00d8 0E       		.uleb128 0xe
 2947 00d9 3A       		.uleb128 0x3a
 2948 00da 0B       		.uleb128 0xb
 2949 00db 3B       		.uleb128 0x3b
 2950 00dc 0B       		.uleb128 0xb
 2951 00dd 49       		.uleb128 0x49
 2952 00de 13       		.uleb128 0x13
 2953 00df 00       		.byte	0
 2954 00e0 00       		.byte	0
 2955 00e1 14       		.uleb128 0x14
 2956 00e2 15       		.uleb128 0x15
 2957 00e3 01       		.byte	0x1
 2958 00e4 27       		.uleb128 0x27
 2959 00e5 19       		.uleb128 0x19
 2960 00e6 01       		.uleb128 0x1
 2961 00e7 13       		.uleb128 0x13
 2962 00e8 00       		.byte	0
 2963 00e9 00       		.byte	0
 2964 00ea 15       		.uleb128 0x15
 2965 00eb 05       		.uleb128 0x5
 2966 00ec 00       		.byte	0
 2967 00ed 49       		.uleb128 0x49
 2968 00ee 13       		.uleb128 0x13
 2969 00ef 00       		.byte	0
 2970 00f0 00       		.byte	0
ARM GAS  C:\Users\jdmoussa\AppData\Local\Temp\ccsp17ZB.s 			page 74


 2971 00f1 16       		.uleb128 0x16
 2972 00f2 2E       		.uleb128 0x2e
 2973 00f3 00       		.byte	0
 2974 00f4 3F       		.uleb128 0x3f
 2975 00f5 19       		.uleb128 0x19
 2976 00f6 03       		.uleb128 0x3
 2977 00f7 0E       		.uleb128 0xe
 2978 00f8 3A       		.uleb128 0x3a
 2979 00f9 0B       		.uleb128 0xb
 2980 00fa 3B       		.uleb128 0x3b
 2981 00fb 0B       		.uleb128 0xb
 2982 00fc 27       		.uleb128 0x27
 2983 00fd 19       		.uleb128 0x19
 2984 00fe 11       		.uleb128 0x11
 2985 00ff 01       		.uleb128 0x1
 2986 0100 12       		.uleb128 0x12
 2987 0101 06       		.uleb128 0x6
 2988 0102 40       		.uleb128 0x40
 2989 0103 18       		.uleb128 0x18
 2990 0104 9642     		.uleb128 0x2116
 2991 0106 19       		.uleb128 0x19
 2992 0107 00       		.byte	0
 2993 0108 00       		.byte	0
 2994 0109 17       		.uleb128 0x17
 2995 010a 2E       		.uleb128 0x2e
 2996 010b 01       		.byte	0x1
 2997 010c 3F       		.uleb128 0x3f
 2998 010d 19       		.uleb128 0x19
 2999 010e 03       		.uleb128 0x3
 3000 010f 0E       		.uleb128 0xe
 3001 0110 3A       		.uleb128 0x3a
 3002 0111 0B       		.uleb128 0xb
 3003 0112 3B       		.uleb128 0x3b
 3004 0113 05       		.uleb128 0x5
 3005 0114 27       		.uleb128 0x27
 3006 0115 19       		.uleb128 0x19
 3007 0116 49       		.uleb128 0x49
 3008 0117 13       		.uleb128 0x13
 3009 0118 11       		.uleb128 0x11
 3010 0119 01       		.uleb128 0x1
 3011 011a 12       		.uleb128 0x12
 3012 011b 06       		.uleb128 0x6
 3013 011c 40       		.uleb128 0x40
 3014 011d 18       		.uleb128 0x18
 3015 011e 9642     		.uleb128 0x2116
 3016 0120 19       		.uleb128 0x19
 3017 0121 01       		.uleb128 0x1
 3018 0122 13       		.uleb128 0x13
 3019 0123 00       		.byte	0
 3020 0124 00       		.byte	0
 3021 0125 18       		.uleb128 0x18
 3022 0126 05       		.uleb128 0x5
 3023 0127 00       		.byte	0
 3024 0128 03       		.uleb128 0x3
 3025 0129 0E       		.uleb128 0xe
 3026 012a 3A       		.uleb128 0x3a
 3027 012b 0B       		.uleb128 0xb
ARM GAS  C:\Users\jdmoussa\AppData\Local\Temp\ccsp17ZB.s 			page 75


 3028 012c 3B       		.uleb128 0x3b
 3029 012d 05       		.uleb128 0x5
 3030 012e 49       		.uleb128 0x49
 3031 012f 13       		.uleb128 0x13
 3032 0130 02       		.uleb128 0x2
 3033 0131 18       		.uleb128 0x18
 3034 0132 00       		.byte	0
 3035 0133 00       		.byte	0
 3036 0134 19       		.uleb128 0x19
 3037 0135 34       		.uleb128 0x34
 3038 0136 00       		.byte	0
 3039 0137 03       		.uleb128 0x3
 3040 0138 0E       		.uleb128 0xe
 3041 0139 3A       		.uleb128 0x3a
 3042 013a 0B       		.uleb128 0xb
 3043 013b 3B       		.uleb128 0x3b
 3044 013c 05       		.uleb128 0x5
 3045 013d 49       		.uleb128 0x49
 3046 013e 13       		.uleb128 0x13
 3047 013f 02       		.uleb128 0x2
 3048 0140 18       		.uleb128 0x18
 3049 0141 00       		.byte	0
 3050 0142 00       		.byte	0
 3051 0143 1A       		.uleb128 0x1a
 3052 0144 21       		.uleb128 0x21
 3053 0145 00       		.byte	0
 3054 0146 49       		.uleb128 0x49
 3055 0147 13       		.uleb128 0x13
 3056 0148 2F       		.uleb128 0x2f
 3057 0149 05       		.uleb128 0x5
 3058 014a 00       		.byte	0
 3059 014b 00       		.byte	0
 3060 014c 1B       		.uleb128 0x1b
 3061 014d 2E       		.uleb128 0x2e
 3062 014e 00       		.byte	0
 3063 014f 3F       		.uleb128 0x3f
 3064 0150 19       		.uleb128 0x19
 3065 0151 03       		.uleb128 0x3
 3066 0152 0E       		.uleb128 0xe
 3067 0153 3A       		.uleb128 0x3a
 3068 0154 0B       		.uleb128 0xb
 3069 0155 3B       		.uleb128 0x3b
 3070 0156 05       		.uleb128 0x5
 3071 0157 27       		.uleb128 0x27
 3072 0158 19       		.uleb128 0x19
 3073 0159 11       		.uleb128 0x11
 3074 015a 01       		.uleb128 0x1
 3075 015b 12       		.uleb128 0x12
 3076 015c 06       		.uleb128 0x6
 3077 015d 40       		.uleb128 0x40
 3078 015e 18       		.uleb128 0x18
 3079 015f 9642     		.uleb128 0x2116
 3080 0161 19       		.uleb128 0x19
 3081 0162 00       		.byte	0
 3082 0163 00       		.byte	0
 3083 0164 1C       		.uleb128 0x1c
 3084 0165 2E       		.uleb128 0x2e
ARM GAS  C:\Users\jdmoussa\AppData\Local\Temp\ccsp17ZB.s 			page 76


 3085 0166 01       		.byte	0x1
 3086 0167 3F       		.uleb128 0x3f
 3087 0168 19       		.uleb128 0x19
 3088 0169 03       		.uleb128 0x3
 3089 016a 0E       		.uleb128 0xe
 3090 016b 3A       		.uleb128 0x3a
 3091 016c 0B       		.uleb128 0xb
 3092 016d 3B       		.uleb128 0x3b
 3093 016e 05       		.uleb128 0x5
 3094 016f 27       		.uleb128 0x27
 3095 0170 19       		.uleb128 0x19
 3096 0171 11       		.uleb128 0x11
 3097 0172 01       		.uleb128 0x1
 3098 0173 12       		.uleb128 0x12
 3099 0174 06       		.uleb128 0x6
 3100 0175 40       		.uleb128 0x40
 3101 0176 18       		.uleb128 0x18
 3102 0177 9742     		.uleb128 0x2117
 3103 0179 19       		.uleb128 0x19
 3104 017a 01       		.uleb128 0x1
 3105 017b 13       		.uleb128 0x13
 3106 017c 00       		.byte	0
 3107 017d 00       		.byte	0
 3108 017e 1D       		.uleb128 0x1d
 3109 017f 34       		.uleb128 0x34
 3110 0180 00       		.byte	0
 3111 0181 03       		.uleb128 0x3
 3112 0182 08       		.uleb128 0x8
 3113 0183 3A       		.uleb128 0x3a
 3114 0184 0B       		.uleb128 0xb
 3115 0185 3B       		.uleb128 0x3b
 3116 0186 05       		.uleb128 0x5
 3117 0187 49       		.uleb128 0x49
 3118 0188 13       		.uleb128 0x13
 3119 0189 02       		.uleb128 0x2
 3120 018a 18       		.uleb128 0x18
 3121 018b 00       		.byte	0
 3122 018c 00       		.byte	0
 3123 018d 1E       		.uleb128 0x1e
 3124 018e 26       		.uleb128 0x26
 3125 018f 00       		.byte	0
 3126 0190 49       		.uleb128 0x49
 3127 0191 13       		.uleb128 0x13
 3128 0192 00       		.byte	0
 3129 0193 00       		.byte	0
 3130 0194 1F       		.uleb128 0x1f
 3131 0195 2E       		.uleb128 0x2e
 3132 0196 01       		.byte	0x1
 3133 0197 03       		.uleb128 0x3
 3134 0198 0E       		.uleb128 0xe
 3135 0199 3A       		.uleb128 0x3a
 3136 019a 0B       		.uleb128 0xb
 3137 019b 3B       		.uleb128 0x3b
 3138 019c 05       		.uleb128 0x5
 3139 019d 27       		.uleb128 0x27
 3140 019e 19       		.uleb128 0x19
 3141 019f 11       		.uleb128 0x11
ARM GAS  C:\Users\jdmoussa\AppData\Local\Temp\ccsp17ZB.s 			page 77


 3142 01a0 01       		.uleb128 0x1
 3143 01a1 12       		.uleb128 0x12
 3144 01a2 06       		.uleb128 0x6
 3145 01a3 40       		.uleb128 0x40
 3146 01a4 18       		.uleb128 0x18
 3147 01a5 9742     		.uleb128 0x2117
 3148 01a7 19       		.uleb128 0x19
 3149 01a8 01       		.uleb128 0x1
 3150 01a9 13       		.uleb128 0x13
 3151 01aa 00       		.byte	0
 3152 01ab 00       		.byte	0
 3153 01ac 20       		.uleb128 0x20
 3154 01ad 2E       		.uleb128 0x2e
 3155 01ae 01       		.byte	0x1
 3156 01af 3F       		.uleb128 0x3f
 3157 01b0 19       		.uleb128 0x19
 3158 01b1 03       		.uleb128 0x3
 3159 01b2 0E       		.uleb128 0xe
 3160 01b3 3A       		.uleb128 0x3a
 3161 01b4 0B       		.uleb128 0xb
 3162 01b5 3B       		.uleb128 0x3b
 3163 01b6 05       		.uleb128 0x5
 3164 01b7 27       		.uleb128 0x27
 3165 01b8 19       		.uleb128 0x19
 3166 01b9 49       		.uleb128 0x49
 3167 01ba 13       		.uleb128 0x13
 3168 01bb 11       		.uleb128 0x11
 3169 01bc 01       		.uleb128 0x1
 3170 01bd 12       		.uleb128 0x12
 3171 01be 06       		.uleb128 0x6
 3172 01bf 40       		.uleb128 0x40
 3173 01c0 18       		.uleb128 0x18
 3174 01c1 9742     		.uleb128 0x2117
 3175 01c3 19       		.uleb128 0x19
 3176 01c4 01       		.uleb128 0x1
 3177 01c5 13       		.uleb128 0x13
 3178 01c6 00       		.byte	0
 3179 01c7 00       		.byte	0
 3180 01c8 21       		.uleb128 0x21
 3181 01c9 05       		.uleb128 0x5
 3182 01ca 00       		.byte	0
 3183 01cb 03       		.uleb128 0x3
 3184 01cc 08       		.uleb128 0x8
 3185 01cd 3A       		.uleb128 0x3a
 3186 01ce 0B       		.uleb128 0xb
 3187 01cf 3B       		.uleb128 0x3b
 3188 01d0 05       		.uleb128 0x5
 3189 01d1 49       		.uleb128 0x49
 3190 01d2 13       		.uleb128 0x13
 3191 01d3 02       		.uleb128 0x2
 3192 01d4 18       		.uleb128 0x18
 3193 01d5 00       		.byte	0
 3194 01d6 00       		.byte	0
 3195 01d7 22       		.uleb128 0x22
 3196 01d8 34       		.uleb128 0x34
 3197 01d9 00       		.byte	0
 3198 01da 03       		.uleb128 0x3
ARM GAS  C:\Users\jdmoussa\AppData\Local\Temp\ccsp17ZB.s 			page 78


 3199 01db 0E       		.uleb128 0xe
 3200 01dc 3A       		.uleb128 0x3a
 3201 01dd 0B       		.uleb128 0xb
 3202 01de 3B       		.uleb128 0x3b
 3203 01df 0B       		.uleb128 0xb
 3204 01e0 49       		.uleb128 0x49
 3205 01e1 13       		.uleb128 0x13
 3206 01e2 3F       		.uleb128 0x3f
 3207 01e3 19       		.uleb128 0x19
 3208 01e4 02       		.uleb128 0x2
 3209 01e5 18       		.uleb128 0x18
 3210 01e6 00       		.byte	0
 3211 01e7 00       		.byte	0
 3212 01e8 23       		.uleb128 0x23
 3213 01e9 34       		.uleb128 0x34
 3214 01ea 00       		.byte	0
 3215 01eb 03       		.uleb128 0x3
 3216 01ec 0E       		.uleb128 0xe
 3217 01ed 3A       		.uleb128 0x3a
 3218 01ee 0B       		.uleb128 0xb
 3219 01ef 3B       		.uleb128 0x3b
 3220 01f0 05       		.uleb128 0x5
 3221 01f1 49       		.uleb128 0x49
 3222 01f2 13       		.uleb128 0x13
 3223 01f3 3F       		.uleb128 0x3f
 3224 01f4 19       		.uleb128 0x19
 3225 01f5 3C       		.uleb128 0x3c
 3226 01f6 19       		.uleb128 0x19
 3227 01f7 00       		.byte	0
 3228 01f8 00       		.byte	0
 3229 01f9 24       		.uleb128 0x24
 3230 01fa 34       		.uleb128 0x34
 3231 01fb 00       		.byte	0
 3232 01fc 03       		.uleb128 0x3
 3233 01fd 0E       		.uleb128 0xe
 3234 01fe 3A       		.uleb128 0x3a
 3235 01ff 0B       		.uleb128 0xb
 3236 0200 3B       		.uleb128 0x3b
 3237 0201 0B       		.uleb128 0xb
 3238 0202 49       		.uleb128 0x49
 3239 0203 13       		.uleb128 0x13
 3240 0204 3F       		.uleb128 0x3f
 3241 0205 19       		.uleb128 0x19
 3242 0206 3C       		.uleb128 0x3c
 3243 0207 19       		.uleb128 0x19
 3244 0208 00       		.byte	0
 3245 0209 00       		.byte	0
 3246 020a 00       		.byte	0
 3247              		.section	.debug_aranges,"",%progbits
 3248 0000 7C000000 		.4byte	0x7c
 3249 0004 0200     		.2byte	0x2
 3250 0006 00000000 		.4byte	.Ldebug_info0
 3251 000a 04       		.byte	0x4
 3252 000b 00       		.byte	0
 3253 000c 0000     		.2byte	0
 3254 000e 0000     		.2byte	0
 3255 0010 00000000 		.4byte	.LFB2
ARM GAS  C:\Users\jdmoussa\AppData\Local\Temp\ccsp17ZB.s 			page 79


 3256 0014 34000000 		.4byte	.LFE2-.LFB2
 3257 0018 00000000 		.4byte	.LFB3
 3258 001c 14000000 		.4byte	.LFE3-.LFB3
 3259 0020 00000000 		.4byte	.LFB4
 3260 0024 90000000 		.4byte	.LFE4-.LFB4
 3261 0028 00000000 		.4byte	.LFB5
 3262 002c 1C000000 		.4byte	.LFE5-.LFB5
 3263 0030 00000000 		.4byte	.LFB6
 3264 0034 DC000000 		.4byte	.LFE6-.LFB6
 3265 0038 00000000 		.4byte	.LFB7
 3266 003c C4000000 		.4byte	.LFE7-.LFB7
 3267 0040 00000000 		.4byte	.LFB8
 3268 0044 20000000 		.4byte	.LFE8-.LFB8
 3269 0048 00000000 		.4byte	.LFB9
 3270 004c 60000000 		.4byte	.LFE9-.LFB9
 3271 0050 00000000 		.4byte	.LFB10
 3272 0054 A0010000 		.4byte	.LFE10-.LFB10
 3273 0058 00000000 		.4byte	.LFB11
 3274 005c B8000000 		.4byte	.LFE11-.LFB11
 3275 0060 00000000 		.4byte	.LFB12
 3276 0064 A4000000 		.4byte	.LFE12-.LFB12
 3277 0068 00000000 		.4byte	.LFB13
 3278 006c 24000000 		.4byte	.LFE13-.LFB13
 3279 0070 00000000 		.4byte	.LFB14
 3280 0074 2E000000 		.4byte	.LFE14-.LFB14
 3281 0078 00000000 		.4byte	0
 3282 007c 00000000 		.4byte	0
 3283              		.section	.debug_ranges,"",%progbits
 3284              	.Ldebug_ranges0:
 3285 0000 00000000 		.4byte	.LFB2
 3286 0004 34000000 		.4byte	.LFE2
 3287 0008 00000000 		.4byte	.LFB3
 3288 000c 14000000 		.4byte	.LFE3
 3289 0010 00000000 		.4byte	.LFB4
 3290 0014 90000000 		.4byte	.LFE4
 3291 0018 00000000 		.4byte	.LFB5
 3292 001c 1C000000 		.4byte	.LFE5
 3293 0020 00000000 		.4byte	.LFB6
 3294 0024 DC000000 		.4byte	.LFE6
 3295 0028 00000000 		.4byte	.LFB7
 3296 002c C4000000 		.4byte	.LFE7
 3297 0030 00000000 		.4byte	.LFB8
 3298 0034 20000000 		.4byte	.LFE8
 3299 0038 00000000 		.4byte	.LFB9
 3300 003c 60000000 		.4byte	.LFE9
 3301 0040 00000000 		.4byte	.LFB10
 3302 0044 A0010000 		.4byte	.LFE10
 3303 0048 00000000 		.4byte	.LFB11
 3304 004c B8000000 		.4byte	.LFE11
 3305 0050 00000000 		.4byte	.LFB12
 3306 0054 A4000000 		.4byte	.LFE12
 3307 0058 00000000 		.4byte	.LFB13
 3308 005c 24000000 		.4byte	.LFE13
 3309 0060 00000000 		.4byte	.LFB14
 3310 0064 2E000000 		.4byte	.LFE14
 3311 0068 00000000 		.4byte	0
 3312 006c 00000000 		.4byte	0
ARM GAS  C:\Users\jdmoussa\AppData\Local\Temp\ccsp17ZB.s 			page 80


 3313              		.section	.debug_line,"",%progbits
 3314              	.Ldebug_line0:
 3315 0000 BC020000 		.section	.debug_str,"MS",%progbits,1
 3315      0200E600 
 3315      00000201 
 3315      FB0E0D00 
 3315      01010101 
 3316              	.LASF66:
 3317 0000 4359424C 		.ascii	"CYBLE_EVT_L2CAP_CBFC_RX_CREDIT_IND\000"
 3317      455F4556 
 3317      545F4C32 
 3317      4341505F 
 3317      43424643 
 3318              	.LASF22:
 3319 0023 4359424C 		.ascii	"CYBLE_EVT_STACK_BUSY_STATUS\000"
 3319      455F4556 
 3319      545F5354 
 3319      41434B5F 
 3319      42555359 
 3320              	.LASF161:
 3321 003f 4359424C 		.ascii	"CYBLE_STATE_STOPPED\000"
 3321      455F5354 
 3321      4154455F 
 3321      53544F50 
 3321      50454400 
 3322              	.LASF65:
 3323 0053 4359424C 		.ascii	"CYBLE_EVT_L2CAP_CBFC_DATA_READ\000"
 3323      455F4556 
 3323      545F4C32 
 3323      4341505F 
 3323      43424643 
 3324              	.LASF133:
 3325 0072 4359424C 		.ascii	"CYBLE_CONN_HANDLE_T\000"
 3325      455F434F 
 3325      4E4E5F48 
 3325      414E444C 
 3325      455F5400 
 3326              	.LASF212:
 3327 0086 433A5C55 		.ascii	"C:\\Users\\jdmoussa\\Documents\\PSoC Creator\\BLE_B"
 3327      73657273 
 3327      5C6A646D 
 3327      6F757373 
 3327      615C446F 
 3328 00b4 6C6F6F64 		.ascii	"lood_Pressure_Sensor01\\BLE_Blood_Pressure_Sensor01"
 3328      5F507265 
 3328      73737572 
 3328      655F5365 
 3328      6E736F72 
 3329 00e6 2E637964 		.ascii	".cydsn\000"
 3329      736E00
 3330              	.LASF123:
 3331 00ed 4359424C 		.ascii	"CYBLE_GAPP_DISC_DATA_T\000"
 3331      455F4741 
 3331      50505F44 
 3331      4953435F 
 3331      44415441 
 3332              	.LASF33:
ARM GAS  C:\Users\jdmoussa\AppData\Local\Temp\ccsp17ZB.s 			page 81


 3333 0104 4359424C 		.ascii	"CYBLE_EVT_GAP_CONNECTION_UPDATE_COMPLETE\000"
 3333      455F4556 
 3333      545F4741 
 3333      505F434F 
 3333      4E4E4543 
 3334              	.LASF118:
 3335 012d 61647643 		.ascii	"advChannelMap\000"
 3335      68616E6E 
 3335      656C4D61 
 3335      7000
 3336              	.LASF64:
 3337 013b 4359424C 		.ascii	"CYBLE_EVT_L2CAP_CBFC_DISCONN_CNF\000"
 3337      455F4556 
 3337      545F4C32 
 3337      4341505F 
 3337      43424643 
 3338              	.LASF107:
 3339 015c 4359424C 		.ascii	"CYBLE_GAPP_CONNECTABLE_HIGH_DC_DIRECTED_ADV\000"
 3339      455F4741 
 3339      50505F43 
 3339      4F4E4E45 
 3339      43544142 
 3340              	.LASF47:
 3341 0188 4359424C 		.ascii	"CYBLE_EVT_GATTC_READ_MULTI_RSP\000"
 3341      455F4556 
 3341      545F4741 
 3341      5454435F 
 3341      52454144 
 3342              	.LASF52:
 3343 01a7 4359424C 		.ascii	"CYBLE_EVT_GATTS_EXEC_WRITE_REQ\000"
 3343      455F4556 
 3343      545F4741 
 3343      5454535F 
 3343      45584543 
 3344              	.LASF170:
 3345 01c6 6379426C 		.ascii	"cyBle_stackMemoryRam\000"
 3345      655F7374 
 3345      61636B4D 
 3345      656D6F72 
 3345      7952616D 
 3346              	.LASF108:
 3347 01db 4359424C 		.ascii	"CYBLE_GAPP_SCANNABLE_UNDIRECTED_ADV\000"
 3347      455F4741 
 3347      50505F53 
 3347      43414E4E 
 3347      41424C45 
 3348              	.LASF189:
 3349 01ff 4379426C 		.ascii	"CyBle_Get16ByPtr\000"
 3349      655F4765 
 3349      74313642 
 3349      79507472 
 3349      00
 3350              	.LASF104:
 3351 0210 74797065 		.ascii	"type\000"
 3351      00
 3352              	.LASF19:
 3353 0215 4359424C 		.ascii	"CYBLE_EVT_TIMEOUT\000"
ARM GAS  C:\Users\jdmoussa\AppData\Local\Temp\ccsp17ZB.s 			page 82


 3353      455F4556 
 3353      545F5449 
 3353      4D454F55 
 3353      5400
 3354              	.LASF4:
 3355 0227 6C6F6E67 		.ascii	"long int\000"
 3355      20696E74 
 3355      00
 3356              	.LASF178:
 3357 0230 4379426C 		.ascii	"CyBle_GappStopAdvertisement\000"
 3357      655F4761 
 3357      70705374 
 3357      6F704164 
 3357      76657274 
 3358              	.LASF199:
 3359 024c 6379426C 		.ascii	"cyBle_discoveryData\000"
 3359      655F6469 
 3359      73636F76 
 3359      65727944 
 3359      61746100 
 3360              	.LASF84:
 3361 0260 4359424C 		.ascii	"CYBLE_ERROR_L2CAP_PSM_WRONG_ENCODING\000"
 3361      455F4552 
 3361      524F525F 
 3361      4C324341 
 3361      505F5053 
 3362              	.LASF75:
 3363 0285 4359424C 		.ascii	"CYBLE_ERROR_INSUFFICIENT_RESOURCES\000"
 3363      455F4552 
 3363      524F525F 
 3363      494E5355 
 3363      46464943 
 3364              	.LASF21:
 3365 02a8 4359424C 		.ascii	"CYBLE_EVT_HCI_STATUS\000"
 3365      455F4556 
 3365      545F4843 
 3365      495F5354 
 3365      41545553 
 3366              	.LASF114:
 3367 02bd 61647654 		.ascii	"advType\000"
 3367      79706500 
 3368              	.LASF34:
 3369 02c5 4359424C 		.ascii	"CYBLE_EVT_GAPC_SCAN_START_STOP\000"
 3369      455F4556 
 3369      545F4741 
 3369      50435F53 
 3369      43414E5F 
 3370              	.LASF208:
 3371 02e4 6379426C 		.ascii	"cyBle_busyStatus\000"
 3371      655F6275 
 3371      73795374 
 3371      61747573 
 3371      00
 3372              	.LASF106:
 3373 02f5 4359424C 		.ascii	"CYBLE_GAPP_CONNECTABLE_UNDIRECTED_ADV\000"
 3373      455F4741 
 3373      50505F43 
ARM GAS  C:\Users\jdmoussa\AppData\Local\Temp\ccsp17ZB.s 			page 83


 3373      4F4E4E45 
 3373      43544142 
 3374              	.LASF105:
 3375 031b 4359424C 		.ascii	"CYBLE_GAP_BD_ADDR_T\000"
 3375      455F4741 
 3375      505F4244 
 3375      5F414444 
 3375      525F5400 
 3376              	.LASF83:
 3377 032f 4359424C 		.ascii	"CYBLE_ERROR_SEC_FAILED\000"
 3377      455F4552 
 3377      524F525F 
 3377      5345435F 
 3377      4641494C 
 3378              	.LASF32:
 3379 0346 4359424C 		.ascii	"CYBLE_EVT_GAP_ENCRYPT_CHANGE\000"
 3379      455F4556 
 3379      545F4741 
 3379      505F454E 
 3379      43525950 
 3380              	.LASF67:
 3381 0363 4359424C 		.ascii	"CYBLE_EVT_L2CAP_CBFC_TX_CREDIT_IND\000"
 3381      455F4556 
 3381      545F4C32 
 3381      4341505F 
 3381      43424643 
 3382              	.LASF164:
 3383 0386 4359424C 		.ascii	"CYBLE_STATE_ADVERTISING\000"
 3383      455F5354 
 3383      4154455F 
 3383      41445645 
 3383      52544953 
 3384              	.LASF6:
 3385 039e 6C6F6E67 		.ascii	"long long int\000"
 3385      206C6F6E 
 3385      6720696E 
 3385      7400
 3386              	.LASF0:
 3387 03ac 7369676E 		.ascii	"signed char\000"
 3387      65642063 
 3387      68617200 
 3388              	.LASF18:
 3389 03b8 4359424C 		.ascii	"CYBLE_EVT_STACK_ON\000"
 3389      455F4556 
 3389      545F5354 
 3389      41434B5F 
 3389      4F4E00
 3390              	.LASF91:
 3391 03cb 4359424C 		.ascii	"CYBLE_ERROR_DEVICE_ALREADY_EXISTS\000"
 3391      455F4552 
 3391      524F525F 
 3391      44455649 
 3391      43455F41 
 3392              	.LASF78:
 3393 03ed 4359424C 		.ascii	"CYBLE_ERROR_NO_DEVICE_ENTITY\000"
 3393      455F4552 
 3393      524F525F 
ARM GAS  C:\Users\jdmoussa\AppData\Local\Temp\ccsp17ZB.s 			page 84


 3393      4E4F5F44 
 3393      45564943 
 3394              	.LASF117:
 3395 040a 64697265 		.ascii	"directAddr\000"
 3395      63744164 
 3395      647200
 3396              	.LASF24:
 3397 0415 4359424C 		.ascii	"CYBLE_EVT_GAP_AUTH_REQ\000"
 3397      455F4556 
 3397      545F4741 
 3397      505F4155 
 3397      54485F52 
 3398              	.LASF142:
 3399 042c 7065726D 		.ascii	"permission\000"
 3399      69737369 
 3399      6F6E00
 3400              	.LASF45:
 3401 0437 4359424C 		.ascii	"CYBLE_EVT_GATTC_READ_RSP\000"
 3401      455F4556 
 3401      545F4741 
 3401      5454435F 
 3401      52454144 
 3402              	.LASF101:
 3403 0450 4359424C 		.ascii	"CYBLE_ERROR_INVALID_STATE\000"
 3403      455F4552 
 3403      524F525F 
 3403      494E5641 
 3403      4C49445F 
 3404              	.LASF119:
 3405 046a 61647646 		.ascii	"advFilterPolicy\000"
 3405      696C7465 
 3405      72506F6C 
 3405      69637900 
 3406              	.LASF50:
 3407 047a 4359424C 		.ascii	"CYBLE_EVT_GATTS_WRITE_CMD_REQ\000"
 3407      455F4556 
 3407      545F4741 
 3407      5454535F 
 3407      57524954 
 3408              	.LASF95:
 3409 0498 4359424C 		.ascii	"CYBLE_INCL_DISC_DONE\000"
 3409      455F494E 
 3409      434C5F44 
 3409      4953435F 
 3409      444F4E45 
 3410              	.LASF113:
 3411 04ad 61647649 		.ascii	"advIntvMax\000"
 3411      6E74764D 
 3411      617800
 3412              	.LASF165:
 3413 04b8 4359424C 		.ascii	"CYBLE_STATE_DISCONNECTED\000"
 3413      455F5354 
 3413      4154455F 
 3413      44495343 
 3413      4F4E4E45 
 3414              	.LASF29:
 3415 04d1 4359424C 		.ascii	"CYBLE_EVT_GAPP_ADVERTISEMENT_START_STOP\000"
ARM GAS  C:\Users\jdmoussa\AppData\Local\Temp\ccsp17ZB.s 			page 85


 3415      455F4556 
 3415      545F4741 
 3415      50505F41 
 3415      44564552 
 3416              	.LASF89:
 3417 04f9 4359424C 		.ascii	"CYBLE_ERROR_L2CAP_PSM_NOT_IN_RANGE\000"
 3417      455F4552 
 3417      524F525F 
 3417      4C324341 
 3417      505F5053 
 3418              	.LASF186:
 3419 051c 4379426C 		.ascii	"CyBle_GapSetLocalName\000"
 3419      655F4761 
 3419      70536574 
 3419      4C6F6361 
 3419      6C4E616D 
 3420              	.LASF9:
 3421 0532 75696E74 		.ascii	"uint8\000"
 3421      3800
 3422              	.LASF124:
 3423 0538 7363616E 		.ascii	"scanRspData\000"
 3423      52737044 
 3423      61746100 
 3424              	.LASF103:
 3425 0544 62644164 		.ascii	"bdAddr\000"
 3425      647200
 3426              	.LASF53:
 3427 054b 4359424C 		.ascii	"CYBLE_EVT_GATTC_EXEC_WRITE_RSP\000"
 3427      455F4556 
 3427      545F4741 
 3427      5454435F 
 3427      45584543 
 3428              	.LASF13:
 3429 056a 646F7562 		.ascii	"double\000"
 3429      6C6500
 3430              	.LASF63:
 3431 0571 4359424C 		.ascii	"CYBLE_EVT_L2CAP_CBFC_DISCONN_IND\000"
 3431      455F4556 
 3431      545F4C32 
 3431      4341505F 
 3431      43424643 
 3432              	.LASF127:
 3433 0592 64697363 		.ascii	"discMode\000"
 3433      4D6F6465 
 3433      00
 3434              	.LASF72:
 3435 059b 4359424C 		.ascii	"CYBLE_ERROR_INVALID_PARAMETER\000"
 3435      455F4552 
 3435      524F525F 
 3435      494E5641 
 3435      4C49445F 
 3436              	.LASF139:
 3437 05b9 4359424C 		.ascii	"CYBLE_GATTS_ATT_VALUE_T\000"
 3437      455F4741 
 3437      5454535F 
 3437      4154545F 
 3437      56414C55 
ARM GAS  C:\Users\jdmoussa\AppData\Local\Temp\ccsp17ZB.s 			page 86


 3438              	.LASF155:
 3439 05d1 4359424C 		.ascii	"CYBLE_DIS_FIRMWARE_REV\000"
 3439      455F4449 
 3439      535F4649 
 3439      524D5741 
 3439      52455F52 
 3440              	.LASF140:
 3441 05e8 61747448 		.ascii	"attHandle\000"
 3441      616E646C 
 3441      6500
 3442              	.LASF11:
 3443 05f2 75696E74 		.ascii	"uint32\000"
 3443      333200
 3444              	.LASF180:
 3445 05f9 64657374 		.ascii	"destBuffer\000"
 3445      42756666 
 3445      657200
 3446              	.LASF154:
 3447 0604 4359424C 		.ascii	"CYBLE_DIS_HARDWARE_REV\000"
 3447      455F4449 
 3447      535F4841 
 3447      52445741 
 3447      52455F52 
 3448              	.LASF70:
 3449 061b 4359424C 		.ascii	"CYBLE_EVT_MAX\000"
 3449      455F4556 
 3449      545F4D41 
 3449      5800
 3450              	.LASF71:
 3451 0629 4359424C 		.ascii	"CYBLE_ERROR_OK\000"
 3451      455F4552 
 3451      524F525F 
 3451      4F4B00
 3452              	.LASF36:
 3453 0638 4359424C 		.ascii	"CYBLE_EVT_GATTC_ERROR_RSP\000"
 3453      455F4556 
 3453      545F4741 
 3453      5454435F 
 3453      4552524F 
 3454              	.LASF58:
 3455 0652 4359424C 		.ascii	"CYBLE_EVT_L2CAP_CONN_PARAM_UPDATE_REQ\000"
 3455      455F4556 
 3455      545F4C32 
 3455      4341505F 
 3455      434F4E4E 
 3456              	.LASF68:
 3457 0678 4359424C 		.ascii	"CYBLE_EVT_L2CAP_CBFC_DATA_WRITE_IND\000"
 3457      455F4556 
 3457      545F4C32 
 3457      4341505F 
 3457      43424643 
 3458              	.LASF141:
 3459 069c 61747454 		.ascii	"attType\000"
 3459      79706500 
 3460              	.LASF150:
 3461 06a4 4359424C 		.ascii	"CYBLE_BLS_CHAR_COUNT\000"
 3461      455F424C 
ARM GAS  C:\Users\jdmoussa\AppData\Local\Temp\ccsp17ZB.s 			page 87


 3461      535F4348 
 3461      41525F43 
 3461      4F554E54 
 3462              	.LASF7:
 3463 06b9 6C6F6E67 		.ascii	"long long unsigned int\000"
 3463      206C6F6E 
 3463      6720756E 
 3463      7369676E 
 3463      65642069 
 3464              	.LASF192:
 3465 06d0 76616C75 		.ascii	"value\000"
 3465      6500
 3466              	.LASF74:
 3467 06d6 4359424C 		.ascii	"CYBLE_ERROR_MEMORY_ALLOCATION_FAILED\000"
 3467      455F4552 
 3467      524F525F 
 3467      4D454D4F 
 3467      52595F41 
 3468              	.LASF76:
 3469 06fb 4359424C 		.ascii	"CYBLE_ERROR_OOB_NOT_AVAILABLE\000"
 3469      455F4552 
 3469      524F525F 
 3469      4F4F425F 
 3469      4E4F545F 
 3470              	.LASF198:
 3471 0719 6379426C 		.ascii	"cyBle_discoveryParam\000"
 3471      655F6469 
 3471      73636F76 
 3471      65727950 
 3471      6172616D 
 3472              	.LASF168:
 3473 072e 4379426C 		.ascii	"CyBle_ServiceInit\000"
 3473      655F5365 
 3473      72766963 
 3473      65496E69 
 3473      7400
 3474              	.LASF85:
 3475 0740 4359424C 		.ascii	"CYBLE_ERROR_L2CAP_PSM_ALREADY_REGISTERED\000"
 3475      455F4552 
 3475      524F525F 
 3475      4C324341 
 3475      505F5053 
 3476              	.LASF175:
 3477 0769 6973466F 		.ascii	"isForceWrite\000"
 3477      72636557 
 3477      72697465 
 3477      00
 3478              	.LASF5:
 3479 0776 6C6F6E67 		.ascii	"long unsigned int\000"
 3479      20756E73 
 3479      69676E65 
 3479      6420696E 
 3479      7400
 3480              	.LASF48:
 3481 0788 4359424C 		.ascii	"CYBLE_EVT_GATTS_WRITE_REQ\000"
 3481      455F4556 
 3481      545F4741 
ARM GAS  C:\Users\jdmoussa\AppData\Local\Temp\ccsp17ZB.s 			page 88


 3481      5454535F 
 3481      57524954 
 3482              	.LASF40:
 3483 07a2 4359424C 		.ascii	"CYBLE_EVT_GATTC_XCHNG_MTU_RSP\000"
 3483      455F4556 
 3483      545F4741 
 3483      5454435F 
 3483      5843484E 
 3484              	.LASF57:
 3485 07c0 4359424C 		.ascii	"CYBLE_EVT_GATTS_DATA_SIGNED_CMD_REQ\000"
 3485      455F4556 
 3485      545F4741 
 3485      5454535F 
 3485      44415441 
 3486              	.LASF181:
 3487 07e4 6E616D65 		.ascii	"name\000"
 3487      00
 3488              	.LASF137:
 3489 07e9 61747446 		.ascii	"attFormatValue\000"
 3489      6F726D61 
 3489      7456616C 
 3489      756500
 3490              	.LASF126:
 3491 07f8 4359424C 		.ascii	"CYBLE_GAPP_SCAN_RSP_DATA_T\000"
 3491      455F4741 
 3491      50505F53 
 3491      43414E5F 
 3491      5253505F 
 3492              	.LASF204:
 3493 0813 6379426C 		.ascii	"cyBle_attValuesCCCD\000"
 3493      655F6174 
 3493      7456616C 
 3493      75657343 
 3493      43434400 
 3494              	.LASF88:
 3495 0827 4359424C 		.ascii	"CYBLE_ERROR_L2CAP_CHANNEL_NOT_FOUND\000"
 3495      455F4552 
 3495      524F525F 
 3495      4C324341 
 3495      505F4348 
 3496              	.LASF98:
 3497 084b 4359424C 		.ascii	"CYBLE_ERROR_NTF_DISABLED\000"
 3497      455F4552 
 3497      524F525F 
 3497      4E54465F 
 3497      44495341 
 3498              	.LASF17:
 3499 0864 4359424C 		.ascii	"CYBLE_EVT_HOST_INVALID\000"
 3499      455F4556 
 3499      545F484F 
 3499      53545F49 
 3499      4E56414C 
 3500              	.LASF43:
 3501 087b 4359424C 		.ascii	"CYBLE_EVT_GATTC_FIND_INFO_RSP\000"
 3501      455F4556 
 3501      545F4741 
 3501      5454435F 
ARM GAS  C:\Users\jdmoussa\AppData\Local\Temp\ccsp17ZB.s 			page 89


 3501      46494E44 
 3502              	.LASF194:
 3503 0899 6379426C 		.ascii	"cyBle_initVar\000"
 3503      655F696E 
 3503      69745661 
 3503      7200
 3504              	.LASF25:
 3505 08a7 4359424C 		.ascii	"CYBLE_EVT_GAP_PASSKEY_ENTRY_REQUEST\000"
 3505      455F4556 
 3505      545F4741 
 3505      505F5041 
 3505      53534B45 
 3506              	.LASF30:
 3507 08cb 4359424C 		.ascii	"CYBLE_EVT_GAP_DEVICE_CONNECTED\000"
 3507      455F4556 
 3507      545F4741 
 3507      505F4445 
 3507      56494345 
 3508              	.LASF183:
 3509 08ea 61644C65 		.ascii	"adLength\000"
 3509      6E677468 
 3509      00
 3510              	.LASF191:
 3511 08f3 4379426C 		.ascii	"CyBle_Set16ByPtr\000"
 3511      655F5365 
 3511      74313642 
 3511      79507472 
 3511      00
 3512              	.LASF125:
 3513 0904 7363616E 		.ascii	"scanRspDataLen\000"
 3513      52737044 
 3513      6174614C 
 3513      656E00
 3514              	.LASF172:
 3515 0913 4379426C 		.ascii	"CyBle_Start\000"
 3515      655F5374 
 3515      61727400 
 3516              	.LASF188:
 3517 091f 4379426C 		.ascii	"CyBle_GapGetLocalName\000"
 3517      655F4761 
 3517      70476574 
 3517      4C6F6361 
 3517      6C4E616D 
 3518              	.LASF159:
 3519 0935 4359424C 		.ascii	"CYBLE_DIS_PNP_ID\000"
 3519      455F4449 
 3519      535F504E 
 3519      505F4944 
 3519      00
 3520              	.LASF206:
 3521 0946 6379426C 		.ascii	"cyBle_state\000"
 3521      655F7374 
 3521      61746500 
 3522              	.LASF26:
 3523 0952 4359424C 		.ascii	"CYBLE_EVT_GAP_PASSKEY_DISPLAY_REQUEST\000"
 3523      455F4556 
 3523      545F4741 
ARM GAS  C:\Users\jdmoussa\AppData\Local\Temp\ccsp17ZB.s 			page 90


 3523      505F5041 
 3523      53534B45 
 3524              	.LASF132:
 3525 0978 61747449 		.ascii	"attId\000"
 3525      6400
 3526              	.LASF37:
 3527 097e 4359424C 		.ascii	"CYBLE_EVT_GATT_CONNECT_IND\000"
 3527      455F4556 
 3527      545F4741 
 3527      54545F43 
 3527      4F4E4E45 
 3528              	.LASF163:
 3529 0999 4359424C 		.ascii	"CYBLE_STATE_CONNECTED\000"
 3529      455F5354 
 3529      4154455F 
 3529      434F4E4E 
 3529      45435445 
 3530              	.LASF187:
 3531 09af 63686172 		.ascii	"charLen\000"
 3531      4C656E00 
 3532              	.LASF60:
 3533 09b7 4359424C 		.ascii	"CYBLE_EVT_L2CAP_COMMAND_REJ\000"
 3533      455F4556 
 3533      545F4C32 
 3533      4341505F 
 3533      434F4D4D 
 3534              	.LASF23:
 3535 09d3 4359424C 		.ascii	"CYBLE_EVT_GAPC_SCAN_PROGRESS_RESULT\000"
 3535      455F4556 
 3535      545F4741 
 3535      50435F53 
 3535      43414E5F 
 3536              	.LASF157:
 3537 09f7 4359424C 		.ascii	"CYBLE_DIS_SYSTEM_ID\000"
 3537      455F4449 
 3537      535F5359 
 3537      5354454D 
 3537      5F494400 
 3538              	.LASF97:
 3539 0a0b 4359424C 		.ascii	"CYBLE_DESCR_DISC_DONE\000"
 3539      455F4445 
 3539      5343525F 
 3539      44495343 
 3539      5F444F4E 
 3540              	.LASF94:
 3541 0a21 4359424C 		.ascii	"CYBLE_ERROR_MAX\000"
 3541      455F4552 
 3541      524F525F 
 3541      4D415800 
 3542              	.LASF61:
 3543 0a31 4359424C 		.ascii	"CYBLE_EVT_L2CAP_CBFC_CONN_IND\000"
 3543      455F4556 
 3543      545F4C32 
 3543      4341505F 
 3543      43424643 
 3544              	.LASF42:
 3545 0a4f 4359424C 		.ascii	"CYBLE_EVT_GATTC_READ_BY_TYPE_RSP\000"
ARM GAS  C:\Users\jdmoussa\AppData\Local\Temp\ccsp17ZB.s 			page 91


 3545      455F4556 
 3545      545F4741 
 3545      5454435F 
 3545      52454144 
 3546              	.LASF201:
 3547 0a70 6379426C 		.ascii	"cyBle_discoveryModeInfo\000"
 3547      655F6469 
 3547      73636F76 
 3547      6572794D 
 3547      6F646549 
 3548              	.LASF16:
 3549 0a88 73697A65 		.ascii	"sizetype\000"
 3549      74797065 
 3549      00
 3550              	.LASF162:
 3551 0a91 4359424C 		.ascii	"CYBLE_STATE_INITIALIZING\000"
 3551      455F5354 
 3551      4154455F 
 3551      494E4954 
 3551      49414C49 
 3552              	.LASF115:
 3553 0aaa 6F776E41 		.ascii	"ownAddrType\000"
 3553      64647254 
 3553      79706500 
 3554              	.LASF28:
 3555 0ab6 4359424C 		.ascii	"CYBLE_EVT_GAP_AUTH_FAILED\000"
 3555      455F4556 
 3555      545F4741 
 3555      505F4155 
 3555      54485F46 
 3556              	.LASF207:
 3557 0ad0 6379426C 		.ascii	"cyBle_connHandle\000"
 3557      655F636F 
 3557      6E6E4861 
 3557      6E646C65 
 3557      00
 3558              	.LASF49:
 3559 0ae1 4359424C 		.ascii	"CYBLE_EVT_GATTC_WRITE_RSP\000"
 3559      455F4556 
 3559      545F4741 
 3559      5454435F 
 3559      57524954 
 3560              	.LASF27:
 3561 0afb 4359424C 		.ascii	"CYBLE_EVT_GAP_AUTH_COMPLETE\000"
 3561      455F4556 
 3561      545F4741 
 3561      505F4155 
 3561      54485F43 
 3562              	.LASF169:
 3563 0b17 61706952 		.ascii	"apiResult\000"
 3563      6573756C 
 3563      7400
 3564              	.LASF102:
 3565 0b21 4359424C 		.ascii	"CYBLE_API_RESULT_T\000"
 3565      455F4150 
 3565      495F5245 
 3565      53554C54 
ARM GAS  C:\Users\jdmoussa\AppData\Local\Temp\ccsp17ZB.s 			page 92


 3565      5F5400
 3566              	.LASF171:
 3567 0b34 4379426C 		.ascii	"CyBle_Stop\000"
 3567      655F5374 
 3567      6F7000
 3568              	.LASF54:
 3569 0b3f 4359424C 		.ascii	"CYBLE_EVT_GATTC_HANDLE_VALUE_NTF\000"
 3569      455F4556 
 3569      545F4741 
 3569      5454435F 
 3569      48414E44 
 3570              	.LASF99:
 3571 0b60 4359424C 		.ascii	"CYBLE_ERROR_IND_DISABLED\000"
 3571      455F4552 
 3571      524F525F 
 3571      494E445F 
 3571      44495341 
 3572              	.LASF179:
 3573 0b79 64657374 		.ascii	"dest\000"
 3573      00
 3574              	.LASF138:
 3575 0b7e 61747456 		.ascii	"attValueUuid\000"
 3575      616C7565 
 3575      55756964 
 3575      00
 3576              	.LASF158:
 3577 0b8b 4359424C 		.ascii	"CYBLE_DIS_REG_CERT_DATA\000"
 3577      455F4449 
 3577      535F5245 
 3577      475F4345 
 3577      52545F44 
 3578              	.LASF135:
 3579 0ba3 61747447 		.ascii	"attGenericVal\000"
 3579      656E6572 
 3579      69635661 
 3579      6C00
 3580              	.LASF62:
 3581 0bb1 4359424C 		.ascii	"CYBLE_EVT_L2CAP_CBFC_CONN_CNF\000"
 3581      455F4556 
 3581      545F4C32 
 3581      4341505F 
 3581      43424643 
 3582              	.LASF41:
 3583 0bcf 4359424C 		.ascii	"CYBLE_EVT_GATTC_READ_BY_GROUP_TYPE_RSP\000"
 3583      455F4556 
 3583      545F4741 
 3583      5454435F 
 3583      52454144 
 3584              	.LASF12:
 3585 0bf6 666C6F61 		.ascii	"float\000"
 3585      7400
 3586              	.LASF202:
 3587 0bfc 6379426C 		.ascii	"cyBle_pendingFlashWrite\000"
 3587      655F7065 
 3587      6E64696E 
 3587      67466C61 
 3587      73685772 
ARM GAS  C:\Users\jdmoussa\AppData\Local\Temp\ccsp17ZB.s 			page 93


 3588              	.LASF210:
 3589 0c14 474E5520 		.ascii	"GNU C 4.8.4 20140526 (release) [ARM/embedded-4_8-br"
 3589      4320342E 
 3589      382E3420 
 3589      32303134 
 3589      30353236 
 3590 0c47 616E6368 		.ascii	"anch revision 211358] -mcpu=cortex-m0 -mthumb -g -O"
 3590      20726576 
 3590      6973696F 
 3590      6E203231 
 3590      31333538 
 3591 0c7a 30202D66 		.ascii	"0 -ffunction-sections\000"
 3591      66756E63 
 3591      74696F6E 
 3591      2D736563 
 3591      74696F6E 
 3592              	.LASF209:
 3593 0c90 6379426C 		.ascii	"cyBle_advertisingIntervalType\000"
 3593      655F6164 
 3593      76657274 
 3593      6973696E 
 3593      67496E74 
 3594              	.LASF176:
 3595 0cae 4379426C 		.ascii	"CyBle_GappStartAdvertisement\000"
 3595      655F4761 
 3595      70705374 
 3595      61727441 
 3595      64766572 
 3596              	.LASF153:
 3597 0ccb 4359424C 		.ascii	"CYBLE_DIS_SERIAL_NUMBER\000"
 3597      455F4449 
 3597      535F5345 
 3597      5249414C 
 3597      5F4E554D 
 3598              	.LASF116:
 3599 0ce3 64697265 		.ascii	"directAddrType\000"
 3599      63744164 
 3599      64725479 
 3599      706500
 3600              	.LASF81:
 3601 0cf2 4359424C 		.ascii	"CYBLE_ERROR_TX_POWER_READ\000"
 3601      455F4552 
 3601      524F525F 
 3601      54585F50 
 3601      4F574552 
 3602              	.LASF174:
 3603 0d0c 63616C6C 		.ascii	"callbackFunc\000"
 3603      6261636B 
 3603      46756E63 
 3603      00
 3604              	.LASF144:
 3605 0d19 61747456 		.ascii	"attValue\000"
 3605      616C7565 
 3605      00
 3606              	.LASF211:
 3607 0d22 2E5C4765 		.ascii	".\\Generated_Source\\PSoC4\\CYBLE.c\000"
 3607      6E657261 
ARM GAS  C:\Users\jdmoussa\AppData\Local\Temp\ccsp17ZB.s 			page 94


 3607      7465645F 
 3607      536F7572 
 3607      63655C50 
 3608              	.LASF1:
 3609 0d43 756E7369 		.ascii	"unsigned char\000"
 3609      676E6564 
 3609      20636861 
 3609      7200
 3610              	.LASF10:
 3611 0d51 75696E74 		.ascii	"uint16\000"
 3611      313600
 3612              	.LASF160:
 3613 0d58 4359424C 		.ascii	"CYBLE_DIS_CHAR_COUNT\000"
 3613      455F4449 
 3613      535F4348 
 3613      41525F43 
 3613      4F554E54 
 3614              	.LASF100:
 3615 0d6d 4359424C 		.ascii	"CYBLE_ERROR_CHAR_IS_NOT_DISCOVERED\000"
 3615      455F4552 
 3615      524F525F 
 3615      43484152 
 3615      5F49535F 
 3616              	.LASF2:
 3617 0d90 73686F72 		.ascii	"short int\000"
 3617      7420696E 
 3617      7400
 3618              	.LASF55:
 3619 0d9a 4359424C 		.ascii	"CYBLE_EVT_GATTC_HANDLE_VALUE_IND\000"
 3619      455F4556 
 3619      545F4741 
 3619      5454435F 
 3619      48414E44 
 3620              	.LASF190:
 3621 0dbb 4379426C 		.ascii	"CyBle_ChangeAdDeviceAddress\000"
 3621      655F4368 
 3621      616E6765 
 3621      41644465 
 3621      76696365 
 3622              	.LASF77:
 3623 0dd7 4359424C 		.ascii	"CYBLE_ERROR_NO_CONNECTION\000"
 3623      455F4552 
 3623      524F525F 
 3623      4E4F5F43 
 3623      4F4E4E45 
 3624              	.LASF182:
 3625 0df1 666C6167 		.ascii	"flag\000"
 3625      00
 3626              	.LASF156:
 3627 0df6 4359424C 		.ascii	"CYBLE_DIS_SOFTWARE_REV\000"
 3627      455F4449 
 3627      535F534F 
 3627      46545741 
 3627      52455F52 
 3628              	.LASF51:
 3629 0e0d 4359424C 		.ascii	"CYBLE_EVT_GATTS_PREP_WRITE_REQ\000"
 3629      455F4556 
ARM GAS  C:\Users\jdmoussa\AppData\Local\Temp\ccsp17ZB.s 			page 95


 3629      545F4741 
 3629      5454535F 
 3629      50524550 
 3630              	.LASF112:
 3631 0e2c 61647649 		.ascii	"advIntvMin\000"
 3631      6E74764D 
 3631      696E00
 3632              	.LASF110:
 3633 0e37 4359424C 		.ascii	"CYBLE_GAPP_CONNECTABLE_LOW_DC_DIRECTED_ADV\000"
 3633      455F4741 
 3633      50505F43 
 3633      4F4E4E45 
 3633      43544142 
 3634              	.LASF121:
 3635 0e62 61647644 		.ascii	"advData\000"
 3635      61746100 
 3636              	.LASF193:
 3637 0e6a 4379426C 		.ascii	"CyBle_ApplCallback\000"
 3637      655F4170 
 3637      706C4361 
 3637      6C6C6261 
 3637      636B00
 3638              	.LASF213:
 3639 0e7d 4379426C 		.ascii	"CyBle_ChangeAdLocalName\000"
 3639      655F4368 
 3639      616E6765 
 3639      41644C6F 
 3639      63616C4E 
 3640              	.LASF56:
 3641 0e95 4359424C 		.ascii	"CYBLE_EVT_GATTS_HANDLE_VALUE_CNF\000"
 3641      455F4556 
 3641      545F4741 
 3641      5454535F 
 3641      48414E44 
 3642              	.LASF79:
 3643 0eb6 4359424C 		.ascii	"CYBLE_ERROR_REPEATED_ATTEMPTS\000"
 3643      455F4552 
 3643      524F525F 
 3643      52455045 
 3643      41544544 
 3644              	.LASF203:
 3645 0ed4 6379426C 		.ascii	"cyBle_gattDB\000"
 3645      655F6761 
 3645      74744442 
 3645      00
 3646              	.LASF15:
 3647 0ee1 63686172 		.ascii	"char\000"
 3647      00
 3648              	.LASF152:
 3649 0ee6 4359424C 		.ascii	"CYBLE_DIS_MODEL_NUMBER\000"
 3649      455F4449 
 3649      535F4D4F 
 3649      44454C5F 
 3649      4E554D42 
 3650              	.LASF82:
 3651 0efd 4359424C 		.ascii	"CYBLE_ERROR_BT_ON_NOT_COMPLETED\000"
 3651      455F4552 
ARM GAS  C:\Users\jdmoussa\AppData\Local\Temp\ccsp17ZB.s 			page 96


 3651      524F525F 
 3651      42545F4F 
 3651      4E5F4E4F 
 3652              	.LASF31:
 3653 0f1d 4359424C 		.ascii	"CYBLE_EVT_GAP_DEVICE_DISCONNECTED\000"
 3653      455F4556 
 3653      545F4741 
 3653      505F4445 
 3653      56494345 
 3654              	.LASF177:
 3655 0f3f 61647665 		.ascii	"advertisingIntervalType\000"
 3655      72746973 
 3655      696E6749 
 3655      6E746572 
 3655      76616C54 
 3656              	.LASF8:
 3657 0f57 756E7369 		.ascii	"unsigned int\000"
 3657      676E6564 
 3657      20696E74 
 3657      00
 3658              	.LASF143:
 3659 0f64 61747445 		.ascii	"attEndHandle\000"
 3659      6E644861 
 3659      6E646C65 
 3659      00
 3660              	.LASF120:
 3661 0f71 4359424C 		.ascii	"CYBLE_GAPP_DISC_PARAM_T\000"
 3661      455F4741 
 3661      50505F44 
 3661      4953435F 
 3661      50415241 
 3662              	.LASF14:
 3663 0f89 63686172 		.ascii	"char8\000"
 3663      3800
 3664              	.LASF136:
 3665 0f8f 4359424C 		.ascii	"CYBLE_GATTS_ATT_GENERIC_VAL_T\000"
 3665      455F4741 
 3665      5454535F 
 3665      4154545F 
 3665      47454E45 
 3666              	.LASF92:
 3667 0fad 4359424C 		.ascii	"CYBLE_ERROR_FLASH_WRITE_NOT_PERMITED\000"
 3667      455F4552 
 3667      524F525F 
 3667      464C4153 
 3667      485F5752 
 3668              	.LASF87:
 3669 0fd2 4359424C 		.ascii	"CYBLE_ERROR_L2CAP_CONNECTION_ENTITY_NOT_FOUND\000"
 3669      455F4552 
 3669      524F525F 
 3669      4C324341 
 3669      505F434F 
 3670              	.LASF20:
 3671 1000 4359424C 		.ascii	"CYBLE_EVT_HARDWARE_ERROR\000"
 3671      455F4556 
 3671      545F4841 
 3671      52445741 
ARM GAS  C:\Users\jdmoussa\AppData\Local\Temp\ccsp17ZB.s 			page 97


 3671      52455F45 
 3672              	.LASF3:
 3673 1019 73686F72 		.ascii	"short unsigned int\000"
 3673      7420756E 
 3673      7369676E 
 3673      65642069 
 3673      6E7400
 3674              	.LASF145:
 3675 102c 4359424C 		.ascii	"CYBLE_GATTS_DB_T\000"
 3675      455F4741 
 3675      5454535F 
 3675      44425F54 
 3675      00
 3676              	.LASF134:
 3677 103d 6C656E67 		.ascii	"length\000"
 3677      746800
 3678              	.LASF73:
 3679 1044 4359424C 		.ascii	"CYBLE_ERROR_INVALID_OPERATION\000"
 3679      455F4552 
 3679      524F525F 
 3679      494E5641 
 3679      4C49445F 
 3680              	.LASF173:
 3681 1062 4379426C 		.ascii	"CyBle_StoreBondingData\000"
 3681      655F5374 
 3681      6F726542 
 3681      6F6E6469 
 3681      6E674461 
 3682              	.LASF146:
 3683 1079 4359424C 		.ascii	"CYBLE_CALLBACK_T\000"
 3683      455F4341 
 3683      4C4C4241 
 3683      434B5F54 
 3683      00
 3684              	.LASF39:
 3685 108a 4359424C 		.ascii	"CYBLE_EVT_GATTS_XCNHG_MTU_REQ\000"
 3685      455F4556 
 3685      545F4741 
 3685      5454535F 
 3685      58434E48 
 3686              	.LASF184:
 3687 10a8 62797465 		.ascii	"byteCounter\000"
 3687      436F756E 
 3687      74657200 
 3688              	.LASF130:
 3689 10b4 4359424C 		.ascii	"CYBLE_GAPP_DISC_MODE_INFO_T\000"
 3689      455F4741 
 3689      50505F44 
 3689      4953435F 
 3689      4D4F4445 
 3690              	.LASF128:
 3691 10d0 61647650 		.ascii	"advParam\000"
 3691      6172616D 
 3691      00
 3692              	.LASF111:
 3693 10d9 4359424C 		.ascii	"CYBLE_GAPP_ADV_T\000"
 3693      455F4741 
ARM GAS  C:\Users\jdmoussa\AppData\Local\Temp\ccsp17ZB.s 			page 98


 3693      50505F41 
 3693      44565F54 
 3693      00
 3694              	.LASF166:
 3695 10ea 4359424C 		.ascii	"CYBLE_STATE_T\000"
 3695      455F5354 
 3695      4154455F 
 3695      5400
 3696              	.LASF109:
 3697 10f8 4359424C 		.ascii	"CYBLE_GAPP_NON_CONNECTABLE_UNDIRECTED_ADV\000"
 3697      455F4741 
 3697      50505F4E 
 3697      4F4E5F43 
 3697      4F4E4E45 
 3698              	.LASF46:
 3699 1122 4359424C 		.ascii	"CYBLE_EVT_GATTC_READ_BLOB_RSP\000"
 3699      455F4556 
 3699      545F4741 
 3699      5454435F 
 3699      52454144 
 3700              	.LASF149:
 3701 1140 4359424C 		.ascii	"CYBLE_BLS_BPF\000"
 3701      455F424C 
 3701      535F4250 
 3701      4600
 3702              	.LASF185:
 3703 114e 6D61784C 		.ascii	"maxLength\000"
 3703      656E6774 
 3703      6800
 3704              	.LASF196:
 3705 1158 6379426C 		.ascii	"cyBle_deviceAddress\000"
 3705      655F6465 
 3705      76696365 
 3705      41646472 
 3705      65737300 
 3706              	.LASF200:
 3707 116c 6379426C 		.ascii	"cyBle_scanRspData\000"
 3707      655F7363 
 3707      616E5273 
 3707      70446174 
 3707      6100
 3708              	.LASF93:
 3709 117e 4359424C 		.ascii	"CYBLE_ERROR_MIC_AUTH_FAILED\000"
 3709      455F4552 
 3709      524F525F 
 3709      4D49435F 
 3709      41555448 
 3710              	.LASF147:
 3711 119a 4359424C 		.ascii	"CYBLE_BLS_BPM\000"
 3711      455F424C 
 3711      535F4250 
 3711      4D00
 3712              	.LASF86:
 3713 11a8 4359424C 		.ascii	"CYBLE_ERROR_L2CAP_PSM_NOT_REGISTERED\000"
 3713      455F4552 
 3713      524F525F 
 3713      4C324341 
ARM GAS  C:\Users\jdmoussa\AppData\Local\Temp\ccsp17ZB.s 			page 99


 3713      505F5053 
 3714              	.LASF197:
 3715 11cd 6379426C 		.ascii	"cyBle_sflashDeviceAddress\000"
 3715      655F7366 
 3715      6C617368 
 3715      44657669 
 3715      63654164 
 3716              	.LASF122:
 3717 11e7 61647644 		.ascii	"advDataLen\000"
 3717      6174614C 
 3717      656E00
 3718              	.LASF44:
 3719 11f2 4359424C 		.ascii	"CYBLE_EVT_GATTC_FIND_BY_TYPE_VALUE_RSP\000"
 3719      455F4556 
 3719      545F4741 
 3719      5454435F 
 3719      46494E44 
 3720              	.LASF80:
 3721 1219 4359424C 		.ascii	"CYBLE_ERROR_GAP_ROLE\000"
 3721      455F4552 
 3721      524F525F 
 3721      4741505F 
 3721      524F4C45 
 3722              	.LASF35:
 3723 122e 4359424C 		.ascii	"CYBLE_EVT_GAP_KEYINFO_EXCHNGE_CMPLT\000"
 3723      455F4556 
 3723      545F4741 
 3723      505F4B45 
 3723      59494E46 
 3724              	.LASF148:
 3725 1252 4359424C 		.ascii	"CYBLE_BLS_ICP\000"
 3725      455F424C 
 3725      535F4943 
 3725      5000
 3726              	.LASF131:
 3727 1260 62644861 		.ascii	"bdHandle\000"
 3727      6E646C65 
 3727      00
 3728              	.LASF96:
 3729 1269 4359424C 		.ascii	"CYBLE_CHAR_DISC_DONE\000"
 3729      455F4348 
 3729      41525F44 
 3729      4953435F 
 3729      444F4E45 
 3730              	.LASF69:
 3731 127e 4359424C 		.ascii	"CYBLE_EVT_PENDING_FLASH_WRITE\000"
 3731      455F4556 
 3731      545F5045 
 3731      4E44494E 
 3731      475F464C 
 3732              	.LASF167:
 3733 129c 4379426C 		.ascii	"CyBle_Init\000"
 3733      655F496E 
 3733      697400
 3734              	.LASF59:
 3735 12a7 4359424C 		.ascii	"CYBLE_EVT_L2CAP_CONN_PARAM_UPDATE_RSP\000"
 3735      455F4556 
ARM GAS  C:\Users\jdmoussa\AppData\Local\Temp\ccsp17ZB.s 			page 100


 3735      545F4C32 
 3735      4341505F 
 3735      434F4E4E 
 3736              	.LASF195:
 3737 12cd 6379426C 		.ascii	"cyBle_eventHandlerFlag\000"
 3737      655F6576 
 3737      656E7448 
 3737      616E646C 
 3737      6572466C 
 3738              	.LASF151:
 3739 12e4 4359424C 		.ascii	"CYBLE_DIS_MANUFACTURER_NAME\000"
 3739      455F4449 
 3739      535F4D41 
 3739      4E554641 
 3739      43545552 
 3740              	.LASF129:
 3741 1300 61647654 		.ascii	"advTo\000"
 3741      6F00
 3742              	.LASF38:
 3743 1306 4359424C 		.ascii	"CYBLE_EVT_GATT_DISCONNECT_IND\000"
 3743      455F4556 
 3743      545F4741 
 3743      54545F44 
 3743      4953434F 
 3744              	.LASF90:
 3745 1324 4359424C 		.ascii	"CYBLE_ERROR_GATT_DB_INVALID_ATTR_HANDLE\000"
 3745      455F4552 
 3745      524F525F 
 3745      47415454 
 3745      5F44425F 
 3746              	.LASF205:
 3747 134c 6379426C 		.ascii	"cyBle_attValuesCCCDFlashMemory\000"
 3747      655F6174 
 3747      7456616C 
 3747      75657343 
 3747      43434446 
 3748              		.ident	"GCC: (GNU Tools for ARM Embedded Processors) 4.8.4 20140526 (release) [ARM/embedded-4_8-br
