ARM GAS  C:\Users\jdmoussa\AppData\Local\Temp\cclwQepi.s 			page 1


   1              		.cpu cortex-m0
   2              		.fpu softvfp
   3              		.eabi_attribute 20, 1
   4              		.eabi_attribute 21, 1
   5              		.eabi_attribute 23, 3
   6              		.eabi_attribute 24, 1
   7              		.eabi_attribute 25, 1
   8              		.eabi_attribute 26, 1
   9              		.eabi_attribute 30, 6
  10              		.eabi_attribute 34, 0
  11              		.eabi_attribute 18, 4
  12              		.code	16
  13              		.file	"debug.c"
  14              		.text
  15              	.Ltext0:
  16              		.cfi_sections	.debug_frame
  17              		.section	.text._write,"ax",%progbits
  18              		.align	2
  19              		.global	_write
  20              		.code	16
  21              		.thumb_func
  22              		.type	_write, %function
  23              	_write:
  24              	.LFB35:
  25              		.file 1 ".\\debug.c"
   1:.\debug.c     **** /*******************************************************************************
   2:.\debug.c     **** * File Name: debug.c
   3:.\debug.c     **** *
   4:.\debug.c     **** * Version 1.0
   5:.\debug.c     **** *
   6:.\debug.c     **** * Description:
   7:.\debug.c     **** *  Common BLE application code for printout debug messages.
   8:.\debug.c     **** *
   9:.\debug.c     **** *******************************************************************************
  10:.\debug.c     **** * Copyright 2015, Cypress Semiconductor Corporation.  All rights reserved.
  11:.\debug.c     **** * You may use this file only in accordance with the license, terms, conditions,
  12:.\debug.c     **** * disclaimers, and limitations in the end user license agreement accompanying
  13:.\debug.c     **** * the software package with which this file was provided.
  14:.\debug.c     **** *******************************************************************************/
  15:.\debug.c     **** 
  16:.\debug.c     **** #include "common.h"
  17:.\debug.c     **** 
  18:.\debug.c     **** 
  19:.\debug.c     **** #if defined(__ARMCC_VERSION)
  20:.\debug.c     **** 
  21:.\debug.c     **** /* For MDK/RVDS compiler revise fputc function for printf functionality */
  22:.\debug.c     **** struct __FILE
  23:.\debug.c     **** {
  24:.\debug.c     ****     int handle;
  25:.\debug.c     **** };
  26:.\debug.c     **** 
  27:.\debug.c     **** enum
  28:.\debug.c     **** {
  29:.\debug.c     ****     STDIN_HANDLE,
  30:.\debug.c     ****     STDOUT_HANDLE,
  31:.\debug.c     ****     STDERR_HANDLE
  32:.\debug.c     **** };
ARM GAS  C:\Users\jdmoussa\AppData\Local\Temp\cclwQepi.s 			page 2


  33:.\debug.c     **** 
  34:.\debug.c     **** FILE __stdin = {STDIN_HANDLE};
  35:.\debug.c     **** FILE __stdout = {STDOUT_HANDLE};
  36:.\debug.c     **** FILE __stderr = {STDERR_HANDLE};
  37:.\debug.c     **** 
  38:.\debug.c     **** int fputc(int ch, FILE *file)
  39:.\debug.c     **** {
  40:.\debug.c     ****     int ret = EOF;
  41:.\debug.c     **** 
  42:.\debug.c     ****     switch( file->handle )
  43:.\debug.c     ****     {
  44:.\debug.c     ****         case STDOUT_HANDLE:
  45:.\debug.c     ****             UART_DEB_UartPutChar(ch);
  46:.\debug.c     ****             ret = ch ;
  47:.\debug.c     ****             break ;
  48:.\debug.c     **** 
  49:.\debug.c     ****         case STDERR_HANDLE:
  50:.\debug.c     ****             ret = ch ;
  51:.\debug.c     ****             break ;
  52:.\debug.c     **** 
  53:.\debug.c     ****         default:
  54:.\debug.c     ****             file = file;
  55:.\debug.c     ****             break ;
  56:.\debug.c     ****     }
  57:.\debug.c     ****     return ret ;
  58:.\debug.c     **** }
  59:.\debug.c     **** 
  60:.\debug.c     **** #elif defined (__ICCARM__)      /* IAR */
  61:.\debug.c     **** 
  62:.\debug.c     **** /* For IAR compiler revise __write() function for printf functionality */
  63:.\debug.c     **** size_t __write(int handle, const unsigned char * buffer, size_t size)
  64:.\debug.c     **** {
  65:.\debug.c     ****     size_t nChars = 0;
  66:.\debug.c     **** 
  67:.\debug.c     ****     if (buffer == 0)
  68:.\debug.c     ****     {
  69:.\debug.c     ****         /*
  70:.\debug.c     ****          * This means that we should flush internal buffers.  Since we
  71:.\debug.c     ****          * don't we just return.  (Remember, "handle" == -1 means that all
  72:.\debug.c     ****          * handles should be flushed.)
  73:.\debug.c     ****          */
  74:.\debug.c     ****         return (0);
  75:.\debug.c     ****     }
  76:.\debug.c     **** 
  77:.\debug.c     ****     for (/* Empty */; size != 0; --size)
  78:.\debug.c     ****     {
  79:.\debug.c     ****         UART_DEB_UartPutChar(*buffer++);
  80:.\debug.c     ****         ++nChars;
  81:.\debug.c     ****     }
  82:.\debug.c     **** 
  83:.\debug.c     ****     return (nChars);
  84:.\debug.c     **** }
  85:.\debug.c     **** 
  86:.\debug.c     **** #else  /* (__GNUC__)  GCC */
  87:.\debug.c     **** 
  88:.\debug.c     **** /* For GCC compiler revise _write() function for printf functionality */
  89:.\debug.c     **** int _write(int file, char *ptr, int len)
ARM GAS  C:\Users\jdmoussa\AppData\Local\Temp\cclwQepi.s 			page 3


  90:.\debug.c     **** {
  26              		.loc 1 90 0
  27              		.cfi_startproc
  28 0000 80B5     		push	{r7, lr}
  29              		.cfi_def_cfa_offset 8
  30              		.cfi_offset 7, -8
  31              		.cfi_offset 14, -4
  32 0002 86B0     		sub	sp, sp, #24
  33              		.cfi_def_cfa_offset 32
  34 0004 00AF     		add	r7, sp, #0
  35              		.cfi_def_cfa_register 7
  36 0006 F860     		str	r0, [r7, #12]
  37 0008 B960     		str	r1, [r7, #8]
  38 000a 7A60     		str	r2, [r7, #4]
  91:.\debug.c     ****     int i;
  92:.\debug.c     ****     file = file;
  93:.\debug.c     ****     for (i = 0; i < len; i++)
  39              		.loc 1 93 0
  40 000c 0023     		mov	r3, #0
  41 000e 7B61     		str	r3, [r7, #20]
  42 0010 09E0     		b	.L2
  43              	.L3:
  94:.\debug.c     ****     {
  95:.\debug.c     ****         UART_DEB_UartPutChar(*ptr++);
  44              		.loc 1 95 0 discriminator 2
  45 0012 BB68     		ldr	r3, [r7, #8]
  46 0014 5A1C     		add	r2, r3, #1
  47 0016 BA60     		str	r2, [r7, #8]
  48 0018 1B78     		ldrb	r3, [r3]
  49 001a 181C     		mov	r0, r3
  50 001c FFF7FEFF 		bl	UART_DEB_SpiUartWriteTxData
  93:.\debug.c     ****     for (i = 0; i < len; i++)
  51              		.loc 1 93 0 discriminator 2
  52 0020 7B69     		ldr	r3, [r7, #20]
  53 0022 0133     		add	r3, r3, #1
  54 0024 7B61     		str	r3, [r7, #20]
  55              	.L2:
  93:.\debug.c     ****     for (i = 0; i < len; i++)
  56              		.loc 1 93 0 is_stmt 0 discriminator 1
  57 0026 7A69     		ldr	r2, [r7, #20]
  58 0028 7B68     		ldr	r3, [r7, #4]
  59 002a 9A42     		cmp	r2, r3
  60 002c F1DB     		blt	.L3
  96:.\debug.c     ****     }
  97:.\debug.c     ****     return len;
  61              		.loc 1 97 0 is_stmt 1
  62 002e 7B68     		ldr	r3, [r7, #4]
  98:.\debug.c     **** }
  63              		.loc 1 98 0
  64 0030 181C     		mov	r0, r3
  65 0032 BD46     		mov	sp, r7
  66 0034 06B0     		add	sp, sp, #24
  67              		@ sp needed
  68 0036 80BD     		pop	{r7, pc}
  69              		.cfi_endproc
  70              	.LFE35:
  71              		.size	_write, .-_write
ARM GAS  C:\Users\jdmoussa\AppData\Local\Temp\cclwQepi.s 			page 4


  72              		.section	.rodata
  73              		.align	2
  74              	.LC0:
  75 0000 4556545F 		.ascii	"EVT_STACK_ON \015\000"
  75      53544143 
  75      4B5F4F4E 
  75      200D00
  76 000f 00       		.align	2
  77              	.LC2:
  78 0010 4556545F 		.ascii	"EVT_STACK_BUSY_STATUS \015\000"
  78      53544143 
  78      4B5F4255 
  78      53595F53 
  78      54415455 
  79              		.align	2
  80              	.LC4:
  81 0028 4556545F 		.ascii	"EVT_TIMEOUT: %d \015\012\000"
  81      54494D45 
  81      4F55543A 
  81      20256420 
  81      0D0A00
  82 003b 00       		.align	2
  83              	.LC6:
  84 003c 4556545F 		.ascii	"EVT_HARDWARE_ERROR \015\000"
  84      48415244 
  84      57415245 
  84      5F455252 
  84      4F52200D 
  85 0051 000000   		.align	2
  86              	.LC8:
  87 0054 4556545F 		.ascii	"EVT_HCI_STATUS \015\000"
  87      4843495F 
  87      53544154 
  87      5553200D 
  87      00
  88 0065 000000   		.align	2
  89              	.LC10:
  90 0068 4556545F 		.ascii	"EVT_GAP_AUTH_REQ\000"
  90      4741505F 
  90      41555448 
  90      5F524551 
  90      00
  91 0079 000000   		.align	2
  92              	.LC12:
  93 007c 4556545F 		.ascii	"EVT_GAP_PASSKEY_ENTRY_REQUEST\000"
  93      4741505F 
  93      50415353 
  93      4B45595F 
  93      454E5452 
  94 009a 0000     		.align	2
  95              	.LC14:
  96 009c 4556545F 		.ascii	"EVT_GAP_PASSKEY_DISPLAY_REQUEST: %6.6ld \015\012\000"
  96      4741505F 
  96      50415353 
  96      4B45595F 
  96      44495350 
  97 00c7 00       		.align	2
ARM GAS  C:\Users\jdmoussa\AppData\Local\Temp\cclwQepi.s 			page 5


  98              	.LC16:
  99 00c8 4556545F 		.ascii	"EVT_GAP_AUTH_FAILED, reason: \000"
  99      4741505F 
  99      41555448 
  99      5F464149 
  99      4C45442C 
 100 00e6 0000     		.align	2
 101              	.LC18:
 102 00e8 434F4E46 		.ascii	"CONFIRM_VALUE_NOT_MATCH\015\000"
 102      49524D5F 
 102      56414C55 
 102      455F4E4F 
 102      545F4D41 
 103 0101 000000   		.align	2
 104              	.LC20:
 105 0104 494E5355 		.ascii	"INSUFFICIENT_ENCRYPTION_KEY_SIZE\015\000"
 105      46464943 
 105      49454E54 
 105      5F454E43 
 105      52595054 
 106 0126 0000     		.align	2
 107              	.LC22:
 108 0128 554E5350 		.ascii	"UNSPECIFIED_REASON\015\000"
 108      45434946 
 108      4945445F 
 108      52454153 
 108      4F4E0D00 
 109              		.align	2
 110              	.LC24:
 111 013c 41555448 		.ascii	"AUTHENTICATION_TIMEOUT\015\000"
 111      454E5449 
 111      43415449 
 111      4F4E5F54 
 111      494D454F 
 112              		.align	2
 113              	.LC26:
 114 0154 30782578 		.ascii	"0x%x  \015\012\000"
 114      20200D0A 
 114      00
 115 015d 000000   		.align	2
 116              	.LC29:
 117 0160 4556545F 		.ascii	"EVT_GAP_DEVICE_CONNECTED: %x \015\012\000"
 117      4741505F 
 117      44455649 
 117      43455F43 
 117      4F4E4E45 
 118              		.align	2
 119              	.LC31:
 120 0180 4556545F 		.ascii	"EVT_GAPC_CONNECTION_UPDATE_COMPLETE \015\000"
 120      47415043 
 120      5F434F4E 
 120      4E454354 
 120      494F4E5F 
 121 01a6 0000     		.align	2
 122              	.LC33:
 123 01a8 4556545F 		.ascii	"EVT_GAP_DEVICE_DISCONNECTED \015\000"
 123      4741505F 
ARM GAS  C:\Users\jdmoussa\AppData\Local\Temp\cclwQepi.s 			page 6


 123      44455649 
 123      43455F44 
 123      4953434F 
 124 01c6 0000     		.align	2
 125              	.LC35:
 126 01c8 4556545F 		.ascii	"EVT_GAP_AUTH_COMPLETE: security:%x, bonding:%x, eke"
 126      4741505F 
 126      41555448 
 126      5F434F4D 
 126      504C4554 
 127 01fb 7953697A 		.ascii	"ySize:%x, authErr %x \015\012\000"
 127      653A2578 
 127      2C206175 
 127      74684572 
 127      72202578 
 128 0213 00       		.align	2
 129              	.LC37:
 130 0214 4556545F 		.ascii	"EVT_GAP_ENCRYPT_CHANGE: %d \015\012\000"
 130      4741505F 
 130      454E4352 
 130      5950545F 
 130      4348414E 
 131 0232 0000     		.align	2
 132              	.LC39:
 133 0234 4556545F 		.ascii	"EVT_GATTC_ERROR_RSP: opcode: \000"
 133      47415454 
 133      435F4552 
 133      524F525F 
 133      5253503A 
 134 0252 0000     		.align	2
 135              	.LC41:
 136 0254 46494E44 		.ascii	"FIND_INFO_REQ\000"
 136      5F494E46 
 136      4F5F5245 
 136      5100
 137 0262 0000     		.align	2
 138              	.LC43:
 139 0264 52454144 		.ascii	"READ_BY_TYPE_REQ\000"
 139      5F42595F 
 139      54595045 
 139      5F524551 
 139      00
 140 0275 000000   		.align	2
 141              	.LC45:
 142 0278 52454144 		.ascii	"READ_BY_GROUP_REQ\000"
 142      5F42595F 
 142      47524F55 
 142      505F5245 
 142      5100
 143 028a 0000     		.align	2
 144              	.LC47:
 145 028c 257800   		.ascii	"%x\000"
 146 028f 00       		.align	2
 147              	.LC49:
 148 0290 2C202068 		.ascii	",  handle: %x,  \000"
 148      616E646C 
 148      653A2025 
ARM GAS  C:\Users\jdmoussa\AppData\Local\Temp\cclwQepi.s 			page 7


 148      782C2020 
 148      00
 149 02a1 000000   		.align	2
 150              	.LC51:
 151 02a4 6572726F 		.ascii	"errorcode: \000"
 151      72636F64 
 151      653A2000 
 152              		.align	2
 153              	.LC53:
 154 02b0 41545452 		.ascii	"ATTRIBUTE_NOT_FOUND\000"
 154      49425554 
 154      455F4E4F 
 154      545F464F 
 154      554E4400 
 155              		.align	2
 156              	.LC55:
 157 02c4 0D00     		.ascii	"\015\000"
 158 02c6 0000     		.align	2
 159              	.LC57:
 160 02c8 4556545F 		.ascii	"EVT_GATT_CONNECT_IND: attId %x, bdHandle %x \015\012"
 160      47415454 
 160      5F434F4E 
 160      4E454354 
 160      5F494E44 
 161 02f6 00       		.ascii	"\000"
 162 02f7 00       		.align	2
 163              	.LC59:
 164 02f8 4556545F 		.ascii	"EVT_GATT_DISCONNECT_IND \015\000"
 164      47415454 
 164      5F444953 
 164      434F4E4E 
 164      4543545F 
 165 0312 0000     		.align	2
 166              	.LC61:
 167 0314 4556545F 		.ascii	"EVT_L2CAP_CONN_PARAM_UPDATE_REQ \015\000"
 167      4C324341 
 167      505F434F 
 167      4E4E5F50 
 167      4152414D 
 168 0336 0000     		.section	.text.DebugOut,"ax",%progbits
 169              		.align	2
 170              		.global	DebugOut
 171              		.code	16
 172              		.thumb_func
 173              		.type	DebugOut, %function
 174              	DebugOut:
 175              	.LFB36:
  99:.\debug.c     **** 
 100:.\debug.c     **** 
 101:.\debug.c     **** #endif  /* (__ARMCC_VERSION) */
 102:.\debug.c     **** 
 103:.\debug.c     **** 
 104:.\debug.c     **** void DebugOut(uint32 event, void* eventParam)
 105:.\debug.c     **** {
 176              		.loc 1 105 0
 177              		.cfi_startproc
 178 0000 90B5     		push	{r4, r7, lr}
ARM GAS  C:\Users\jdmoussa\AppData\Local\Temp\cclwQepi.s 			page 8


 179              		.cfi_def_cfa_offset 12
 180              		.cfi_offset 4, -12
 181              		.cfi_offset 7, -8
 182              		.cfi_offset 14, -4
 183 0002 85B0     		sub	sp, sp, #20
 184              		.cfi_def_cfa_offset 32
 185 0004 02AF     		add	r7, sp, #8
 186              		.cfi_def_cfa 7, 24
 187 0006 7860     		str	r0, [r7, #4]
 188 0008 3960     		str	r1, [r7]
 106:.\debug.c     ****     switch(event)
 189              		.loc 1 106 0
 190 000a 7B68     		ldr	r3, [r7, #4]
 191 000c 252B     		cmp	r3, #37
 192 000e 00D1     		bne	.LCB65
 193 0010 69E0     		b	.L7	@long jump
 194              	.LCB65:
 195 0012 19D8     		bhi	.L8
 196 0014 052B     		cmp	r3, #5
 197 0016 3DD0     		beq	.L9
 198 0018 0AD8     		bhi	.L10
 199 001a 022B     		cmp	r3, #2
 200 001c 3FD0     		beq	.L11
 201 001e 02D8     		bhi	.L12
 202 0020 012B     		cmp	r3, #1
 203 0022 32D0     		beq	.L13
 204 0024 11E1     		b	.L6
 205              	.L12:
 206 0026 032B     		cmp	r3, #3
 207 0028 41D0     		beq	.L14
 208 002a 042B     		cmp	r3, #4
 209 002c 44D0     		beq	.L15
 210 002e 0CE1     		b	.L6
 211              	.L10:
 212 0030 222B     		cmp	r3, #34
 213 0032 4BD0     		beq	.L16
 214 0034 02D8     		bhi	.L17
 215 0036 212B     		cmp	r3, #33
 216 0038 43D0     		beq	.L18
 217 003a 06E1     		b	.L6
 218              	.L17:
 219 003c 232B     		cmp	r3, #35
 220 003e 4AD0     		beq	.L19
 221 0040 242B     		cmp	r3, #36
 222 0042 00D1     		bne	.LCB103
 223 0044 8FE0     		b	.L20	@long jump
 224              	.LCB103:
 225 0046 00E1     		b	.L6
 226              	.L8:
 227 0048 402B     		cmp	r3, #64
 228 004a 00D1     		bne	.LCB109
 229 004c A3E0     		b	.L21	@long jump
 230              	.LCB109:
 231 004e 0ED8     		bhi	.L22
 232 0050 282B     		cmp	r3, #40
 233 0052 00D1     		bne	.LCB113
 234 0054 82E0     		b	.L23	@long jump
ARM GAS  C:\Users\jdmoussa\AppData\Local\Temp\cclwQepi.s 			page 9


 235              	.LCB113:
 236 0056 03D8     		bhi	.L24
 237 0058 272B     		cmp	r3, #39
 238 005a 00D1     		bne	.LCB117
 239 005c 71E0     		b	.L25	@long jump
 240              	.LCB117:
 241 005e F4E0     		b	.L6
 242              	.L24:
 243 0060 292B     		cmp	r3, #41
 244 0062 00D1     		bne	.LCB123
 245 0064 8FE0     		b	.L26	@long jump
 246              	.LCB123:
 247 0066 2A2B     		cmp	r3, #42
 248 0068 00D1     		bne	.LCB125
 249 006a 72E0     		b	.L27	@long jump
 250              	.LCB125:
 251 006c EDE0     		b	.L6
 252              	.L22:
 253 006e 422B     		cmp	r3, #66
 254 0070 00D1     		bne	.LCB131
 255 0072 E0E0     		b	.L28	@long jump
 256              	.LCB131:
 257 0074 00D2     		bcs	.LCB133
 258 0076 D2E0     		b	.L29	@long jump
 259              	.LCB133:
 260 0078 702B     		cmp	r3, #112
 261 007a 00D1     		bne	.LCB135
 262 007c E0E0     		b	.L30	@long jump
 263              	.LCB135:
 264 007e E022     		mov	r2, #224
 265 0080 1202     		lsl	r2, r2, #8
 266 0082 9342     		cmp	r3, r2
 267 0084 00D1     		bne	.LCB139
 268 0086 E8E0     		b	.L50	@long jump
 269              	.LCB139:
 270 0088 DFE0     		b	.L6
 271              	.L13:
 107:.\debug.c     ****     {
 108:.\debug.c     ****         case CYBLE_EVT_STACK_ON:
 109:.\debug.c     ****             printf("EVT_STACK_ON \r\n");
 272              		.loc 1 109 0
 273 008a 764B     		ldr	r3, .L51
 274 008c 181C     		mov	r0, r3
 275 008e FFF7FEFF 		bl	puts
 110:.\debug.c     ****             break;
 276              		.loc 1 110 0
 277 0092 E3E0     		b	.L5
 278              	.L9:
 111:.\debug.c     **** 
 112:.\debug.c     ****         case CYBLE_EVT_STACK_BUSY_STATUS:
 113:.\debug.c     ****             printf("EVT_STACK_BUSY_STATUS \r\n");
 279              		.loc 1 113 0
 280 0094 744B     		ldr	r3, .L51+4
 281 0096 181C     		mov	r0, r3
 282 0098 FFF7FEFF 		bl	puts
 114:.\debug.c     ****             break;
 283              		.loc 1 114 0
ARM GAS  C:\Users\jdmoussa\AppData\Local\Temp\cclwQepi.s 			page 10


 284 009c DEE0     		b	.L5
 285              	.L11:
 115:.\debug.c     **** 
 116:.\debug.c     ****         case CYBLE_EVT_TIMEOUT: /* 0x01 -> GAP limited discoverable mode timeout. */
 117:.\debug.c     ****                                 /* 0x02 -> GAP pairing process timeout. */
 118:.\debug.c     ****                                 /* 0x03 -> GATT response timeout. */
 119:.\debug.c     ****             printf("EVT_TIMEOUT: %d \r\n", *(uint8 *)eventParam);
 286              		.loc 1 119 0
 287 009e 3B68     		ldr	r3, [r7]
 288 00a0 1B78     		ldrb	r3, [r3]
 289 00a2 724A     		ldr	r2, .L51+8
 290 00a4 101C     		mov	r0, r2
 291 00a6 191C     		mov	r1, r3
 292 00a8 FFF7FEFF 		bl	printf
 120:.\debug.c     ****             break;
 293              		.loc 1 120 0
 294 00ac D6E0     		b	.L5
 295              	.L14:
 121:.\debug.c     **** 
 122:.\debug.c     ****         case CYBLE_EVT_HARDWARE_ERROR:    /* This event indicates that some internal HW error has o
 123:.\debug.c     ****             printf("EVT_HARDWARE_ERROR \r\n");
 296              		.loc 1 123 0
 297 00ae 704B     		ldr	r3, .L51+12
 298 00b0 181C     		mov	r0, r3
 299 00b2 FFF7FEFF 		bl	puts
 124:.\debug.c     ****             break;
 300              		.loc 1 124 0
 301 00b6 D1E0     		b	.L5
 302              	.L15:
 125:.\debug.c     **** 
 126:.\debug.c     ****         case CYBLE_EVT_HCI_STATUS:
 127:.\debug.c     ****             printf("EVT_HCI_STATUS \r\n");
 303              		.loc 1 127 0
 304 00b8 6E4B     		ldr	r3, .L51+16
 305 00ba 181C     		mov	r0, r3
 306 00bc FFF7FEFF 		bl	puts
 128:.\debug.c     ****             break;
 307              		.loc 1 128 0
 308 00c0 CCE0     		b	.L5
 309              	.L18:
 129:.\debug.c     **** 
 130:.\debug.c     ****             
 131:.\debug.c     ****         /**********************************************************
 132:.\debug.c     ****         *                       GAP Events
 133:.\debug.c     ****         ***********************************************************/
 134:.\debug.c     **** 
 135:.\debug.c     ****         case CYBLE_EVT_GAP_AUTH_REQ:
 136:.\debug.c     ****             printf("EVT_GAP_AUTH_REQ");
 310              		.loc 1 136 0
 311 00c2 6D4B     		ldr	r3, .L51+20
 312 00c4 181C     		mov	r0, r3
 313 00c6 FFF7FEFF 		bl	printf
 137:.\debug.c     ****             break;
 314              		.loc 1 137 0
 315 00ca C7E0     		b	.L5
 316              	.L16:
 138:.\debug.c     **** 
ARM GAS  C:\Users\jdmoussa\AppData\Local\Temp\cclwQepi.s 			page 11


 139:.\debug.c     ****         case CYBLE_EVT_GAP_PASSKEY_ENTRY_REQUEST:
 140:.\debug.c     ****             printf("EVT_GAP_PASSKEY_ENTRY_REQUEST");
 317              		.loc 1 140 0
 318 00cc 6B4B     		ldr	r3, .L51+24
 319 00ce 181C     		mov	r0, r3
 320 00d0 FFF7FEFF 		bl	printf
 141:.\debug.c     ****             break;
 321              		.loc 1 141 0
 322 00d4 C2E0     		b	.L5
 323              	.L19:
 142:.\debug.c     **** 
 143:.\debug.c     ****         case CYBLE_EVT_GAP_PASSKEY_DISPLAY_REQUEST:
 144:.\debug.c     ****             printf("EVT_GAP_PASSKEY_DISPLAY_REQUEST: %6.6ld \r\n", *(uint32 *)eventParam);
 324              		.loc 1 144 0
 325 00d6 3B68     		ldr	r3, [r7]
 326 00d8 1B68     		ldr	r3, [r3]
 327 00da 694A     		ldr	r2, .L51+28
 328 00dc 101C     		mov	r0, r2
 329 00de 191C     		mov	r1, r3
 330 00e0 FFF7FEFF 		bl	printf
 145:.\debug.c     ****             break;
 331              		.loc 1 145 0
 332 00e4 BAE0     		b	.L5
 333              	.L7:
 146:.\debug.c     **** 
 147:.\debug.c     ****         case CYBLE_EVT_GAP_AUTH_FAILED:
 148:.\debug.c     ****             printf("EVT_GAP_AUTH_FAILED, reason: ");
 334              		.loc 1 148 0
 335 00e6 674B     		ldr	r3, .L51+32
 336 00e8 181C     		mov	r0, r3
 337 00ea FFF7FEFF 		bl	printf
 149:.\debug.c     ****             switch(*(CYBLE_GAP_AUTH_FAILED_REASON_T *)eventParam)
 338              		.loc 1 149 0
 339 00ee 3B68     		ldr	r3, [r7]
 340 00f0 1B78     		ldrb	r3, [r3]
 341 00f2 062B     		cmp	r3, #6
 342 00f4 0DD0     		beq	.L34
 343 00f6 02DC     		bgt	.L35
 344 00f8 042B     		cmp	r3, #4
 345 00fa 05D0     		beq	.L36
 346 00fc 18E0     		b	.L33
 347              	.L35:
 348 00fe 082B     		cmp	r3, #8
 349 0100 0CD0     		beq	.L37
 350 0102 152B     		cmp	r3, #21
 351 0104 0FD0     		beq	.L38
 352 0106 13E0     		b	.L33
 353              	.L36:
 150:.\debug.c     ****             {
 151:.\debug.c     ****                 case CYBLE_GAP_AUTH_ERROR_CONFIRM_VALUE_NOT_MATCH:
 152:.\debug.c     ****                     printf("CONFIRM_VALUE_NOT_MATCH\r\n");
 354              		.loc 1 152 0
 355 0108 5F4B     		ldr	r3, .L51+36
 356 010a 181C     		mov	r0, r3
 357 010c FFF7FEFF 		bl	puts
 153:.\debug.c     ****                     break;
 358              		.loc 1 153 0
ARM GAS  C:\Users\jdmoussa\AppData\Local\Temp\cclwQepi.s 			page 12


 359 0110 16E0     		b	.L39
 360              	.L34:
 154:.\debug.c     ****                     
 155:.\debug.c     ****                 case CYBLE_GAP_AUTH_ERROR_INSUFFICIENT_ENCRYPTION_KEY_SIZE:
 156:.\debug.c     ****                     printf("INSUFFICIENT_ENCRYPTION_KEY_SIZE\r\n");
 361              		.loc 1 156 0
 362 0112 5E4B     		ldr	r3, .L51+40
 363 0114 181C     		mov	r0, r3
 364 0116 FFF7FEFF 		bl	puts
 157:.\debug.c     ****                     break;
 365              		.loc 1 157 0
 366 011a 11E0     		b	.L39
 367              	.L37:
 158:.\debug.c     ****                 
 159:.\debug.c     ****                 case CYBLE_GAP_AUTH_ERROR_UNSPECIFIED_REASON:
 160:.\debug.c     ****                     printf("UNSPECIFIED_REASON\r\n");
 368              		.loc 1 160 0
 369 011c 5C4B     		ldr	r3, .L51+44
 370 011e 181C     		mov	r0, r3
 371 0120 FFF7FEFF 		bl	puts
 161:.\debug.c     ****                     break;
 372              		.loc 1 161 0
 373 0124 0CE0     		b	.L39
 374              	.L38:
 162:.\debug.c     ****                     
 163:.\debug.c     ****                 case CYBLE_GAP_AUTH_ERROR_AUTHENTICATION_TIMEOUT:
 164:.\debug.c     ****                     printf("AUTHENTICATION_TIMEOUT\r\n");
 375              		.loc 1 164 0
 376 0126 5B4B     		ldr	r3, .L51+48
 377 0128 181C     		mov	r0, r3
 378 012a FFF7FEFF 		bl	puts
 165:.\debug.c     ****                     break;
 379              		.loc 1 165 0
 380 012e 07E0     		b	.L39
 381              	.L33:
 166:.\debug.c     ****                     
 167:.\debug.c     ****                 default:
 168:.\debug.c     ****                     printf("0x%x  \r\n", *(CYBLE_GAP_AUTH_FAILED_REASON_T *)eventParam);
 382              		.loc 1 168 0
 383 0130 3B68     		ldr	r3, [r7]
 384 0132 1B78     		ldrb	r3, [r3]
 385 0134 584A     		ldr	r2, .L51+52
 386 0136 101C     		mov	r0, r2
 387 0138 191C     		mov	r1, r3
 388 013a FFF7FEFF 		bl	printf
 169:.\debug.c     ****                     break;
 389              		.loc 1 169 0
 390 013e C046     		mov	r8, r8
 391              	.L39:
 170:.\debug.c     ****             }
 171:.\debug.c     ****             break;
 392              		.loc 1 171 0
 393 0140 8CE0     		b	.L5
 394              	.L25:
 172:.\debug.c     **** 
 173:.\debug.c     ****         case CYBLE_EVT_GAP_DEVICE_CONNECTED:
 174:.\debug.c     ****             printf("EVT_GAP_DEVICE_CONNECTED: %x \r\n", cyBle_connHandle.bdHandle);
ARM GAS  C:\Users\jdmoussa\AppData\Local\Temp\cclwQepi.s 			page 13


 395              		.loc 1 174 0
 396 0142 564B     		ldr	r3, .L51+56
 397 0144 1B78     		ldrb	r3, [r3]
 398 0146 564A     		ldr	r2, .L51+60
 399 0148 101C     		mov	r0, r2
 400 014a 191C     		mov	r1, r3
 401 014c FFF7FEFF 		bl	printf
 175:.\debug.c     ****             break;
 402              		.loc 1 175 0
 403 0150 84E0     		b	.L5
 404              	.L27:
 176:.\debug.c     **** 
 177:.\debug.c     ****         case CYBLE_EVT_GAPC_CONNECTION_UPDATE_COMPLETE:
 178:.\debug.c     ****             printf("EVT_GAPC_CONNECTION_UPDATE_COMPLETE \r\n");
 405              		.loc 1 178 0
 406 0152 544B     		ldr	r3, .L51+64
 407 0154 181C     		mov	r0, r3
 408 0156 FFF7FEFF 		bl	puts
 179:.\debug.c     ****             break;
 409              		.loc 1 179 0
 410 015a 7FE0     		b	.L5
 411              	.L23:
 180:.\debug.c     **** 
 181:.\debug.c     ****         case CYBLE_EVT_GAP_DEVICE_DISCONNECTED:
 182:.\debug.c     ****             printf("EVT_GAP_DEVICE_DISCONNECTED \r\n");
 412              		.loc 1 182 0
 413 015c 524B     		ldr	r3, .L51+68
 414 015e 181C     		mov	r0, r3
 415 0160 FFF7FEFF 		bl	puts
 183:.\debug.c     ****             break;
 416              		.loc 1 183 0
 417 0164 7AE0     		b	.L5
 418              	.L20:
 184:.\debug.c     **** 
 185:.\debug.c     ****         case CYBLE_EVT_GAP_AUTH_COMPLETE:
 186:.\debug.c     ****             printf("EVT_GAP_AUTH_COMPLETE: security:%x, bonding:%x, ekeySize:%x, authErr %x \r\n",
 187:.\debug.c     ****                         ((CYBLE_GAP_AUTH_INFO_T *)eventParam)->security,
 419              		.loc 1 187 0
 420 0166 3B68     		ldr	r3, [r7]
 421 0168 1B78     		ldrb	r3, [r3]
 186:.\debug.c     ****             printf("EVT_GAP_AUTH_COMPLETE: security:%x, bonding:%x, ekeySize:%x, authErr %x \r\n",
 422              		.loc 1 186 0
 423 016a 191C     		mov	r1, r3
 188:.\debug.c     ****                         ((CYBLE_GAP_AUTH_INFO_T *)eventParam)->bonding, 
 424              		.loc 1 188 0
 425 016c 3B68     		ldr	r3, [r7]
 426 016e 5B78     		ldrb	r3, [r3, #1]
 186:.\debug.c     ****             printf("EVT_GAP_AUTH_COMPLETE: security:%x, bonding:%x, ekeySize:%x, authErr %x \r\n",
 427              		.loc 1 186 0
 428 0170 1A1C     		mov	r2, r3
 189:.\debug.c     ****                         ((CYBLE_GAP_AUTH_INFO_T *)eventParam)->ekeySize, 
 429              		.loc 1 189 0
 430 0172 3B68     		ldr	r3, [r7]
 431 0174 9B78     		ldrb	r3, [r3, #2]
 190:.\debug.c     ****                         ((CYBLE_GAP_AUTH_INFO_T *)eventParam)->authErr);
 432              		.loc 1 190 0
 433 0176 3868     		ldr	r0, [r7]
ARM GAS  C:\Users\jdmoussa\AppData\Local\Temp\cclwQepi.s 			page 14


 434 0178 C078     		ldrb	r0, [r0, #3]
 186:.\debug.c     ****             printf("EVT_GAP_AUTH_COMPLETE: security:%x, bonding:%x, ekeySize:%x, authErr %x \r\n",
 435              		.loc 1 186 0
 436 017a 041C     		mov	r4, r0
 437 017c 4B48     		ldr	r0, .L51+72
 438 017e 0094     		str	r4, [sp]
 439 0180 FFF7FEFF 		bl	printf
 191:.\debug.c     ****             break;
 440              		.loc 1 191 0
 441 0184 6AE0     		b	.L5
 442              	.L26:
 192:.\debug.c     **** 
 193:.\debug.c     ****         case CYBLE_EVT_GAP_ENCRYPT_CHANGE:
 194:.\debug.c     ****             printf("EVT_GAP_ENCRYPT_CHANGE: %d \r\n", *(uint8 *)eventParam);
 443              		.loc 1 194 0
 444 0186 3B68     		ldr	r3, [r7]
 445 0188 1B78     		ldrb	r3, [r3]
 446 018a 494A     		ldr	r2, .L51+76
 447 018c 101C     		mov	r0, r2
 448 018e 191C     		mov	r1, r3
 449 0190 FFF7FEFF 		bl	printf
 195:.\debug.c     ****             break;
 450              		.loc 1 195 0
 451 0194 62E0     		b	.L5
 452              	.L21:
 196:.\debug.c     **** 
 197:.\debug.c     **** 
 198:.\debug.c     ****         /**********************************************************
 199:.\debug.c     ****         *                       GATT Events
 200:.\debug.c     ****         ***********************************************************/
 201:.\debug.c     ****         case CYBLE_EVT_GATTC_ERROR_RSP:
 202:.\debug.c     ****             printf("EVT_GATTC_ERROR_RSP: opcode: ");
 453              		.loc 1 202 0
 454 0196 474B     		ldr	r3, .L51+80
 455 0198 181C     		mov	r0, r3
 456 019a FFF7FEFF 		bl	printf
 203:.\debug.c     ****             switch(((CYBLE_GATTC_ERR_RSP_PARAM_T *)eventParam)->opCode)
 457              		.loc 1 203 0
 458 019e 3B68     		ldr	r3, [r7]
 459 01a0 9B78     		ldrb	r3, [r3, #2]
 460 01a2 082B     		cmp	r3, #8
 461 01a4 08D0     		beq	.L41
 462 01a6 102B     		cmp	r3, #16
 463 01a8 0BD0     		beq	.L42
 464 01aa 042B     		cmp	r3, #4
 465 01ac 0ED1     		bne	.L48
 204:.\debug.c     ****             {
 205:.\debug.c     ****                 case CYBLE_GATT_FIND_INFO_REQ:
 206:.\debug.c     ****                     printf("FIND_INFO_REQ");
 466              		.loc 1 206 0
 467 01ae 424B     		ldr	r3, .L51+84
 468 01b0 181C     		mov	r0, r3
 469 01b2 FFF7FEFF 		bl	printf
 207:.\debug.c     ****                     break;
 470              		.loc 1 207 0
 471 01b6 11E0     		b	.L44
 472              	.L41:
ARM GAS  C:\Users\jdmoussa\AppData\Local\Temp\cclwQepi.s 			page 15


 208:.\debug.c     **** 
 209:.\debug.c     ****                 case CYBLE_GATT_READ_BY_TYPE_REQ:
 210:.\debug.c     ****                     printf("READ_BY_TYPE_REQ");
 473              		.loc 1 210 0
 474 01b8 404B     		ldr	r3, .L51+88
 475 01ba 181C     		mov	r0, r3
 476 01bc FFF7FEFF 		bl	printf
 211:.\debug.c     ****                     break;
 477              		.loc 1 211 0
 478 01c0 0CE0     		b	.L44
 479              	.L42:
 212:.\debug.c     **** 
 213:.\debug.c     ****                 case CYBLE_GATT_READ_BY_GROUP_REQ:
 214:.\debug.c     ****                     printf("READ_BY_GROUP_REQ");
 480              		.loc 1 214 0
 481 01c2 3F4B     		ldr	r3, .L51+92
 482 01c4 181C     		mov	r0, r3
 483 01c6 FFF7FEFF 		bl	printf
 215:.\debug.c     ****                     break;
 484              		.loc 1 215 0
 485 01ca 07E0     		b	.L44
 486              	.L48:
 216:.\debug.c     **** 
 217:.\debug.c     ****                 default:
 218:.\debug.c     ****                     printf("%x", ((CYBLE_GATTC_ERR_RSP_PARAM_T *)eventParam)->opCode);
 487              		.loc 1 218 0
 488 01cc 3B68     		ldr	r3, [r7]
 489 01ce 9B78     		ldrb	r3, [r3, #2]
 490 01d0 3C4A     		ldr	r2, .L51+96
 491 01d2 101C     		mov	r0, r2
 492 01d4 191C     		mov	r1, r3
 493 01d6 FFF7FEFF 		bl	printf
 219:.\debug.c     ****                     break;
 494              		.loc 1 219 0
 495 01da C046     		mov	r8, r8
 496              	.L44:
 220:.\debug.c     ****             }
 221:.\debug.c     ****             printf(",  handle: %x,  ", ((CYBLE_GATTC_ERR_RSP_PARAM_T *)eventParam)->attrHandle);
 497              		.loc 1 221 0
 498 01dc 3B68     		ldr	r3, [r7]
 499 01de 9B88     		ldrh	r3, [r3, #4]
 500 01e0 394A     		ldr	r2, .L51+100
 501 01e2 101C     		mov	r0, r2
 502 01e4 191C     		mov	r1, r3
 503 01e6 FFF7FEFF 		bl	printf
 222:.\debug.c     ****             printf("errorcode: ");
 504              		.loc 1 222 0
 505 01ea 384B     		ldr	r3, .L51+104
 506 01ec 181C     		mov	r0, r3
 507 01ee FFF7FEFF 		bl	printf
 223:.\debug.c     ****             switch(((CYBLE_GATTC_ERR_RSP_PARAM_T *)eventParam)->errorCode)
 508              		.loc 1 223 0
 509 01f2 3B68     		ldr	r3, [r7]
 510 01f4 9B79     		ldrb	r3, [r3, #6]
 511 01f6 0A2B     		cmp	r3, #10
 512 01f8 04D1     		bne	.L49
 224:.\debug.c     ****             {
ARM GAS  C:\Users\jdmoussa\AppData\Local\Temp\cclwQepi.s 			page 16


 225:.\debug.c     ****                 case CYBLE_GATT_ERR_ATTRIBUTE_NOT_FOUND:
 226:.\debug.c     ****                     printf("ATTRIBUTE_NOT_FOUND");
 513              		.loc 1 226 0
 514 01fa 354B     		ldr	r3, .L51+108
 515 01fc 181C     		mov	r0, r3
 516 01fe FFF7FEFF 		bl	printf
 227:.\debug.c     ****                     break;
 517              		.loc 1 227 0
 518 0202 07E0     		b	.L47
 519              	.L49:
 228:.\debug.c     **** 
 229:.\debug.c     ****                 default:
 230:.\debug.c     ****                     printf("%x", ((CYBLE_GATTC_ERR_RSP_PARAM_T *)eventParam)->errorCode);
 520              		.loc 1 230 0
 521 0204 3B68     		ldr	r3, [r7]
 522 0206 9B79     		ldrb	r3, [r3, #6]
 523 0208 2E4A     		ldr	r2, .L51+96
 524 020a 101C     		mov	r0, r2
 525 020c 191C     		mov	r1, r3
 526 020e FFF7FEFF 		bl	printf
 231:.\debug.c     ****                     break;
 527              		.loc 1 231 0
 528 0212 C046     		mov	r8, r8
 529              	.L47:
 232:.\debug.c     ****             }
 233:.\debug.c     ****             printf("\r\n");
 530              		.loc 1 233 0
 531 0214 2F4B     		ldr	r3, .L51+112
 532 0216 181C     		mov	r0, r3
 533 0218 FFF7FEFF 		bl	puts
 234:.\debug.c     ****             break;
 534              		.loc 1 234 0
 535 021c 1EE0     		b	.L5
 536              	.L29:
 235:.\debug.c     **** 
 236:.\debug.c     ****         case CYBLE_EVT_GATT_CONNECT_IND:
 237:.\debug.c     ****             printf("EVT_GATT_CONNECT_IND: attId %x, bdHandle %x \r\n", 
 238:.\debug.c     ****                 ((CYBLE_CONN_HANDLE_T *)eventParam)->attId, ((CYBLE_CONN_HANDLE_T *)eventParam)->bd
 537              		.loc 1 238 0
 538 021e 3B68     		ldr	r3, [r7]
 539 0220 5B78     		ldrb	r3, [r3, #1]
 237:.\debug.c     ****             printf("EVT_GATT_CONNECT_IND: attId %x, bdHandle %x \r\n", 
 540              		.loc 1 237 0
 541 0222 1A1C     		mov	r2, r3
 542              		.loc 1 238 0
 543 0224 3B68     		ldr	r3, [r7]
 544 0226 1B78     		ldrb	r3, [r3]
 237:.\debug.c     ****             printf("EVT_GATT_CONNECT_IND: attId %x, bdHandle %x \r\n", 
 545              		.loc 1 237 0
 546 0228 2B49     		ldr	r1, .L51+116
 547 022a 081C     		mov	r0, r1
 548 022c 111C     		mov	r1, r2
 549 022e 1A1C     		mov	r2, r3
 550 0230 FFF7FEFF 		bl	printf
 239:.\debug.c     ****             break;
 551              		.loc 1 239 0
 552 0234 12E0     		b	.L5
ARM GAS  C:\Users\jdmoussa\AppData\Local\Temp\cclwQepi.s 			page 17


 553              	.L28:
 240:.\debug.c     **** 
 241:.\debug.c     ****         case CYBLE_EVT_GATT_DISCONNECT_IND:
 242:.\debug.c     ****             printf("EVT_GATT_DISCONNECT_IND \r\n");
 554              		.loc 1 242 0
 555 0236 294B     		ldr	r3, .L51+120
 556 0238 181C     		mov	r0, r3
 557 023a FFF7FEFF 		bl	puts
 243:.\debug.c     ****             break;
 558              		.loc 1 243 0
 559 023e 0DE0     		b	.L5
 560              	.L30:
 244:.\debug.c     **** 
 245:.\debug.c     **** 
 246:.\debug.c     ****         /**********************************************************
 247:.\debug.c     ****         *                       L2CAP Events
 248:.\debug.c     ****         ***********************************************************/
 249:.\debug.c     **** 
 250:.\debug.c     ****         case CYBLE_EVT_L2CAP_CONN_PARAM_UPDATE_REQ:
 251:.\debug.c     ****             printf("EVT_L2CAP_CONN_PARAM_UPDATE_REQ \r\n");
 561              		.loc 1 251 0
 562 0240 274B     		ldr	r3, .L51+124
 563 0242 181C     		mov	r0, r3
 564 0244 FFF7FEFF 		bl	puts
 252:.\debug.c     ****             break;
 565              		.loc 1 252 0
 566 0248 08E0     		b	.L5
 567              	.L6:
 253:.\debug.c     **** 
 254:.\debug.c     ****             
 255:.\debug.c     ****         /**********************************************************
 256:.\debug.c     ****         *                       Debug Events
 257:.\debug.c     ****         ***********************************************************/
 258:.\debug.c     **** 
 259:.\debug.c     ****         case CYBLE_DEBUG_EVT_BLESS_INT:
 260:.\debug.c     ****             break;
 261:.\debug.c     **** 
 262:.\debug.c     **** 
 263:.\debug.c     ****         default:
 264:.\debug.c     ****         #if(CYBLE_GATT_ROLE_SERVER)
 265:.\debug.c     ****             ServerDebugOut(event, eventParam);
 568              		.loc 1 265 0
 569 024a 7A68     		ldr	r2, [r7, #4]
 570 024c 3B68     		ldr	r3, [r7]
 571 024e 101C     		mov	r0, r2
 572 0250 191C     		mov	r1, r3
 573 0252 FFF7FEFF 		bl	ServerDebugOut
 266:.\debug.c     ****         #endif /* (CYBLE_GATT_ROLE_SERVER) */
 267:.\debug.c     ****         #if(CYBLE_GATT_ROLE_CLIENT)
 268:.\debug.c     ****             ClientDebugOut(event, eventParam);
 269:.\debug.c     ****         #endif /* (CYBLE_GATT_ROLE_SERVER) */
 270:.\debug.c     ****             break;
 574              		.loc 1 270 0
 575 0256 C046     		mov	r8, r8
 576 0258 00E0     		b	.L5
 577              	.L50:
 260:.\debug.c     ****             break;
ARM GAS  C:\Users\jdmoussa\AppData\Local\Temp\cclwQepi.s 			page 18


 578              		.loc 1 260 0
 579 025a C046     		mov	r8, r8
 580              	.L5:
 271:.\debug.c     ****     }
 272:.\debug.c     **** }
 581              		.loc 1 272 0
 582 025c BD46     		mov	sp, r7
 583 025e 03B0     		add	sp, sp, #12
 584              		@ sp needed
 585 0260 90BD     		pop	{r4, r7, pc}
 586              	.L52:
 587 0262 C046     		.align	2
 588              	.L51:
 589 0264 00000000 		.word	.LC0
 590 0268 10000000 		.word	.LC2
 591 026c 28000000 		.word	.LC4
 592 0270 3C000000 		.word	.LC6
 593 0274 54000000 		.word	.LC8
 594 0278 68000000 		.word	.LC10
 595 027c 7C000000 		.word	.LC12
 596 0280 9C000000 		.word	.LC14
 597 0284 C8000000 		.word	.LC16
 598 0288 E8000000 		.word	.LC18
 599 028c 04010000 		.word	.LC20
 600 0290 28010000 		.word	.LC22
 601 0294 3C010000 		.word	.LC24
 602 0298 54010000 		.word	.LC26
 603 029c 00000000 		.word	cyBle_connHandle
 604 02a0 60010000 		.word	.LC29
 605 02a4 80010000 		.word	.LC31
 606 02a8 A8010000 		.word	.LC33
 607 02ac C8010000 		.word	.LC35
 608 02b0 14020000 		.word	.LC37
 609 02b4 34020000 		.word	.LC39
 610 02b8 54020000 		.word	.LC41
 611 02bc 64020000 		.word	.LC43
 612 02c0 78020000 		.word	.LC45
 613 02c4 8C020000 		.word	.LC47
 614 02c8 90020000 		.word	.LC49
 615 02cc A4020000 		.word	.LC51
 616 02d0 B0020000 		.word	.LC53
 617 02d4 C4020000 		.word	.LC55
 618 02d8 C8020000 		.word	.LC57
 619 02dc F8020000 		.word	.LC59
 620 02e0 14030000 		.word	.LC61
 621              		.cfi_endproc
 622              	.LFE36:
 623              		.size	DebugOut, .-DebugOut
 624              		.text
 625              	.Letext0:
 626              		.file 2 ".\\Generated_Source\\PSoC4/cytypes.h"
 627              		.file 3 ".\\Generated_Source\\PSoC4/CYBLE_Stack.h"
 628              		.file 4 ".\\Generated_Source\\PSoC4/CYBLE_StackGap.h"
 629              		.file 5 ".\\Generated_Source\\PSoC4/CYBLE_StackGatt.h"
 630              		.file 6 ".\\Generated_Source\\PSoC4/CYBLE_StackGattClient.h"
 631              		.file 7 ".\\Generated_Source\\PSoC4/CYBLE_eventHandler.h"