ARM GAS  C:\Users\jdmoussa\AppData\Local\Temp\ccbJZeok.s 			page 1


   1              		.cpu cortex-m0
   2              		.fpu softvfp
   3              		.eabi_attribute 20, 1
   4              		.eabi_attribute 21, 1
   5              		.eabi_attribute 23, 3
   6              		.eabi_attribute 24, 1
   7              		.eabi_attribute 25, 1
   8              		.eabi_attribute 26, 1
   9              		.eabi_attribute 30, 6
  10              		.eabi_attribute 34, 0
  11              		.eabi_attribute 18, 4
  12              		.code	16
  13              		.file	"main.c"
  14              		.text
  15              	.Ltext0:
  16              		.cfi_sections	.debug_frame
  17              		.global	mainTimer
  18              		.bss
  19              		.align	2
  20              		.type	mainTimer, %object
  21              		.size	mainTimer, 4
  22              	mainTimer:
  23 0000 00000000 		.space	4
  24              		.comm	apiResult,2,2
  25              		.section	.text.AppCallBack,"ax",%progbits
  26              		.align	2
  27              		.global	AppCallBack
  28              		.code	16
  29              		.thumb_func
  30              		.type	AppCallBack, %function
  31              	AppCallBack:
  32              	.LFB35:
  33              		.file 1 ".\\main.c"
   1:.\main.c      **** /*******************************************************************************
   2:.\main.c      **** * File Name: main.c
   3:.\main.c      **** *
   4:.\main.c      **** * Version 1.0
   5:.\main.c      **** *
   6:.\main.c      **** * Description:
   7:.\main.c      **** *  Blood Pressure Sensor example project simulates blood pressure records
   8:.\main.c      **** *  and sends them over the BLE Blood Pressure Service.
   9:.\main.c      **** *
  10:.\main.c      **** * Note:
  11:.\main.c      **** *
  12:.\main.c      **** * Hardware Dependency:
  13:.\main.c      **** *  CY8CKIT-042 BLE
  14:.\main.c      **** *
  15:.\main.c      **** ********************************************************************************
  16:.\main.c      **** * Copyright 2015, Cypress Semiconductor Corporation.  All rights reserved.
  17:.\main.c      **** * You may use this file only in accordance with the license, terms, conditions,
  18:.\main.c      **** * disclaimers, and limitations in the end user license agreement accompanying
  19:.\main.c      **** * the software package with which this file was provided.
  20:.\main.c      **** *******************************************************************************/
  21:.\main.c      **** 
  22:.\main.c      **** #include "blss.h"
  23:.\main.c      **** #include "bas.h"
  24:.\main.c      **** 
ARM GAS  C:\Users\jdmoussa\AppData\Local\Temp\ccbJZeok.s 			page 2


  25:.\main.c      **** volatile uint32 mainTimer = 0;
  26:.\main.c      **** CYBLE_API_RESULT_T apiResult;
  27:.\main.c      **** 
  28:.\main.c      **** 
  29:.\main.c      **** /*******************************************************************************
  30:.\main.c      **** * Function Name: AppCallBack()
  31:.\main.c      **** ********************************************************************************
  32:.\main.c      **** *
  33:.\main.c      **** * Summary:
  34:.\main.c      **** *   This is an event callback function to receive events from the BLE Component.
  35:.\main.c      **** *
  36:.\main.c      **** * Parameters:
  37:.\main.c      **** *  event - the event code
  38:.\main.c      **** *  *eventParam - the event parameters
  39:.\main.c      **** *
  40:.\main.c      **** *******************************************************************************/
  41:.\main.c      **** void AppCallBack(uint32 event, void* eventParam)
  42:.\main.c      **** {
  34              		.loc 1 42 0
  35              		.cfi_startproc
  36 0000 80B5     		push	{r7, lr}
  37              		.cfi_def_cfa_offset 8
  38              		.cfi_offset 7, -8
  39              		.cfi_offset 14, -4
  40 0002 82B0     		sub	sp, sp, #8
  41              		.cfi_def_cfa_offset 16
  42 0004 00AF     		add	r7, sp, #0
  43              		.cfi_def_cfa_register 7
  44 0006 7860     		str	r0, [r7, #4]
  45 0008 3960     		str	r1, [r7]
  43:.\main.c      **** #ifdef DEBUG_OUT    
  44:.\main.c      ****     DebugOut(event, eventParam);
  46              		.loc 1 44 0
  47 000a 7A68     		ldr	r2, [r7, #4]
  48 000c 3B68     		ldr	r3, [r7]
  49 000e 101C     		mov	r0, r2
  50 0010 191C     		mov	r1, r3
  51 0012 FFF7FEFF 		bl	DebugOut
  45:.\main.c      **** #endif
  46:.\main.c      **** 
  47:.\main.c      ****     switch(event)
  52              		.loc 1 47 0
  53 0016 7B68     		ldr	r3, [r7, #4]
  54 0018 272B     		cmp	r3, #39
  55 001a 0AD0     		beq	.L3
  56 001c 282B     		cmp	r3, #40
  57 001e 02D0     		beq	.L4
  58 0020 012B     		cmp	r3, #1
  59 0022 00D0     		beq	.L4
  48:.\main.c      ****     {
  49:.\main.c      ****         case CYBLE_EVT_STACK_ON:
  50:.\main.c      ****         case CYBLE_EVT_GAP_DEVICE_DISCONNECTED:
  51:.\main.c      ****             batteryMeasure = DISABLED;
  52:.\main.c      ****             /* Put the device to discoverable mode so that remote can search it. */
  53:.\main.c      ****             StartAdvertisement();
  54:.\main.c      ****             break;
  55:.\main.c      ****             
ARM GAS  C:\Users\jdmoussa\AppData\Local\Temp\ccbJZeok.s 			page 3


  56:.\main.c      ****         case CYBLE_EVT_GAP_DEVICE_CONNECTED:
  57:.\main.c      ****             Advertising_LED_Write(LED_OFF);
  58:.\main.c      ****             break;
  59:.\main.c      **** 
  60:.\main.c      ****         default:
  61:.\main.c      ****             break;
  60              		.loc 1 61 0
  61 0024 09E0     		b	.L1
  62              	.L4:
  51:.\main.c      ****             batteryMeasure = DISABLED;
  63              		.loc 1 51 0
  64 0026 064B     		ldr	r3, .L6
  65 0028 0022     		mov	r2, #0
  66 002a 1A80     		strh	r2, [r3]
  53:.\main.c      ****             StartAdvertisement();
  67              		.loc 1 53 0
  68 002c FFF7FEFF 		bl	StartAdvertisement
  54:.\main.c      ****             break;
  69              		.loc 1 54 0
  70 0030 03E0     		b	.L1
  71              	.L3:
  57:.\main.c      ****             Advertising_LED_Write(LED_OFF);
  72              		.loc 1 57 0
  73 0032 0120     		mov	r0, #1
  74 0034 FFF7FEFF 		bl	Advertising_LED_Write
  58:.\main.c      ****             break;
  75              		.loc 1 58 0
  76 0038 C046     		mov	r8, r8
  77              	.L1:
  62:.\main.c      ****     }
  63:.\main.c      **** }
  78              		.loc 1 63 0
  79 003a BD46     		mov	sp, r7
  80 003c 02B0     		add	sp, sp, #8
  81              		@ sp needed
  82 003e 80BD     		pop	{r7, pc}
  83              	.L7:
  84              		.align	2
  85              	.L6:
  86 0040 00000000 		.word	batteryMeasure
  87              		.cfi_endproc
  88              	.LFE35:
  89              		.size	AppCallBack, .-AppCallBack
  90              		.section	.text.Timer_Interrupt,"ax",%progbits
  91              		.align	2
  92              		.global	Timer_Interrupt
  93              		.code	16
  94              		.thumb_func
  95              		.type	Timer_Interrupt, %function
  96              	Timer_Interrupt:
  97              	.LFB36:
  64:.\main.c      **** 
  65:.\main.c      **** 
  66:.\main.c      **** /*******************************************************************************
  67:.\main.c      **** * Function Name: Timer_Interrupt
  68:.\main.c      **** ********************************************************************************
  69:.\main.c      **** *
ARM GAS  C:\Users\jdmoussa\AppData\Local\Temp\ccbJZeok.s 			page 4


  70:.\main.c      **** * Summary:
  71:.\main.c      **** *  Handles the Interrupt Service Routine for the WDT timer.
  72:.\main.c      **** *  It is called from common WDT ISR located in BLE component. 
  73:.\main.c      **** *
  74:.\main.c      **** *******************************************************************************/
  75:.\main.c      **** void Timer_Interrupt(void)
  76:.\main.c      **** {
  98              		.loc 1 76 0
  99              		.cfi_startproc
 100 0000 80B5     		push	{r7, lr}
 101              		.cfi_def_cfa_offset 8
 102              		.cfi_offset 7, -8
 103              		.cfi_offset 14, -4
 104 0002 00AF     		add	r7, sp, #0
 105              		.cfi_def_cfa_register 7
  77:.\main.c      ****     if(CySysWdtGetInterruptSource() & WDT_INTERRUPT_SOURCE)
 106              		.loc 1 77 0
 107 0004 FFF7FEFF 		bl	CySysWdtGetInterruptSource
 108 0008 021C     		mov	r2, r0
 109 000a 8023     		mov	r3, #128
 110 000c DB00     		lsl	r3, r3, #3
 111 000e 1340     		and	r3, r2
 112 0010 19D0     		beq	.L8
 113              	.LBB2:
  78:.\main.c      ****     {
  79:.\main.c      ****         static uint8 led = LED_OFF;
  80:.\main.c      ****         
  81:.\main.c      ****         /* Blink LED to indicate that device advertises */
  82:.\main.c      ****         if(CYBLE_STATE_ADVERTISING == CyBle_GetState())
 114              		.loc 1 82 0
 115 0012 0E4B     		ldr	r3, .L11
 116 0014 1B78     		ldrb	r3, [r3]
 117 0016 032B     		cmp	r3, #3
 118 0018 0BD1     		bne	.L10
  83:.\main.c      ****         {
  84:.\main.c      ****             led ^= LED_OFF;
 119              		.loc 1 84 0
 120 001a 0D4B     		ldr	r3, .L11+4
 121 001c 1B78     		ldrb	r3, [r3]
 122 001e 0122     		mov	r2, #1
 123 0020 5340     		eor	r3, r2
 124 0022 DAB2     		uxtb	r2, r3
 125 0024 0A4B     		ldr	r3, .L11+4
 126 0026 1A70     		strb	r2, [r3]
  85:.\main.c      ****             Advertising_LED_Write(led);
 127              		.loc 1 85 0
 128 0028 094B     		ldr	r3, .L11+4
 129 002a 1B78     		ldrb	r3, [r3]
 130 002c 181C     		mov	r0, r3
 131 002e FFF7FEFF 		bl	Advertising_LED_Write
 132              	.L10:
  86:.\main.c      ****         }
  87:.\main.c      ****         
  88:.\main.c      ****         /* Indicate that timer is raised to the main loop */
  89:.\main.c      ****         mainTimer++;
 133              		.loc 1 89 0
 134 0032 084B     		ldr	r3, .L11+8
ARM GAS  C:\Users\jdmoussa\AppData\Local\Temp\ccbJZeok.s 			page 5


 135 0034 1B68     		ldr	r3, [r3]
 136 0036 5A1C     		add	r2, r3, #1
 137 0038 064B     		ldr	r3, .L11+8
 138 003a 1A60     		str	r2, [r3]
  90:.\main.c      ****         
  91:.\main.c      ****         /* Clears interrupt request  */
  92:.\main.c      ****         CySysWdtClearInterrupt(WDT_INTERRUPT_SOURCE);
 139              		.loc 1 92 0
 140 003c 8023     		mov	r3, #128
 141 003e DB00     		lsl	r3, r3, #3
 142 0040 181C     		mov	r0, r3
 143 0042 FFF7FEFF 		bl	CySysWdtClearInterrupt
 144              	.L8:
 145              	.LBE2:
  93:.\main.c      ****     }
  94:.\main.c      **** }
 146              		.loc 1 94 0
 147 0046 BD46     		mov	sp, r7
 148              		@ sp needed
 149 0048 80BD     		pop	{r7, pc}
 150              	.L12:
 151 004a C046     		.align	2
 152              	.L11:
 153 004c 00000000 		.word	cyBle_state
 154 0050 00000000 		.word	led.7512
 155 0054 00000000 		.word	mainTimer
 156              		.cfi_endproc
 157              	.LFE36:
 158              		.size	Timer_Interrupt, .-Timer_Interrupt
 159              		.section	.text.WDT_Start,"ax",%progbits
 160              		.align	2
 161              		.global	WDT_Start
 162              		.code	16
 163              		.thumb_func
 164              		.type	WDT_Start, %function
 165              	WDT_Start:
 166              	.LFB37:
  95:.\main.c      **** 
  96:.\main.c      **** /*******************************************************************************
  97:.\main.c      **** * Function Name: WDT_Start
  98:.\main.c      **** ********************************************************************************
  99:.\main.c      **** *
 100:.\main.c      **** * Summary:
 101:.\main.c      **** *  Configures WDT(counter 2) to trigger an interrupt every second.
 102:.\main.c      **** *
 103:.\main.c      **** *******************************************************************************/
 104:.\main.c      **** 
 105:.\main.c      **** void WDT_Start(void)
 106:.\main.c      **** {
 167              		.loc 1 106 0
 168              		.cfi_startproc
 169 0000 80B5     		push	{r7, lr}
 170              		.cfi_def_cfa_offset 8
 171              		.cfi_offset 7, -8
 172              		.cfi_offset 14, -4
 173 0002 00AF     		add	r7, sp, #0
 174              		.cfi_def_cfa_register 7
ARM GAS  C:\Users\jdmoussa\AppData\Local\Temp\ccbJZeok.s 			page 6


 107:.\main.c      ****    
 108:.\main.c      ****     /* Unlock the WDT registers for modification */
 109:.\main.c      ****     CySysWdtUnlock(); 
 175              		.loc 1 109 0
 176 0004 FFF7FEFF 		bl	CySysWdtUnlock
 110:.\main.c      ****     /* Setup ISR callback */
 111:.\main.c      ****     WdtIsr_StartEx(Timer_Interrupt);
 177              		.loc 1 111 0
 178 0008 0E4B     		ldr	r3, .L14
 179 000a 181C     		mov	r0, r3
 180 000c FFF7FEFF 		bl	WdtIsr_StartEx
 112:.\main.c      ****     /* Write the mode to generate interrupt on match */
 113:.\main.c      ****     CySysWdtWriteMode(WDT_COUNTER, CY_SYS_WDT_MODE_INT);
 181              		.loc 1 113 0
 182 0010 0120     		mov	r0, #1
 183 0012 0121     		mov	r1, #1
 184 0014 FFF7FEFF 		bl	CySysWdtWriteMode
 114:.\main.c      ****     /* Configure the WDT counter clear on a match setting */
 115:.\main.c      ****     CySysWdtWriteClearOnMatch(WDT_COUNTER, WDT_COUNTER_ENABLE);
 185              		.loc 1 115 0
 186 0018 0120     		mov	r0, #1
 187 001a 0121     		mov	r1, #1
 188 001c FFF7FEFF 		bl	CySysWdtWriteClearOnMatch
 116:.\main.c      ****     /* Configure the WDT counter match comparison value */
 117:.\main.c      ****     CySysWdtWriteMatch(WDT_COUNTER, WDT_1SEC);
 189              		.loc 1 117 0
 190 0020 094B     		ldr	r3, .L14+4
 191 0022 0120     		mov	r0, #1
 192 0024 191C     		mov	r1, r3
 193 0026 FFF7FEFF 		bl	CySysWdtWriteMatch
 118:.\main.c      ****     /* Reset WDT counter */
 119:.\main.c      ****     CySysWdtResetCounters(WDT_COUNTER);
 194              		.loc 1 119 0
 195 002a 0120     		mov	r0, #1
 196 002c FFF7FEFF 		bl	CySysWdtResetCounters
 120:.\main.c      ****     /* Enable the specified WDT counter */
 121:.\main.c      ****     CySysWdtEnable(WDT_COUNTER_MASK);
 197              		.loc 1 121 0
 198 0030 8023     		mov	r3, #128
 199 0032 5B00     		lsl	r3, r3, #1
 200 0034 181C     		mov	r0, r3
 201 0036 FFF7FEFF 		bl	CySysWdtEnable
 122:.\main.c      ****     /* Lock out configuration changes to the Watchdog timer registers */
 123:.\main.c      ****     CySysWdtLock();    
 202              		.loc 1 123 0
 203 003a FFF7FEFF 		bl	CySysWdtLock
 124:.\main.c      **** }
 204              		.loc 1 124 0
 205 003e BD46     		mov	sp, r7
 206              		@ sp needed
 207 0040 80BD     		pop	{r7, pc}
 208              	.L15:
 209 0042 C046     		.align	2
 210              	.L14:
 211 0044 00000000 		.word	Timer_Interrupt
 212 0048 FF7F0000 		.word	32767
 213              		.cfi_endproc
ARM GAS  C:\Users\jdmoussa\AppData\Local\Temp\ccbJZeok.s 			page 7


 214              	.LFE37:
 215              		.size	WDT_Start, .-WDT_Start
 216              		.section	.rodata
 217              		.align	2
 218              	.LC5:
 219 0000 424C4520 		.ascii	"BLE Blood Pressure Sensor Example Project \015\000"
 219      426C6F6F 
 219      64205072 
 219      65737375 
 219      72652053 
 220              		.align	2
 221              	.LC9:
 222 002c 4379426C 		.ascii	"CyBle_Start API Error: %x \015\012\000"
 222      655F5374 
 222      61727420 
 222      41504920 
 222      4572726F 
 223 0049 000000   		.align	2
 224              	.LC12:
 225 004c 4379426C 		.ascii	"CyBle_BlssSetCharacteristicValue API Error: %x \015"
 225      655F426C 
 225      73735365 
 225      74436861 
 225      72616374 
 226 007c 0A00     		.ascii	"\012\000"
 227 007e 0000     		.align	2
 228              	.LC19:
 229 0080 53746F72 		.ascii	"Store bonding data, status: %x \015\012\000"
 229      6520626F 
 229      6E64696E 
 229      67206461 
 229      74612C20 
 230 00a2 0000     		.section	.text.main,"ax",%progbits
 231              		.align	2
 232              		.global	main
 233              		.code	16
 234              		.thumb_func
 235              		.type	main, %function
 236              	main:
 237              	.LFB38:
 125:.\main.c      **** 
 126:.\main.c      **** 
 127:.\main.c      **** int main()
 128:.\main.c      **** {
 238              		.loc 1 128 0
 239              		.cfi_startproc
 240 0000 90B5     		push	{r4, r7, lr}
 241              		.cfi_def_cfa_offset 12
 242              		.cfi_offset 4, -12
 243              		.cfi_offset 7, -8
 244              		.cfi_offset 14, -4
 245 0002 83B0     		sub	sp, sp, #12
 246              		.cfi_def_cfa_offset 24
 247 0004 00AF     		add	r7, sp, #0
 248              		.cfi_def_cfa_register 7
 129:.\main.c      ****     CYBLE_LP_MODE_T lpMode;
 130:.\main.c      ****     CYBLE_BLESS_STATE_T blessState;
ARM GAS  C:\Users\jdmoussa\AppData\Local\Temp\ccbJZeok.s 			page 8


 131:.\main.c      **** 
 132:.\main.c      ****     CyGlobalIntEnable;
 249              		.loc 1 132 0
 250              	@ 132 ".\main.c" 1
 251 0006 62B6     		CPSIE   i
 252              	@ 0 "" 2
 133:.\main.c      ****     UART_DEB_Start();               /* Start communication component */
 253              		.loc 1 133 0
 254              		.code	16
 255 0008 FFF7FEFF 		bl	UART_DEB_Start
 134:.\main.c      ****     printf("BLE Blood Pressure Sensor Example Project \r\n");
 256              		.loc 1 134 0
 257 000c 594B     		ldr	r3, .L32
 258 000e 181C     		mov	r0, r3
 259 0010 FFF7FEFF 		bl	puts
 135:.\main.c      **** 
 136:.\main.c      ****     Disconnect_LED_Write(LED_OFF);
 260              		.loc 1 136 0
 261 0014 0120     		mov	r0, #1
 262 0016 FFF7FEFF 		bl	Disconnect_LED_Write
 137:.\main.c      ****     Advertising_LED_Write(LED_OFF);
 263              		.loc 1 137 0
 264 001a 0120     		mov	r0, #1
 265 001c FFF7FEFF 		bl	Advertising_LED_Write
 138:.\main.c      ****     LowPower_LED_Write(LED_OFF);
 266              		.loc 1 138 0
 267 0020 0120     		mov	r0, #1
 268 0022 FFF7FEFF 		bl	LowPower_LED_Write
 139:.\main.c      **** 
 140:.\main.c      ****     if(CYBLE_ERROR_OK != (apiResult = CyBle_Start(AppCallBack)))
 269              		.loc 1 140 0
 270 0026 544B     		ldr	r3, .L32+4
 271 0028 181C     		mov	r0, r3
 272 002a FFF7FEFF 		bl	CyBle_Start
 273 002e 031C     		mov	r3, r0
 274 0030 1A1C     		mov	r2, r3
 275 0032 524B     		ldr	r3, .L32+8
 276 0034 1A80     		strh	r2, [r3]
 277 0036 514B     		ldr	r3, .L32+8
 278 0038 1B88     		ldrh	r3, [r3]
 279 003a 002B     		cmp	r3, #0
 280 003c 06D0     		beq	.L17
 141:.\main.c      ****     {
 142:.\main.c      ****         printf("CyBle_Start API Error: %x \r\n", apiResult);
 281              		.loc 1 142 0
 282 003e 4F4B     		ldr	r3, .L32+8
 283 0040 1B88     		ldrh	r3, [r3]
 284 0042 4F4A     		ldr	r2, .L32+12
 285 0044 101C     		mov	r0, r2
 286 0046 191C     		mov	r1, r3
 287 0048 FFF7FEFF 		bl	printf
 288              	.L17:
 143:.\main.c      ****     }
 144:.\main.c      **** 
 145:.\main.c      ****     BasInit();
 289              		.loc 1 145 0
 290 004c FFF7FEFF 		bl	BasInit
ARM GAS  C:\Users\jdmoussa\AppData\Local\Temp\ccbJZeok.s 			page 9


 146:.\main.c      ****     BlsInit();
 291              		.loc 1 146 0
 292 0050 FFF7FEFF 		bl	BlsInit
 147:.\main.c      ****     
 148:.\main.c      ****     ADC_Start();
 293              		.loc 1 148 0
 294 0054 FFF7FEFF 		bl	ADC_Start
 149:.\main.c      ****     WDT_Start();
 295              		.loc 1 149 0
 296 0058 FFF7FEFF 		bl	WDT_Start
 150:.\main.c      ****     
 151:.\main.c      ****     /* Uncomment the line below to printf all events via UART for debug */
 152:.\main.c      ****     /*cyBle_eventHandlerFlag |= CYBLE_ENABLE_ALL_EVENTS;*/
 153:.\main.c      **** 
 154:.\main.c      ****     if(CYBLE_ERROR_OK != (apiResult = CyBle_BlssSetCharacteristicValue(CYBLE_BLS_BPF, sizeof(uint16
 297              		.loc 1 154 0
 298 005c 494B     		ldr	r3, .L32+16
 299 005e 0220     		mov	r0, #2
 300 0060 0221     		mov	r1, #2
 301 0062 1A1C     		mov	r2, r3
 302 0064 FFF7FEFF 		bl	CyBle_BlssSetCharacteristicValue
 303 0068 031C     		mov	r3, r0
 304 006a 1A1C     		mov	r2, r3
 305 006c 434B     		ldr	r3, .L32+8
 306 006e 1A80     		strh	r2, [r3]
 307 0070 424B     		ldr	r3, .L32+8
 308 0072 1B88     		ldrh	r3, [r3]
 309 0074 002B     		cmp	r3, #0
 310 0076 06D0     		beq	.L18
 155:.\main.c      ****     {
 156:.\main.c      ****         printf("CyBle_BlssSetCharacteristicValue API Error: %x \r\n", apiResult);
 311              		.loc 1 156 0
 312 0078 404B     		ldr	r3, .L32+8
 313 007a 1B88     		ldrh	r3, [r3]
 314 007c 424A     		ldr	r2, .L32+20
 315 007e 101C     		mov	r0, r2
 316 0080 191C     		mov	r1, r3
 317 0082 FFF7FEFF 		bl	printf
 318              	.L18:
 157:.\main.c      ****     }
 158:.\main.c      **** 
 159:.\main.c      ****     /***************************************************************************
 160:.\main.c      ****     * Main polling loop
 161:.\main.c      ****     ***************************************************************************/
 162:.\main.c      ****     while(1)
 163:.\main.c      ****     {
 164:.\main.c      ****         if(CyBle_GetState() != CYBLE_STATE_INITIALIZING)
 319              		.loc 1 164 0
 320 0086 414B     		ldr	r3, .L32+24
 321 0088 1B78     		ldrb	r3, [r3]
 322 008a 012B     		cmp	r3, #1
 323 008c 33D0     		beq	.L19
 165:.\main.c      ****         {
 166:.\main.c      ****             /* Enter DeepSleep mode between connection intervals */
 167:.\main.c      ****             lpMode = CyBle_EnterLPM(CYBLE_BLESS_DEEPSLEEP);
 324              		.loc 1 167 0
 325 008e FC1D     		add	r4, r7, #7
ARM GAS  C:\Users\jdmoussa\AppData\Local\Temp\ccbJZeok.s 			page 10


 326 0090 0320     		mov	r0, #3
 327 0092 FFF7FEFF 		bl	CyBle_EnterLPM
 328 0096 031C     		mov	r3, r0
 329 0098 2370     		strb	r3, [r4]
 168:.\main.c      ****             CyGlobalIntDisable;
 330              		.loc 1 168 0
 331              	@ 168 ".\main.c" 1
 332 009a 72B6     		CPSID   i
 333              	@ 0 "" 2
 169:.\main.c      ****             blessState = CyBle_GetBleSsState();
 334              		.loc 1 169 0
 335              		.code	16
 336 009c BC1D     		add	r4, r7, #6
 337 009e FFF7FEFF 		bl	CyBle_GetBleSsState
 338 00a2 031C     		mov	r3, r0
 339 00a4 2370     		strb	r3, [r4]
 170:.\main.c      **** 
 171:.\main.c      ****             if(lpMode == CYBLE_BLESS_DEEPSLEEP) 
 340              		.loc 1 171 0
 341 00a6 FB1D     		add	r3, r7, #7
 342 00a8 1B78     		ldrb	r3, [r3]
 343 00aa 032B     		cmp	r3, #3
 344 00ac 1CD1     		bne	.L20
 172:.\main.c      ****             {   
 173:.\main.c      ****                 if(blessState == CYBLE_BLESS_STATE_ECO_ON || blessState == CYBLE_BLESS_STATE_DEEPSL
 345              		.loc 1 173 0
 346 00ae BB1D     		add	r3, r7, #6
 347 00b0 1B78     		ldrb	r3, [r3]
 348 00b2 042B     		cmp	r3, #4
 349 00b4 03D0     		beq	.L21
 350              		.loc 1 173 0 is_stmt 0 discriminator 1
 351 00b6 BB1D     		add	r3, r7, #6
 352 00b8 1B78     		ldrb	r3, [r3]
 353 00ba 062B     		cmp	r3, #6
 354 00bc 1AD1     		bne	.L26
 355              	.L21:
 174:.\main.c      ****                 {
 175:.\main.c      ****                     /* Put the device into the Deep Sleep mode only when all debug information has 
 176:.\main.c      ****                     if((UART_DEB_SpiUartGetTxBufferSize() + UART_DEB_GET_TX_FIFO_SR_VALID) == 0u)
 356              		.loc 1 176 0 is_stmt 1
 357 00be FFF7FEFF 		bl	UART_DEB_SpiUartGetTxBufferSize
 358 00c2 021C     		mov	r2, r0
 359 00c4 324B     		ldr	r3, .L32+28
 360 00c6 1968     		ldr	r1, [r3]
 361 00c8 8023     		mov	r3, #128
 362 00ca 1B02     		lsl	r3, r3, #8
 363 00cc 0B40     		and	r3, r1
 364 00ce 01D0     		beq	.L23
 365              		.loc 1 176 0 is_stmt 0 discriminator 1
 366 00d0 0123     		mov	r3, #1
 367 00d2 00E0     		b	.L24
 368              	.L23:
 369              		.loc 1 176 0 discriminator 2
 370 00d4 0023     		mov	r3, #0
 371              	.L24:
 372              		.loc 1 176 0 discriminator 3
 373 00d6 D318     		add	r3, r2, r3
ARM GAS  C:\Users\jdmoussa\AppData\Local\Temp\ccbJZeok.s 			page 11


 374 00d8 002B     		cmp	r3, #0
 375 00da 02D1     		bne	.L25
 177:.\main.c      ****                     {
 178:.\main.c      ****                         CySysPmDeepSleep();
 376              		.loc 1 178 0 is_stmt 1
 377 00dc FFF7FEFF 		bl	CySysPmDeepSleep
 378 00e0 08E0     		b	.L26
 379              	.L25:
 179:.\main.c      ****                     }
 180:.\main.c      ****                     else
 181:.\main.c      ****                     {
 182:.\main.c      ****                         CySysPmSleep();
 380              		.loc 1 182 0
 381 00e2 FFF7FEFF 		bl	CySysPmSleep
 382 00e6 05E0     		b	.L26
 383              	.L20:
 183:.\main.c      ****                     }
 184:.\main.c      ****                 }
 185:.\main.c      ****             }
 186:.\main.c      ****             else
 187:.\main.c      ****             {
 188:.\main.c      ****                 if(blessState != CYBLE_BLESS_STATE_EVENT_CLOSE)
 384              		.loc 1 188 0
 385 00e8 BB1D     		add	r3, r7, #6
 386 00ea 1B78     		ldrb	r3, [r3]
 387 00ec 022B     		cmp	r3, #2
 388 00ee 01D0     		beq	.L26
 189:.\main.c      ****                 {
 190:.\main.c      ****                     CySysPmSleep();
 389              		.loc 1 190 0
 390 00f0 FFF7FEFF 		bl	CySysPmSleep
 391              	.L26:
 191:.\main.c      ****                 }
 192:.\main.c      ****             }
 193:.\main.c      ****             CyGlobalIntEnable;
 392              		.loc 1 193 0
 393              	@ 193 ".\main.c" 1
 394 00f4 62B6     		CPSIE   i
 395              	@ 0 "" 2
 396              		.code	16
 397              	.L19:
 194:.\main.c      ****         }
 195:.\main.c      ****         
 196:.\main.c      ****         /***********************************************************************
 197:.\main.c      ****         * Wait for connection established with Central device
 198:.\main.c      ****         ***********************************************************************/
 199:.\main.c      ****         if(CyBle_GetState() == CYBLE_STATE_CONNECTED)
 398              		.loc 1 199 0
 399 00f6 254B     		ldr	r3, .L32+24
 400 00f8 1B78     		ldrb	r3, [r3]
 401 00fa 022B     		cmp	r3, #2
 402 00fc 36D1     		bne	.L27
 200:.\main.c      ****         {
 201:.\main.c      ****             /*******************************************************************
 202:.\main.c      ****             *  Periodically measure a battery level and temperature and send 
 203:.\main.c      ****             *  results to the Client
 204:.\main.c      ****             *******************************************************************/        
ARM GAS  C:\Users\jdmoussa\AppData\Local\Temp\ccbJZeok.s 			page 12


 205:.\main.c      ****             if(mainTimer != 0u)
 403              		.loc 1 205 0
 404 00fe 254B     		ldr	r3, .L32+32
 405 0100 1B68     		ldr	r3, [r3]
 406 0102 002B     		cmp	r3, #0
 407 0104 12D0     		beq	.L28
 206:.\main.c      ****             {
 207:.\main.c      ****                 mainTimer = 0u;                
 408              		.loc 1 207 0
 409 0106 234B     		ldr	r3, .L32+32
 410 0108 0022     		mov	r2, #0
 411 010a 1A60     		str	r2, [r3]
 208:.\main.c      ****                 
 209:.\main.c      ****                 if(batteryMeasure == ENABLED)
 412              		.loc 1 209 0
 413 010c 224B     		ldr	r3, .L32+36
 414 010e 1B88     		ldrh	r3, [r3]
 415 0110 012B     		cmp	r3, #1
 416 0112 03D1     		bne	.L29
 210:.\main.c      ****                 {
 211:.\main.c      ****                     MeasureBattery();
 417              		.loc 1 211 0
 418 0114 FFF7FEFF 		bl	MeasureBattery
 212:.\main.c      ****                     CyBle_ProcessEvents();
 419              		.loc 1 212 0
 420 0118 FFF7FEFF 		bl	CyBle_ProcessEvents
 421              	.L29:
 213:.\main.c      ****                 }
 214:.\main.c      ****                 
 215:.\main.c      ****                 /*******************************************************************
 216:.\main.c      ****                 *  Simulate Blood Pressure measurement.
 217:.\main.c      ****                 *******************************************************************/
 218:.\main.c      ****                 if(0u != (blsFlag & (NTF | IND)))
 422              		.loc 1 218 0
 423 011c 1F4B     		ldr	r3, .L32+40
 424 011e 1B78     		ldrb	r3, [r3]
 425 0120 1A1C     		mov	r2, r3
 426 0122 0323     		mov	r3, #3
 427 0124 1340     		and	r3, r2
 428 0126 01D0     		beq	.L28
 219:.\main.c      ****                 {
 220:.\main.c      ****                     BlsSimulate();
 429              		.loc 1 220 0
 430 0128 FFF7FEFF 		bl	BlsSimulate
 431              	.L28:
 221:.\main.c      ****                 }
 222:.\main.c      ****             }
 223:.\main.c      ****             
 224:.\main.c      ****             /* Store bonding data to flash only when all debug information has been sent */
 225:.\main.c      ****             if((cyBle_pendingFlashWrite != 0u) &&
 432              		.loc 1 225 0
 433 012c 1C4B     		ldr	r3, .L32+44
 434 012e 1B78     		ldrb	r3, [r3]
 435 0130 002B     		cmp	r3, #0
 436 0132 1BD0     		beq	.L27
 226:.\main.c      ****                ((UART_DEB_SpiUartGetTxBufferSize() + UART_DEB_GET_TX_FIFO_SR_VALID) == 0u))
 437              		.loc 1 226 0
ARM GAS  C:\Users\jdmoussa\AppData\Local\Temp\ccbJZeok.s 			page 13


 438 0134 FFF7FEFF 		bl	UART_DEB_SpiUartGetTxBufferSize
 439 0138 021C     		mov	r2, r0
 440 013a 154B     		ldr	r3, .L32+28
 441 013c 1968     		ldr	r1, [r3]
 442 013e 8023     		mov	r3, #128
 443 0140 1B02     		lsl	r3, r3, #8
 444 0142 0B40     		and	r3, r1
 445 0144 01D0     		beq	.L30
 446              		.loc 1 226 0 is_stmt 0 discriminator 1
 447 0146 0123     		mov	r3, #1
 448 0148 00E0     		b	.L31
 449              	.L30:
 450              		.loc 1 226 0 discriminator 2
 451 014a 0023     		mov	r3, #0
 452              	.L31:
 453              		.loc 1 226 0 discriminator 3
 454 014c D318     		add	r3, r2, r3
 225:.\main.c      ****             if((cyBle_pendingFlashWrite != 0u) &&
 455              		.loc 1 225 0 is_stmt 1 discriminator 3
 456 014e 002B     		cmp	r3, #0
 457 0150 0CD1     		bne	.L27
 458              	.LBB3:
 227:.\main.c      ****             {
 228:.\main.c      ****                 CYBLE_API_RESULT_T apiResult;
 229:.\main.c      ****                 apiResult = CyBle_StoreBondingData(0u);
 459              		.loc 1 229 0
 460 0152 3C1D     		add	r4, r7, #4
 461 0154 0020     		mov	r0, #0
 462 0156 FFF7FEFF 		bl	CyBle_StoreBondingData
 463 015a 031C     		mov	r3, r0
 464 015c 2380     		strh	r3, [r4]
 230:.\main.c      ****                 printf("Store bonding data, status: %x \r\n", apiResult);
 465              		.loc 1 230 0
 466 015e 3B1D     		add	r3, r7, #4
 467 0160 1B88     		ldrh	r3, [r3]
 468 0162 104A     		ldr	r2, .L32+48
 469 0164 101C     		mov	r0, r2
 470 0166 191C     		mov	r1, r3
 471 0168 FFF7FEFF 		bl	printf
 472              	.L27:
 473              	.LBE3:
 231:.\main.c      ****             }
 232:.\main.c      ****         }
 233:.\main.c      **** 
 234:.\main.c      ****         /*******************************************************************
 235:.\main.c      ****         *  Process all pending BLE events in the stack
 236:.\main.c      ****         *******************************************************************/
 237:.\main.c      ****         CyBle_ProcessEvents();
 474              		.loc 1 237 0
 475 016c FFF7FEFF 		bl	CyBle_ProcessEvents
 238:.\main.c      ****     }
 476              		.loc 1 238 0
 477 0170 89E7     		b	.L18
 478              	.L33:
 479 0172 C046     		.align	2
 480              	.L32:
 481 0174 00000000 		.word	.LC5
ARM GAS  C:\Users\jdmoussa\AppData\Local\Temp\ccbJZeok.s 			page 14


 482 0178 00000000 		.word	AppCallBack
 483 017c 00000000 		.word	apiResult
 484 0180 2C000000 		.word	.LC9
 485 0184 00000000 		.word	feature
 486 0188 4C000000 		.word	.LC12
 487 018c 00000000 		.word	cyBle_state
 488 0190 08022440 		.word	1076101640
 489 0194 00000000 		.word	mainTimer
 490 0198 00000000 		.word	batteryMeasure
 491 019c 00000000 		.word	blsFlag
 492 01a0 00000000 		.word	cyBle_pendingFlashWrite
 493 01a4 80000000 		.word	.LC19
 494              		.cfi_endproc
 495              	.LFE38:
 496              		.size	main, .-main
 497              		.data
 498              		.type	led.7512, %object
 499              		.size	led.7512, 1
 500              	led.7512:
 501 0000 01       		.byte	1
 502              		.text
 503              	.Letext0:
 504              		.file 2 ".\\Generated_Source\\PSoC4/cytypes.h"
 505              		.file 3 ".\\Generated_Source\\PSoC4/CYBLE_Stack.h"
 506              		.file 4 ".\\Generated_Source\\PSoC4/CYBLE_bls.h"
 507              		.file 5 ".\\Generated_Source\\PSoC4/CYBLE_dis.h"
 508              		.file 6 ".\\Generated_Source\\PSoC4/CYBLE_eventHandler.h"
 509              		.file 7 ".\\Generated_Source\\PSoC4/CYBLE.h"
 510              		.file 8 ".\\blss.h"
 511              		.file 9 ".\\bas.h"