ARM GAS  C:\Users\jdmoussa\AppData\Local\Temp\ccJ6k8Kz.s 			page 1


   1              		.cpu cortex-m0
   2              		.fpu softvfp
   3              		.eabi_attribute 20, 1
   4              		.eabi_attribute 21, 1
   5              		.eabi_attribute 23, 3
   6              		.eabi_attribute 24, 1
   7              		.eabi_attribute 25, 1
   8              		.eabi_attribute 26, 1
   9              		.eabi_attribute 30, 6
  10              		.eabi_attribute 34, 0
  11              		.eabi_attribute 18, 4
  12              		.code	16
  13              		.file	"server.c"
  14              		.text
  15              	.Ltext0:
  16              		.cfi_sections	.debug_frame
  17              		.section	.rodata
  18              		.align	2
  19              	.LC1:
  20 0000 53746172 		.ascii	"StartAdvertisement API Error: %x \015\012\000"
  20      74416476 
  20      65727469 
  20      73656D65 
  20      6E742041 
  21              		.align	2
  22              	.LC3:
  23 0024 53746172 		.ascii	"Start Advertisement with addr: \000"
  23      74204164 
  23      76657274 
  23      6973656D 
  23      656E7420 
  24              		.align	2
  25              	.LC5:
  26 0044 25322E32 		.ascii	"%2.2x\000"
  26      7800
  27 004a 0000     		.align	2
  28              	.LC7:
  29 004c 0D00     		.ascii	"\015\000"
  30              		.section	.text.StartAdvertisement,"ax",%progbits
  31              		.align	2
  32              		.global	StartAdvertisement
  33              		.code	16
  34              		.thumb_func
  35              		.type	StartAdvertisement, %function
  36              	StartAdvertisement:
  37              	.LFB35:
  38              		.file 1 ".\\server.c"
   1:.\server.c    **** /*******************************************************************************
   2:.\server.c    **** * File Name: server.c
   3:.\server.c    **** *
   4:.\server.c    **** * Version 1.0
   5:.\server.c    **** *
   6:.\server.c    **** * Description:
   7:.\server.c    **** *  Common BLE application code for server devices.
   8:.\server.c    **** *
   9:.\server.c    **** *******************************************************************************
  10:.\server.c    **** * Copyright 2015, Cypress Semiconductor Corporation.  All rights reserved.
ARM GAS  C:\Users\jdmoussa\AppData\Local\Temp\ccJ6k8Kz.s 			page 2


  11:.\server.c    **** * You may use this file only in accordance with the license, terms, conditions,
  12:.\server.c    **** * disclaimers, and limitations in the end user license agreement accompanying
  13:.\server.c    **** * the software package with which this file was provided.
  14:.\server.c    **** *******************************************************************************/
  15:.\server.c    **** 
  16:.\server.c    **** #include <project.h>
  17:.\server.c    **** #include <stdio.h>
  18:.\server.c    **** #include "common.h"
  19:.\server.c    **** 
  20:.\server.c    **** 
  21:.\server.c    **** /*******************************************************************************
  22:.\server.c    **** * Function Name: StartAdvertisement
  23:.\server.c    **** ********************************************************************************
  24:.\server.c    **** *
  25:.\server.c    **** * Summary:
  26:.\server.c    **** *   Initiates the advertisement procedure.
  27:.\server.c    **** *   Prints the Device Address.
  28:.\server.c    **** *
  29:.\server.c    **** * Parameters:
  30:.\server.c    **** *   None.
  31:.\server.c    **** *
  32:.\server.c    **** * Return:
  33:.\server.c    **** *   None.
  34:.\server.c    **** *
  35:.\server.c    **** *******************************************************************************/
  36:.\server.c    **** void StartAdvertisement(void)
  37:.\server.c    **** {
  39              		.loc 1 37 0
  40              		.cfi_startproc
  41 0000 80B5     		push	{r7, lr}
  42              		.cfi_def_cfa_offset 8
  43              		.cfi_offset 7, -8
  44              		.cfi_offset 14, -4
  45 0002 84B0     		sub	sp, sp, #16
  46              		.cfi_def_cfa_offset 24
  47 0004 00AF     		add	r7, sp, #0
  48              		.cfi_def_cfa_register 7
  38:.\server.c    ****     uint16 i;
  39:.\server.c    ****     CYBLE_GAP_BD_ADDR_T localAddr;
  40:.\server.c    ****     apiResult = CyBle_GappStartAdvertisement(CYBLE_ADVERTISING_FAST);
  49              		.loc 1 40 0
  50 0006 0020     		mov	r0, #0
  51 0008 FFF7FEFF 		bl	CyBle_GappStartAdvertisement
  52 000c 031C     		mov	r3, r0
  53 000e 1A1C     		mov	r2, r3
  54 0010 1C4B     		ldr	r3, .L6
  55 0012 1A80     		strh	r2, [r3]
  41:.\server.c    ****     if(apiResult != CYBLE_ERROR_OK)
  56              		.loc 1 41 0
  57 0014 1B4B     		ldr	r3, .L6
  58 0016 1B88     		ldrh	r3, [r3]
  59 0018 002B     		cmp	r3, #0
  60 001a 07D0     		beq	.L2
  42:.\server.c    ****     {
  43:.\server.c    ****         printf("StartAdvertisement API Error: %x \r\n", (int) apiResult);
  61              		.loc 1 43 0
  62 001c 194B     		ldr	r3, .L6
ARM GAS  C:\Users\jdmoussa\AppData\Local\Temp\ccJ6k8Kz.s 			page 3


  63 001e 1B88     		ldrh	r3, [r3]
  64 0020 194A     		ldr	r2, .L6+4
  65 0022 101C     		mov	r0, r2
  66 0024 191C     		mov	r1, r3
  67 0026 FFF7FEFF 		bl	printf
  68 002a 27E0     		b	.L1
  69              	.L2:
  44:.\server.c    ****     }
  45:.\server.c    ****     else
  46:.\server.c    ****     {
  47:.\server.c    ****         printf("Start Advertisement with addr: ");
  70              		.loc 1 47 0
  71 002c 174B     		ldr	r3, .L6+8
  72 002e 181C     		mov	r0, r3
  73 0030 FFF7FEFF 		bl	printf
  48:.\server.c    ****         CyBle_GetDeviceAddress(&localAddr);
  74              		.loc 1 48 0
  75 0034 3B1D     		add	r3, r7, #4
  76 0036 181C     		mov	r0, r3
  77 0038 FFF7FEFF 		bl	CyBle_GetDeviceAddress
  49:.\server.c    ****         for(i = CYBLE_GAP_BD_ADDR_SIZE; i > 0u; i--)
  78              		.loc 1 49 0
  79 003c 3B1C     		mov	r3, r7
  80 003e 0E33     		add	r3, r3, #14
  81 0040 0622     		mov	r2, #6
  82 0042 1A80     		strh	r2, [r3]
  83 0044 11E0     		b	.L4
  84              	.L5:
  50:.\server.c    ****         {
  51:.\server.c    ****             printf("%2.2x", localAddr.bdAddr[i-1]);
  85              		.loc 1 51 0 discriminator 2
  86 0046 3B1C     		mov	r3, r7
  87 0048 0E33     		add	r3, r3, #14
  88 004a 1B88     		ldrh	r3, [r3]
  89 004c 013B     		sub	r3, r3, #1
  90 004e 3A1D     		add	r2, r7, #4
  91 0050 D35C     		ldrb	r3, [r2, r3]
  92 0052 0F4A     		ldr	r2, .L6+12
  93 0054 101C     		mov	r0, r2
  94 0056 191C     		mov	r1, r3
  95 0058 FFF7FEFF 		bl	printf
  49:.\server.c    ****         for(i = CYBLE_GAP_BD_ADDR_SIZE; i > 0u; i--)
  96              		.loc 1 49 0 discriminator 2
  97 005c 3B1C     		mov	r3, r7
  98 005e 0E33     		add	r3, r3, #14
  99 0060 1A88     		ldrh	r2, [r3]
 100 0062 3B1C     		mov	r3, r7
 101 0064 0E33     		add	r3, r3, #14
 102 0066 013A     		sub	r2, r2, #1
 103 0068 1A80     		strh	r2, [r3]
 104              	.L4:
  49:.\server.c    ****         for(i = CYBLE_GAP_BD_ADDR_SIZE; i > 0u; i--)
 105              		.loc 1 49 0 is_stmt 0 discriminator 1
 106 006a 3B1C     		mov	r3, r7
 107 006c 0E33     		add	r3, r3, #14
 108 006e 1B88     		ldrh	r3, [r3]
 109 0070 002B     		cmp	r3, #0
ARM GAS  C:\Users\jdmoussa\AppData\Local\Temp\ccJ6k8Kz.s 			page 4


 110 0072 E8D1     		bne	.L5
  52:.\server.c    ****         }
  53:.\server.c    ****         printf("\r\n");
 111              		.loc 1 53 0 is_stmt 1
 112 0074 074B     		ldr	r3, .L6+16
 113 0076 181C     		mov	r0, r3
 114 0078 FFF7FEFF 		bl	puts
 115              	.L1:
  54:.\server.c    ****     }
  55:.\server.c    **** }
 116              		.loc 1 55 0
 117 007c BD46     		mov	sp, r7
 118 007e 04B0     		add	sp, sp, #16
 119              		@ sp needed
 120 0080 80BD     		pop	{r7, pc}
 121              	.L7:
 122 0082 C046     		.align	2
 123              	.L6:
 124 0084 00000000 		.word	apiResult
 125 0088 00000000 		.word	.LC1
 126 008c 24000000 		.word	.LC3
 127 0090 44000000 		.word	.LC5
 128 0094 4C000000 		.word	.LC7
 129              		.cfi_endproc
 130              	.LFE35:
 131              		.size	StartAdvertisement, .-StartAdvertisement
 132              		.section	.rodata
 133 004e 0000     		.align	2
 134              	.LC10:
 135 0050 4359424C 		.ascii	"CYBLE_EVT_GAPP_ADVERTISEMENT_START_STOP, state: %x\015"
 135      455F4556 
 135      545F4741 
 135      50505F41 
 135      44564552 
 136 0083 0A00     		.ascii	"\012\000"
 137 0085 000000   		.align	2
 138              	.LC12:
 139 0088 48696265 		.ascii	"Hibernate \015\000"
 139      726E6174 
 139      65200D00 
 140              		.align	2
 141              	.LC14:
 142 0094 4556545F 		.ascii	"EVT_GATT_WRITE_REQ: %x = \000"
 142      47415454 
 142      5F575249 
 142      54455F52 
 142      45513A20 
 143 00ae 0000     		.align	2
 144              	.LC16:
 145 00b0 25322E32 		.ascii	"%2.2x \000"
 145      782000
 146 00b7 00       		.align	2
 147              	.LC19:
 148 00b8 4556545F 		.ascii	"EVT_GATTS_XCNHG_MTU_REQ \015\000"
 148      47415454 
 148      535F5843 
 148      4E48475F 
ARM GAS  C:\Users\jdmoussa\AppData\Local\Temp\ccJ6k8Kz.s 			page 5


 148      4D54555F 
 149 00d2 0000     		.align	2
 150              	.LC21:
 151 00d4 4556545F 		.ascii	"EVT_GATTS_HANDLE_VALUE_CNF \015\000"
 151      47415454 
 151      535F4841 
 151      4E444C45 
 151      5F56414C 
 152 00f1 000000   		.section	.text.ServerDebugOut,"ax",%progbits
 153              		.align	2
 154              		.global	ServerDebugOut
 155              		.code	16
 156              		.thumb_func
 157              		.type	ServerDebugOut, %function
 158              	ServerDebugOut:
 159              	.LFB36:
  56:.\server.c    **** 
  57:.\server.c    **** /*******************************************************************************
  58:.\server.c    **** * Function Name: ServerDebugOut
  59:.\server.c    **** ********************************************************************************
  60:.\server.c    **** *
  61:.\server.c    **** * Summary:
  62:.\server.c    **** *   GATT server specific event handler.
  63:.\server.c    **** *
  64:.\server.c    **** * Parameters:
  65:.\server.c    **** *  event - the event code.
  66:.\server.c    **** *  *eventParam - the event parameters.
  67:.\server.c    **** *
  68:.\server.c    **** * Return:
  69:.\server.c    **** *   None.
  70:.\server.c    **** *
  71:.\server.c    **** *******************************************************************************/
  72:.\server.c    **** void ServerDebugOut(uint32 event, void* eventParam)
  73:.\server.c    **** {
 160              		.loc 1 73 0
 161              		.cfi_startproc
 162 0000 80B5     		push	{r7, lr}
 163              		.cfi_def_cfa_offset 8
 164              		.cfi_offset 7, -8
 165              		.cfi_offset 14, -4
 166 0002 84B0     		sub	sp, sp, #16
 167              		.cfi_def_cfa_offset 24
 168 0004 00AF     		add	r7, sp, #0
 169              		.cfi_def_cfa_register 7
 170 0006 7860     		str	r0, [r7, #4]
 171 0008 3960     		str	r1, [r7]
  74:.\server.c    ****     uint16 i;
  75:.\server.c    ****     switch(event)
 172              		.loc 1 75 0
 173 000a 7B68     		ldr	r3, [r7, #4]
 174 000c 432B     		cmp	r3, #67
 175 000e 00D1     		bne	.LCB110
 176 0010 65E0     		b	.L10	@long jump
 177              	.LCB110:
 178 0012 02D8     		bhi	.L11
 179 0014 262B     		cmp	r3, #38
 180 0016 05D0     		beq	.L12
ARM GAS  C:\Users\jdmoussa\AppData\Local\Temp\ccJ6k8Kz.s 			page 6


  76:.\server.c    ****     {
  77:.\server.c    ****         case CYBLE_EVT_GAPP_ADVERTISEMENT_START_STOP:
  78:.\server.c    ****             printf("CYBLE_EVT_GAPP_ADVERTISEMENT_START_STOP, state: %x\r\n", CyBle_GetState());
  79:.\server.c    ****             if(CYBLE_STATE_DISCONNECTED == CyBle_GetState())
  80:.\server.c    ****             {   
  81:.\server.c    ****                 /* Fast and slow advertising period complete, go to low power  
  82:.\server.c    ****                  * mode (Hibernate mode) and wait for an external
  83:.\server.c    ****                  * user event to wake up the device again */
  84:.\server.c    ****                 printf("Hibernate \r\n");
  85:.\server.c    ****                 Advertising_LED_Write(LED_OFF);
  86:.\server.c    ****                 Disconnect_LED_Write(LED_ON);
  87:.\server.c    ****                 LowPower_LED_Write(LED_OFF);
  88:.\server.c    ****                 while((UART_DEB_SpiUartGetTxBufferSize() + UART_DEB_GET_TX_FIFO_SR_VALID) != 0);
  89:.\server.c    ****                 SW2_ClearInterrupt();
  90:.\server.c    ****                 Wakeup_Interrupt_ClearPending();
  91:.\server.c    ****                 Wakeup_Interrupt_Start();
  92:.\server.c    ****                 CySysPmHibernate();                
  93:.\server.c    ****             }
  94:.\server.c    ****             break;
  95:.\server.c    **** 
  96:.\server.c    ****         case CYBLE_EVT_GATTS_WRITE_REQ:
  97:.\server.c    ****             printf("EVT_GATT_WRITE_REQ: %x = ",((CYBLE_GATTS_WRITE_REQ_PARAM_T *)eventParam)->handl
  98:.\server.c    ****             for(i = 0; i < ((CYBLE_GATTS_WRITE_REQ_PARAM_T *)eventParam)->handleValPair.value.len; 
  99:.\server.c    ****             {
 100:.\server.c    ****                 printf("%2.2x ", ((CYBLE_GATTS_WRITE_REQ_PARAM_T *)eventParam)->handleValPair.value
 101:.\server.c    ****             }
 102:.\server.c    ****             printf("\r\n");
 103:.\server.c    ****             break;
 104:.\server.c    **** 
 105:.\server.c    ****         case CYBLE_EVT_GATTS_XCNHG_MTU_REQ:
 106:.\server.c    ****             printf("EVT_GATTS_XCNHG_MTU_REQ \r\n");
 107:.\server.c    ****             break;
 108:.\server.c    **** 
 109:.\server.c    ****         case CYBLE_EVT_GATTS_HANDLE_VALUE_CNF:
 110:.\server.c    ****             printf("EVT_GATTS_HANDLE_VALUE_CNF \r\n");
 111:.\server.c    ****             break;
 112:.\server.c    **** 
 113:.\server.c    ****         default:
 114:.\server.c    ****         #if (0)
 115:.\server.c    ****             printf("unknown event: %lx \r\n", event);
 116:.\server.c    ****         #endif
 117:.\server.c    ****             break;
 181              		.loc 1 117 0
 182 0018 6BE0     		b	.L8
 183              	.L11:
  75:.\server.c    ****     switch(event)
 184              		.loc 1 75 0
 185 001a 4C2B     		cmp	r3, #76
 186 001c 34D0     		beq	.L13
 187 001e 542B     		cmp	r3, #84
 188 0020 62D0     		beq	.L14
 189              		.loc 1 117 0
 190 0022 66E0     		b	.L8
 191              	.L12:
  78:.\server.c    ****             printf("CYBLE_EVT_GAPP_ADVERTISEMENT_START_STOP, state: %x\r\n", CyBle_GetState());
 192              		.loc 1 78 0
 193 0024 344B     		ldr	r3, .L22
ARM GAS  C:\Users\jdmoussa\AppData\Local\Temp\ccJ6k8Kz.s 			page 7


 194 0026 1B78     		ldrb	r3, [r3]
 195 0028 344A     		ldr	r2, .L22+4
 196 002a 101C     		mov	r0, r2
 197 002c 191C     		mov	r1, r3
 198 002e FFF7FEFF 		bl	printf
  79:.\server.c    ****             if(CYBLE_STATE_DISCONNECTED == CyBle_GetState())
 199              		.loc 1 79 0
 200 0032 314B     		ldr	r3, .L22
 201 0034 1B78     		ldrb	r3, [r3]
 202 0036 042B     		cmp	r3, #4
 203 0038 25D1     		bne	.L15
  84:.\server.c    ****                 printf("Hibernate \r\n");
 204              		.loc 1 84 0
 205 003a 314B     		ldr	r3, .L22+8
 206 003c 181C     		mov	r0, r3
 207 003e FFF7FEFF 		bl	puts
  85:.\server.c    ****                 Advertising_LED_Write(LED_OFF);
 208              		.loc 1 85 0
 209 0042 0120     		mov	r0, #1
 210 0044 FFF7FEFF 		bl	Advertising_LED_Write
  86:.\server.c    ****                 Disconnect_LED_Write(LED_ON);
 211              		.loc 1 86 0
 212 0048 0020     		mov	r0, #0
 213 004a FFF7FEFF 		bl	Disconnect_LED_Write
  87:.\server.c    ****                 LowPower_LED_Write(LED_OFF);
 214              		.loc 1 87 0
 215 004e 0120     		mov	r0, #1
 216 0050 FFF7FEFF 		bl	LowPower_LED_Write
  88:.\server.c    ****                 while((UART_DEB_SpiUartGetTxBufferSize() + UART_DEB_GET_TX_FIFO_SR_VALID) != 0);
 217              		.loc 1 88 0
 218 0054 C046     		mov	r8, r8
 219              	.L18:
  88:.\server.c    ****                 while((UART_DEB_SpiUartGetTxBufferSize() + UART_DEB_GET_TX_FIFO_SR_VALID) != 0);
 220              		.loc 1 88 0 is_stmt 0 discriminator 1
 221 0056 FFF7FEFF 		bl	UART_DEB_SpiUartGetTxBufferSize
 222 005a 021C     		mov	r2, r0
 223 005c 294B     		ldr	r3, .L22+12
 224 005e 1968     		ldr	r1, [r3]
 225 0060 8023     		mov	r3, #128
 226 0062 1B02     		lsl	r3, r3, #8
 227 0064 0B40     		and	r3, r1
 228 0066 01D0     		beq	.L16
 229 0068 0123     		mov	r3, #1
 230 006a 00E0     		b	.L17
 231              	.L16:
  88:.\server.c    ****                 while((UART_DEB_SpiUartGetTxBufferSize() + UART_DEB_GET_TX_FIFO_SR_VALID) != 0);
 232              		.loc 1 88 0 discriminator 2
 233 006c 0023     		mov	r3, #0
 234              	.L17:
  88:.\server.c    ****                 while((UART_DEB_SpiUartGetTxBufferSize() + UART_DEB_GET_TX_FIFO_SR_VALID) != 0);
 235              		.loc 1 88 0 discriminator 3
 236 006e D318     		add	r3, r2, r3
 237 0070 002B     		cmp	r3, #0
 238 0072 F0D1     		bne	.L18
  89:.\server.c    ****                 SW2_ClearInterrupt();
 239              		.loc 1 89 0 is_stmt 1
 240 0074 FFF7FEFF 		bl	SW2_ClearInterrupt
ARM GAS  C:\Users\jdmoussa\AppData\Local\Temp\ccJ6k8Kz.s 			page 8


  90:.\server.c    ****                 Wakeup_Interrupt_ClearPending();
 241              		.loc 1 90 0
 242 0078 FFF7FEFF 		bl	Wakeup_Interrupt_ClearPending
  91:.\server.c    ****                 Wakeup_Interrupt_Start();
 243              		.loc 1 91 0
 244 007c FFF7FEFF 		bl	Wakeup_Interrupt_Start
  92:.\server.c    ****                 CySysPmHibernate();                
 245              		.loc 1 92 0
 246 0080 FFF7FEFF 		bl	CySysPmHibernate
  94:.\server.c    ****             break;
 247              		.loc 1 94 0
 248 0084 35E0     		b	.L8
 249              	.L15:
 250 0086 34E0     		b	.L8
 251              	.L13:
  97:.\server.c    ****             printf("EVT_GATT_WRITE_REQ: %x = ",((CYBLE_GATTS_WRITE_REQ_PARAM_T *)eventParam)->handl
 252              		.loc 1 97 0
 253 0088 3B68     		ldr	r3, [r7]
 254 008a 9B89     		ldrh	r3, [r3, #12]
 255 008c 1E4A     		ldr	r2, .L22+16
 256 008e 101C     		mov	r0, r2
 257 0090 191C     		mov	r1, r3
 258 0092 FFF7FEFF 		bl	printf
  98:.\server.c    ****             for(i = 0; i < ((CYBLE_GATTS_WRITE_REQ_PARAM_T *)eventParam)->handleValPair.value.len; 
 259              		.loc 1 98 0
 260 0096 3B1C     		mov	r3, r7
 261 0098 0E33     		add	r3, r3, #14
 262 009a 0022     		mov	r2, #0
 263 009c 1A80     		strh	r2, [r3]
 264 009e 12E0     		b	.L20
 265              	.L21:
 100:.\server.c    ****                 printf("%2.2x ", ((CYBLE_GATTS_WRITE_REQ_PARAM_T *)eventParam)->handleValPair.value
 266              		.loc 1 100 0 discriminator 2
 267 00a0 3B68     		ldr	r3, [r7]
 268 00a2 5A68     		ldr	r2, [r3, #4]
 269 00a4 3B1C     		mov	r3, r7
 270 00a6 0E33     		add	r3, r3, #14
 271 00a8 1B88     		ldrh	r3, [r3]
 272 00aa D318     		add	r3, r2, r3
 273 00ac 1B78     		ldrb	r3, [r3]
 274 00ae 174A     		ldr	r2, .L22+20
 275 00b0 101C     		mov	r0, r2
 276 00b2 191C     		mov	r1, r3
 277 00b4 FFF7FEFF 		bl	printf
  98:.\server.c    ****             for(i = 0; i < ((CYBLE_GATTS_WRITE_REQ_PARAM_T *)eventParam)->handleValPair.value.len; 
 278              		.loc 1 98 0 discriminator 2
 279 00b8 3B1C     		mov	r3, r7
 280 00ba 0E33     		add	r3, r3, #14
 281 00bc 1A88     		ldrh	r2, [r3]
 282 00be 3B1C     		mov	r3, r7
 283 00c0 0E33     		add	r3, r3, #14
 284 00c2 0132     		add	r2, r2, #1
 285 00c4 1A80     		strh	r2, [r3]
 286              	.L20:
  98:.\server.c    ****             for(i = 0; i < ((CYBLE_GATTS_WRITE_REQ_PARAM_T *)eventParam)->handleValPair.value.len; 
 287              		.loc 1 98 0 is_stmt 0 discriminator 1
 288 00c6 3B68     		ldr	r3, [r7]
ARM GAS  C:\Users\jdmoussa\AppData\Local\Temp\ccJ6k8Kz.s 			page 9


 289 00c8 1B89     		ldrh	r3, [r3, #8]
 290 00ca 3A1C     		mov	r2, r7
 291 00cc 0E32     		add	r2, r2, #14
 292 00ce 1288     		ldrh	r2, [r2]
 293 00d0 9A42     		cmp	r2, r3
 294 00d2 E5D3     		bcc	.L21
 102:.\server.c    ****             printf("\r\n");
 295              		.loc 1 102 0 is_stmt 1
 296 00d4 0E4B     		ldr	r3, .L22+24
 297 00d6 181C     		mov	r0, r3
 298 00d8 FFF7FEFF 		bl	puts
 103:.\server.c    ****             break;
 299              		.loc 1 103 0
 300 00dc 09E0     		b	.L8
 301              	.L10:
 106:.\server.c    ****             printf("EVT_GATTS_XCNHG_MTU_REQ \r\n");
 302              		.loc 1 106 0
 303 00de 0D4B     		ldr	r3, .L22+28
 304 00e0 181C     		mov	r0, r3
 305 00e2 FFF7FEFF 		bl	puts
 107:.\server.c    ****             break;
 306              		.loc 1 107 0
 307 00e6 04E0     		b	.L8
 308              	.L14:
 110:.\server.c    ****             printf("EVT_GATTS_HANDLE_VALUE_CNF \r\n");
 309              		.loc 1 110 0
 310 00e8 0B4B     		ldr	r3, .L22+32
 311 00ea 181C     		mov	r0, r3
 312 00ec FFF7FEFF 		bl	puts
 111:.\server.c    ****             break;
 313              		.loc 1 111 0
 314 00f0 C046     		mov	r8, r8
 315              	.L8:
 118:.\server.c    ****     }
 119:.\server.c    **** }
 316              		.loc 1 119 0
 317 00f2 BD46     		mov	sp, r7
 318 00f4 04B0     		add	sp, sp, #16
 319              		@ sp needed
 320 00f6 80BD     		pop	{r7, pc}
 321              	.L23:
 322              		.align	2
 323              	.L22:
 324 00f8 00000000 		.word	cyBle_state
 325 00fc 50000000 		.word	.LC10
 326 0100 88000000 		.word	.LC12
 327 0104 08022440 		.word	1076101640
 328 0108 94000000 		.word	.LC14
 329 010c B0000000 		.word	.LC16
 330 0110 4C000000 		.word	.LC7
 331 0114 B8000000 		.word	.LC19
 332 0118 D4000000 		.word	.LC21
 333              		.cfi_endproc
 334              	.LFE36:
 335              		.size	ServerDebugOut, .-ServerDebugOut
 336              		.text
 337              	.Letext0:
ARM GAS  C:\Users\jdmoussa\AppData\Local\Temp\ccJ6k8Kz.s 			page 10


 338              		.file 2 ".\\Generated_Source\\PSoC4/cytypes.h"
 339              		.file 3 ".\\Generated_Source\\PSoC4/CYBLE_Stack.h"
 340              		.file 4 ".\\Generated_Source\\PSoC4/CYBLE_StackGatt.h"
 341              		.file 5 ".\\Generated_Source\\PSoC4/CYBLE_StackGattServer.h"
 342              		.file 6 ".\\Generated_Source\\PSoC4/CYBLE_eventHandler.h"
 343              		.file 7 ".\\common.h"